Archive member included to satisfy reference by file (symbol)

libbb/lib.a(appletlib.o)      /home/notlean/openwrt-uboost/staging_dir/toolchain-aarch64_cortex-a53_gcc-12.3.0_musl/lib/gcc/aarch64-openwrt-linux-musl/12.3.0/../../../../aarch64-openwrt-linux-musl/lib/crt1.o (main)
libbb/lib.a(compare_string_array.o)
                              appletlib.o (symbol from plugin) (is_prefixed_with)
libbb/lib.a(default_error_retval.o)
                              appletlib.o (symbol from plugin) (xfunc_error_retval)
libbb/lib.a(get_last_path_component.o)
                              appletlib.o (symbol from plugin) (bb_basename)
libbb/lib.a(last_char_is.o)   get_last_path_component.o (symbol from plugin) (last_char_is)
libbb/lib.a(messages.o)       appletlib.o (symbol from plugin) (bb_banner)
libbb/lib.a(ptr_to_globals.o)
                              appletlib.o (symbol from plugin) (bb_errno)
libbb/lib.a(vfork_daemon_rexec.o)
                              appletlib.o (symbol from plugin) (re_execed_comm)
libbb/lib.a(xfunc_die.o)      appletlib.o (symbol from plugin) (xfunc_die)
libbb/lib.a(xfuncs.o)         appletlib.o (symbol from plugin) (full_write2_str)
libbb/lib.a(xfuncs_printf.o)  vfork_daemon_rexec.o (symbol from plugin) (xopen)
libbb/lib.a(copyfd.o)         xfuncs_printf.o (symbol from plugin) (bb_copyfd_eof)
libbb/lib.a(executable.o)     vfork_daemon_rexec.o (symbol from plugin) (BB_EXECVP)
libbb/lib.a(full_write.o)     xfuncs.o (symbol from plugin) (full_write)
libbb/lib.a(getopt32.o)       vfork_daemon_rexec.o (symbol from plugin) (option_mask32)
libbb/lib.a(llist.o)          getopt32.o (symbol from plugin) (llist_add_to_end)
libbb/lib.a(perror_msg.o)     xfuncs_printf.o (symbol from plugin) (bb_perror_msg)
libbb/lib.a(read.o)           copyfd.o (symbol from plugin) (safe_read)
libbb/lib.a(safe_strncpy.o)   getopt32.o (symbol from plugin) (overlapping_strcpy)
libbb/lib.a(safe_write.o)     full_write.o (symbol from plugin) (safe_write)
libbb/lib.a(signals.o)        xfuncs_printf.o (symbol from plugin) (kill_myself_with_sig)
libbb/lib.a(time.o)           xfuncs_printf.o (symbol from plugin) (monotonic_us)
libbb/lib.a(verror_msg.o)     xfuncs_printf.o (symbol from plugin) (bb_verror_msg)
libbb/lib.a(xatonum.o)        getopt32.o (symbol from plugin) (xatoi_positive)
libbb/lib.a(bb_strtonum.o)    time.o (symbol from plugin) (bb_strtoll)
libbb/lib.a(concat_path_file.o)
                              executable.o (symbol from plugin) (concat_path_file)
loginutils/lib.a(login.o)     appletlib.o (symbol from plugin) (login_main)
loginutils/lib.a(passwd.o)    appletlib.o (symbol from plugin) (passwd_main)
miscutils/lib.a(crond.o)      appletlib.o (symbol from plugin) (crond_main)
miscutils/lib.a(crontab.o)    appletlib.o (symbol from plugin) (crontab_main)
miscutils/lib.a(less.o)       appletlib.o (symbol from plugin) (less_main)
miscutils/lib.a(lock.o)       appletlib.o (symbol from plugin) (lock_main)
miscutils/lib.a(strings.o)    appletlib.o (symbol from plugin) (strings_main)
miscutils/lib.a(time.o)       appletlib.o (symbol from plugin) (time_main)
networking/lib.a(brctl.o)     appletlib.o (symbol from plugin) (brctl_main)
networking/lib.a(ifconfig.o)  appletlib.o (symbol from plugin) (ifconfig_main)
networking/lib.a(interface.o)
                              ifconfig.o (symbol from plugin) (display_interfaces)
networking/lib.a(ip.o)        appletlib.o (symbol from plugin) (ip_main)
networking/lib.a(nc.o)        appletlib.o (symbol from plugin) (nc_main)
networking/lib.a(netmsg.o)    appletlib.o (symbol from plugin) (netmsg_main)
networking/lib.a(netstat.o)   appletlib.o (symbol from plugin) (netstat_main)
networking/lib.a(nslookup.o)  appletlib.o (symbol from plugin) (nslookup_main)
networking/lib.a(ntpd.o)      appletlib.o (symbol from plugin) (ntpd_main)
networking/lib.a(ping.o)      appletlib.o (symbol from plugin) (ping_main)
networking/lib.a(route.o)     netstat.o (symbol from plugin) (bb_displayroutes)
networking/lib.a(traceroute.o)
                              appletlib.o (symbol from plugin) (traceroute_main)
networking/libiproute/lib.a(ip_parse_common_args.o)
                              ip.o (symbol from plugin) (ip_parse_common_args)
networking/libiproute/lib.a(ipaddress.o)
                              ip.o (symbol from plugin) (do_ipaddr)
networking/libiproute/lib.a(iplink.o)
                              ip.o (symbol from plugin) (do_iplink)
networking/libiproute/lib.a(ipneigh.o)
                              ip.o (symbol from plugin) (do_ipneigh)
networking/libiproute/lib.a(iproute.o)
                              ip.o (symbol from plugin) (do_iproute)
networking/libiproute/lib.a(iprule.o)
                              ip.o (symbol from plugin) (do_iprule)
networking/libiproute/lib.a(libnetlink.o)
                              ipaddress.o (symbol from plugin) (xrtnl_open)
networking/libiproute/lib.a(ll_addr.o)
                              ipaddress.o (symbol from plugin) (ll_addr_n2a)
networking/libiproute/lib.a(ll_map.o)
                              ipaddress.o (symbol from plugin) (ll_remember_index)
networking/libiproute/lib.a(ll_types.o)
                              ipaddress.o (symbol from plugin) (ll_type_n2a)
networking/libiproute/lib.a(rt_names.o)
                              iproute.o (symbol from plugin) (rtnl_rtprot_a2n)
networking/libiproute/lib.a(rtm_map.o)
                              iproute.o (symbol from plugin) (rtnl_rtntype_n2a)
networking/libiproute/lib.a(utils.o)
                              ipneigh.o (symbol from plugin) (get_hz)
networking/udhcp/lib.a(dhcpc.o)
                              appletlib.o (symbol from plugin) (udhcpc_main)
networking/udhcp/lib.a(domain_codec.o)
                              dhcpc.o (symbol from plugin) (dname_dec)
networking/udhcp/lib.a(packet.o)
                              dhcpc.o (symbol from plugin) (udhcp_init_header)
networking/udhcp/lib.a(signalpipe.o)
                              dhcpc.o (symbol from plugin) (udhcp_sp_setup)
networking/udhcp/lib.a(socket.o)
                              dhcpc.o (symbol from plugin) (udhcp_read_interface)
networking/udhcp/lib.a(common.o)
                              dhcpc.o (symbol from plugin) (udhcp_option_idx)
procps/lib.a(free.o)          appletlib.o (symbol from plugin) (free_main)
procps/lib.a(kill.o)          appletlib.o (symbol from plugin) (kill_main)
procps/lib.a(pgrep.o)         appletlib.o (symbol from plugin) (pgrep_main)
procps/lib.a(pidof.o)         appletlib.o (symbol from plugin) (pidof_main)
procps/lib.a(ps.o)            appletlib.o (symbol from plugin) (ps_main)
procps/lib.a(sysctl.o)        appletlib.o (symbol from plugin) (sysctl_main)
procps/lib.a(top.o)           appletlib.o (symbol from plugin) (top_main)
procps/lib.a(uptime.o)        appletlib.o (symbol from plugin) (uptime_main)
shell/lib.a(ash.o)            appletlib.o (symbol from plugin) (ash_main)
shell/lib.a(ash_ptr_hack.o)   ash.o (symbol from plugin) (ash_ptr_to_globals_var)
shell/lib.a(math.o)           ash.o (symbol from plugin) (arith)
shell/lib.a(random.o)         ash.o (symbol from plugin) (next_random)
shell/lib.a(shell_common.o)   ash.o (symbol from plugin) (shell_builtin_read)
sysklogd/lib.a(syslogd_and_logger.o)
                              appletlib.o (symbol from plugin) (logger_main)
util-linux/lib.a(dmesg.o)     appletlib.o (symbol from plugin) (dmesg_main)
util-linux/lib.a(flock.o)     appletlib.o (symbol from plugin) (flock_main)
util-linux/lib.a(hexdump.o)   appletlib.o (symbol from plugin) (hexdump_main)
util-linux/lib.a(hwclock.o)   appletlib.o (symbol from plugin) (hwclock_main)
util-linux/lib.a(mkswap.o)    appletlib.o (symbol from plugin) (mkswap_main)
util-linux/lib.a(mount.o)     appletlib.o (symbol from plugin) (mount_main)
util-linux/lib.a(pivot_root.o)
                              appletlib.o (symbol from plugin) (pivot_root_main)
util-linux/lib.a(swaponoff.o)
                              appletlib.o (symbol from plugin) (swap_on_off_main)
util-linux/lib.a(switch_root.o)
                              appletlib.o (symbol from plugin) (switch_root_main)
util-linux/lib.a(taskset.o)   appletlib.o (symbol from plugin) (taskset_main)
util-linux/lib.a(umount.o)    appletlib.o (symbol from plugin) (umount_main)
archival/lib.a(bbunzip.o)     appletlib.o (symbol from plugin) (gunzip_main)
archival/lib.a(gzip.o)        appletlib.o (symbol from plugin) (gzip_main)
archival/lib.a(tar.o)         appletlib.o (symbol from plugin) (tar_main)
archival/lib.a(chksum_and_xwrite_tar_header.o)
                              tar.o (symbol from plugin) (chksum_and_xwrite_tar_header)
archival/libarchive/lib.a(data_extract_all.o)
                              tar.o (symbol from plugin) (data_extract_all)
archival/libarchive/lib.a(data_extract_to_stdout.o)
                              tar.o (symbol from plugin) (data_extract_to_stdout)
archival/libarchive/lib.a(data_skip.o)
                              data_extract_all.o (symbol from plugin) (data_skip)
archival/libarchive/lib.a(decompress_gunzip.o)
                              bbunzip.o (symbol from plugin) (unpack_gz_stream)
archival/libarchive/lib.a(filter_accept_reject_list.o)
                              tar.o (symbol from plugin) (filter_accept_reject_list)
archival/libarchive/lib.a(find_list_entry.o)
                              tar.o (symbol from plugin) (find_list_entry)
archival/libarchive/lib.a(get_header_tar.o)
                              tar.o (symbol from plugin) (get_header_tar)
archival/libarchive/lib.a(header_list.o)
                              tar.o (symbol from plugin) (header_list)
archival/libarchive/lib.a(header_verbose_list.o)
                              tar.o (symbol from plugin) (header_verbose_list)
archival/libarchive/lib.a(init_handle.o)
                              tar.o (symbol from plugin) (init_handle)
archival/libarchive/lib.a(open_transformer.o)
                              bbunzip.o (symbol from plugin) (init_transformer_state)
archival/libarchive/lib.a(seek_by_jump.o)
                              init_handle.o (symbol from plugin) (seek_by_jump)
archival/libarchive/lib.a(seek_by_read.o)
                              tar.o (symbol from plugin) (seek_by_read)
archival/libarchive/lib.a(unsafe_prefix.o)
                              tar.o (symbol from plugin) (strip_unsafe_prefix)
archival/libarchive/lib.a(unsafe_symlink_target.o)
                              data_extract_all.o (symbol from plugin) (create_or_remember_link)
archival/libarchive/lib.a(data_align.o)
                              get_header_tar.o (symbol from plugin) (data_align)
archival/libarchive/lib.a(filter_accept_all.o)
                              init_handle.o (symbol from plugin) (filter_accept_all)
archival/libarchive/lib.a(header_skip.o)
                              init_handle.o (symbol from plugin) (header_skip)
console-tools/lib.a(clear.o)  appletlib.o (symbol from plugin) (clear_main)
console-tools/lib.a(reset.o)  appletlib.o (symbol from plugin) (reset_main)
console-tools/lib.a(resize.o)
                              appletlib.o (symbol from plugin) (resize_main)
coreutils/lib.a(basename.o)   appletlib.o (symbol from plugin) (basename_main)
coreutils/lib.a(cat.o)        appletlib.o (symbol from plugin) (cat_main)
coreutils/lib.a(chgrp.o)      appletlib.o (symbol from plugin) (chgrp_main)
coreutils/lib.a(chmod.o)      appletlib.o (symbol from plugin) (chmod_main)
coreutils/lib.a(chown.o)      appletlib.o (symbol from plugin) (chown_main)
coreutils/lib.a(chroot.o)     appletlib.o (symbol from plugin) (chroot_main)
coreutils/lib.a(cp.o)         appletlib.o (symbol from plugin) (cp_main)
coreutils/lib.a(cut.o)        appletlib.o (symbol from plugin) (cut_main)
coreutils/lib.a(date.o)       appletlib.o (symbol from plugin) (date_main)
coreutils/lib.a(dd.o)         appletlib.o (symbol from plugin) (dd_main)
coreutils/lib.a(df.o)         appletlib.o (symbol from plugin) (df_main)
coreutils/lib.a(dirname.o)    appletlib.o (symbol from plugin) (dirname_main)
coreutils/lib.a(du.o)         appletlib.o (symbol from plugin) (du_main)
coreutils/lib.a(echo.o)       appletlib.o (symbol from plugin) (echo_main)
coreutils/lib.a(env.o)        appletlib.o (symbol from plugin) (env_main)
coreutils/lib.a(expr.o)       appletlib.o (symbol from plugin) (expr_main)
coreutils/lib.a(false.o)      appletlib.o (symbol from plugin) (false_main)
coreutils/lib.a(head.o)       appletlib.o (symbol from plugin) (head_main)
coreutils/lib.a(id.o)         appletlib.o (symbol from plugin) (id_main)
coreutils/lib.a(ln.o)         appletlib.o (symbol from plugin) (ln_main)
coreutils/lib.a(ls.o)         appletlib.o (symbol from plugin) (ls_main)
coreutils/lib.a(md5_sha1_sum.o)
                              appletlib.o (symbol from plugin) (md5_sha1_sum_main)
coreutils/lib.a(mkdir.o)      appletlib.o (symbol from plugin) (mkdir_main)
coreutils/lib.a(mkfifo.o)     appletlib.o (symbol from plugin) (mkfifo_main)
coreutils/lib.a(mknod.o)      appletlib.o (symbol from plugin) (mknod_main)
coreutils/lib.a(mktemp.o)     appletlib.o (symbol from plugin) (mktemp_main)
coreutils/lib.a(mv.o)         appletlib.o (symbol from plugin) (mv_main)
coreutils/lib.a(nice.o)       appletlib.o (symbol from plugin) (nice_main)
coreutils/lib.a(printf.o)     appletlib.o (symbol from plugin) (printf_main)
coreutils/lib.a(pwd.o)        appletlib.o (symbol from plugin) (pwd_main)
coreutils/lib.a(readlink.o)   appletlib.o (symbol from plugin) (readlink_main)
coreutils/lib.a(rm.o)         appletlib.o (symbol from plugin) (rm_main)
coreutils/lib.a(rmdir.o)      appletlib.o (symbol from plugin) (rmdir_main)
coreutils/lib.a(seq.o)        appletlib.o (symbol from plugin) (seq_main)
coreutils/lib.a(sleep.o)      appletlib.o (symbol from plugin) (sleep_main)
coreutils/lib.a(sort.o)       appletlib.o (symbol from plugin) (sort_main)
coreutils/lib.a(sync.o)       appletlib.o (symbol from plugin) (sync_main)
coreutils/lib.a(tail.o)       appletlib.o (symbol from plugin) (tail_main)
coreutils/lib.a(tee.o)        appletlib.o (symbol from plugin) (tee_main)
coreutils/lib.a(test.o)       appletlib.o (symbol from plugin) (test_main)
coreutils/lib.a(test_ptr_hack.o)
                              test.o (symbol from plugin) (test_ptr_to_statics)
coreutils/lib.a(touch.o)      appletlib.o (symbol from plugin) (touch_main)
coreutils/lib.a(tr.o)         appletlib.o (symbol from plugin) (tr_main)
coreutils/lib.a(true.o)       appletlib.o (symbol from plugin) (true_main)
coreutils/lib.a(uname.o)      appletlib.o (symbol from plugin) (uname_main)
coreutils/lib.a(uniq.o)       appletlib.o (symbol from plugin) (uniq_main)
coreutils/lib.a(wc.o)         appletlib.o (symbol from plugin) (wc_main)
coreutils/lib.a(yes.o)        appletlib.o (symbol from plugin) (yes_main)
coreutils/libcoreutils/lib.a(cp_mv_stat.o)
                              cp.o (symbol from plugin) (cp_mv_stat2)
coreutils/libcoreutils/lib.a(getopt_mk_fifo_nod.o)
                              mkfifo.o (symbol from plugin) (getopt_mk_fifo_nod)
debianutils/lib.a(start_stop_daemon.o)
                              appletlib.o (symbol from plugin) (start_stop_daemon_main)
debianutils/lib.a(which.o)    appletlib.o (symbol from plugin) (which_main)
editors/lib.a(awk.o)          appletlib.o (symbol from plugin) (awk_main)
editors/lib.a(cmp.o)          appletlib.o (symbol from plugin) (cmp_main)
editors/lib.a(sed.o)          appletlib.o (symbol from plugin) (sed_main)
editors/lib.a(vi.o)           appletlib.o (symbol from plugin) (vi_main)
findutils/lib.a(find.o)       appletlib.o (symbol from plugin) (find_main)
findutils/lib.a(grep.o)       appletlib.o (symbol from plugin) (grep_main)
findutils/lib.a(xargs.o)      appletlib.o (symbol from plugin) (xargs_main)
init/lib.a(halt.o)            appletlib.o (symbol from plugin) (halt_main)
libbb/lib.a(ask_confirmation.o)
                              xargs.o (symbol from plugin) (bb_ask_y_confirmation_FILE)
libbb/lib.a(auto_string.o)    interface.o (symbol from plugin) (auto_string)
libbb/lib.a(bb_askpass.o)     passwd.o (symbol from plugin) (bb_ask_noecho_stdin)
libbb/lib.a(bb_cat.o)         crontab.o (symbol from plugin) (bb_cat)
libbb/lib.a(bb_do_delay.o)    login.o (symbol from plugin) (pause_after_failed_login)
libbb/lib.a(bb_getgroups.o)   test.o (symbol from plugin) (bb_getgroups)
libbb/lib.a(bb_getsockname.o)
                              iplink.o (symbol from plugin) (bb_getsockname)
libbb/lib.a(bb_pwd.o)         passwd.o (symbol from plugin) (xgetpwnam)
libbb/lib.a(change_identity.o)
                              login.o (symbol from plugin) (change_identity)
libbb/lib.a(chomp.o)          netstat.o (symbol from plugin) (chomp)
libbb/lib.a(common_bufsiz.o)  login.o (symbol from plugin) (bb_common_bufsiz1)
libbb/lib.a(concat_subpath_file.o)
                              sysctl.o (symbol from plugin) (concat_subpath_file)
libbb/lib.a(copy_file.o)      cp.o (symbol from plugin) (copy_file)
libbb/lib.a(correct_password.o)
                              login.o (symbol from plugin) (ask_and_check_password)
libbb/lib.a(crc32.o)          decompress_gunzip.o (symbol from plugin) (crc32_new_table_le)
libbb/lib.a(dump.o)           hexdump.o (symbol from plugin) (alloc_dumper)
libbb/lib.a(duration.o)       ping.o (symbol from plugin) (parse_duration_str)
libbb/lib.a(endofname.o)      ash.o (symbol from plugin) (endofname)
libbb/lib.a(fclose_nonstdin.o)
                              strings.o (symbol from plugin) (fclose_if_not_stdin)
libbb/lib.a(fflush_stdout_and_exit.o)
                              strings.o (symbol from plugin) (fflush_stdout_and_exit)
libbb/lib.a(fgets_str.o)      netstat.o (symbol from plugin) (xmalloc_fgets_str)
libbb/lib.a(find_mount_point.o)
                              mount.o (symbol from plugin) (find_mount_point)
libbb/lib.a(find_pid_by_name.o)
                              kill.o (symbol from plugin) (find_pid_by_name)
libbb/lib.a(get_line_from_file.o)
                              sed.o (symbol from plugin) (bb_get_chunk_from_file)
libbb/lib.a(get_shell_name.o)
                              crond.o (symbol from plugin) (get_shell_name)
libbb/lib.a(get_volsize.o)    mkswap.o (symbol from plugin) (get_volume_size_in_bytes)
libbb/lib.a(getopt_allopts.o)
                              ps.o (symbol from plugin) (make_all_argv_opts)
libbb/lib.a(hash_md5_sha.o)   ntpd.o (symbol from plugin) (md5_begin)
libbb/lib.a(human_readable.o)
                              free.o (symbol from plugin) (make_human_readable_str)
libbb/lib.a(in_ether.o)       ifconfig.o (symbol from plugin) (in_ether)
libbb/lib.a(inet_cksum.o)     ping.o (symbol from plugin) (inet_cksum)
libbb/lib.a(inet_common.o)    interface.o (symbol from plugin) (INET_resolve)
libbb/lib.a(inode_hash.o)     du.o (symbol from plugin) (is_in_ino_dev_hashtable)
libbb/lib.a(isdirectory.o)    ln.o (symbol from plugin) (is_directory)
libbb/lib.a(iterate_on_dir.o)
                              switch_root.o (symbol from plugin) (iterate_on_dir)
libbb/lib.a(lineedit.o)       ash.o (symbol from plugin) (new_line_input_t)
libbb/lib.a(lineedit_ptr_hack.o)
                              lineedit.o (symbol from plugin) (lineedit_ptr_to_statics)
libbb/lib.a(login.o)          login.o (symbol from plugin) (print_login_prompt)
libbb/lib.a(loop.o)           mount.o (symbol from plugin) (del_loop)
libbb/lib.a(make_directory.o)
                              data_extract_all.o (symbol from plugin) (bb_make_directory)
libbb/lib.a(match_fstype.o)   mount.o (symbol from plugin) (fstype_matches)
libbb/lib.a(mode_string.o)    header_verbose_list.o (symbol from plugin) (bb_mode_string)
libbb/lib.a(nuke_str.o)       passwd.o (symbol from plugin) (nuke_str)
libbb/lib.a(obscure.o)        passwd.o (symbol from plugin) (obscure)
libbb/lib.a(parse_config.o)   rt_names.o (symbol from plugin) (config_open2)
libbb/lib.a(parse_mode.o)     ash.o (symbol from plugin) (bb_parse_mode)
libbb/lib.a(perror_nomsg_and_die.o)
                              flock.o (symbol from plugin) (bb_perror_nomsg_and_die)
libbb/lib.a(pidfile.o)        dhcpc.o (symbol from plugin) (write_pidfile)
libbb/lib.a(print_flags.o)    ipaddress.o (symbol from plugin) (print_flags_separated)
libbb/lib.a(printable.o)      netstat.o (symbol from plugin) (fputc_printable)
libbb/lib.a(printable_string.o)
                              ls.o (symbol from plugin) (printable_string2)
libbb/lib.a(process_escape_sequence.o)
                              ash.o (symbol from plugin) (bb_process_escape_sequence)
libbb/lib.a(procps.o)         top.o (symbol from plugin) (clear_username_cache)
libbb/lib.a(pw_encrypt.o)     passwd.o (symbol from plugin) (crypt_make_pw_salt)
libbb/lib.a(read_key.o)       lineedit.o (symbol from plugin) (read_key)
libbb/lib.a(read_printf.o)    ash.o (symbol from plugin) (nonblock_immune_read)
libbb/lib.a(recursive_action.o)
                              netstat.o (symbol from plugin) (recursive_action)
libbb/lib.a(remove_file.o)    mv.o (symbol from plugin) (remove_file)
libbb/lib.a(replace.o)        find.o (symbol from plugin) (count_strstr)
libbb/lib.a(rtc.o)            hwclock.o (symbol from plugin) (rtc_adjtime_is_utc)
libbb/lib.a(run_shell.o)      login.o (symbol from plugin) (exec_login_shell)
libbb/lib.a(safe_gethostname.o)
                              nslookup.o (symbol from plugin) (safe_gethostname)
libbb/lib.a(safe_poll.o)      less.o (symbol from plugin) (safe_poll)
libbb/lib.a(setup_environment.o)
                              login.o (symbol from plugin) (setup_environment)
libbb/lib.a(simplify_path.o)  mount.o (symbol from plugin) (bb_simplify_path)
libbb/lib.a(single_argv.o)    dirname.o (symbol from plugin) (single_argv)
libbb/lib.a(skip_whitespace.o)
                              interface.o (symbol from plugin) (skip_whitespace)
libbb/lib.a(str_tolower.o)    iplink.o (symbol from plugin) (str_tolower)
libbb/lib.a(sysconf.o)        route.o (symbol from plugin) (bb_clk_tck)
libbb/lib.a(trim.o)           common.o (symbol from plugin) (trim)
libbb/lib.a(u_signal_names.o)
                              kill.o (symbol from plugin) (get_signum)
libbb/lib.a(udp_io.o)         ntpd.o (symbol from plugin) (socket_want_pktinfo)
libbb/lib.a(update_passwd.o)  passwd.o (symbol from plugin) (update_passwd)
libbb/lib.a(wfopen.o)         interface.o (symbol from plugin) (fopen_or_warn)
libbb/lib.a(wfopen_input.o)   strings.o (symbol from plugin) (fopen_or_warn_stdin)
libbb/lib.a(xconnect.o)       ntpd.o (symbol from plugin) (setsockopt_int)
libbb/lib.a(xgetcwd.o)        pwd.o (symbol from plugin) (xrealloc_getcwd_or_warn)
libbb/lib.a(xreadlink.o)      netstat.o (symbol from plugin) (xmalloc_readlink)
libbb/lib.a(xrealloc_vector.o)
                              less.o (symbol from plugin) (xrealloc_vector_helper)
libbb/lib.a(xregcomp.o)       pgrep.o (symbol from plugin) (xregcomp)
libbb/lib.a(bb_qsort.o)       lineedit.o (symbol from plugin) (qsort_string_vector)
libbb/lib.a(perror_nomsg.o)   update_passwd.o (symbol from plugin) (bb_perror_nomsg)
libpwdgrp/lib.a(uidgid_get.o)
                              chown.o (symbol from plugin) (parse_chown_usergroup_or_die)

Discarded input sections

 .data          0x0000000000000000        0x0 /home/notlean/openwrt-uboost/staging_dir/toolchain-aarch64_cortex-a53_gcc-12.3.0_musl/lib/gcc/aarch64-openwrt-linux-musl/12.3.0/../../../../aarch64-openwrt-linux-musl/lib/crt1.o
 .bss           0x0000000000000000        0x0 /home/notlean/openwrt-uboost/staging_dir/toolchain-aarch64_cortex-a53_gcc-12.3.0_musl/lib/gcc/aarch64-openwrt-linux-musl/12.3.0/../../../../aarch64-openwrt-linux-musl/lib/crt1.o
 .note.GNU-stack
                0x0000000000000000        0x0 /home/notlean/openwrt-uboost/staging_dir/toolchain-aarch64_cortex-a53_gcc-12.3.0_musl/lib/gcc/aarch64-openwrt-linux-musl/12.3.0/../../../../aarch64-openwrt-linux-musl/lib/crt1.o
 .text          0x0000000000000000        0x0 /home/notlean/openwrt-uboost/staging_dir/toolchain-aarch64_cortex-a53_gcc-12.3.0_musl/lib/gcc/aarch64-openwrt-linux-musl/12.3.0/../../../../aarch64-openwrt-linux-musl/lib/crti.o
 .data          0x0000000000000000        0x0 /home/notlean/openwrt-uboost/staging_dir/toolchain-aarch64_cortex-a53_gcc-12.3.0_musl/lib/gcc/aarch64-openwrt-linux-musl/12.3.0/../../../../aarch64-openwrt-linux-musl/lib/crti.o
 .bss           0x0000000000000000        0x0 /home/notlean/openwrt-uboost/staging_dir/toolchain-aarch64_cortex-a53_gcc-12.3.0_musl/lib/gcc/aarch64-openwrt-linux-musl/12.3.0/../../../../aarch64-openwrt-linux-musl/lib/crti.o
 .note.GNU-stack
                0x0000000000000000        0x0 /home/notlean/openwrt-uboost/staging_dir/toolchain-aarch64_cortex-a53_gcc-12.3.0_musl/lib/gcc/aarch64-openwrt-linux-musl/12.3.0/../../../../aarch64-openwrt-linux-musl/lib/crti.o
 .data          0x0000000000000000        0x8 /home/notlean/openwrt-uboost/staging_dir/toolchain-aarch64_cortex-a53_gcc-12.3.0_musl/lib/gcc/aarch64-openwrt-linux-musl/12.3.0/crtbegin.o
 .note.GNU-stack
                0x0000000000000000        0x0 /home/notlean/openwrt-uboost/staging_dir/toolchain-aarch64_cortex-a53_gcc-12.3.0_musl/lib/gcc/aarch64-openwrt-linux-musl/12.3.0/crtbegin.o
 .text          0x0000000000000000        0x0 /home/notlean/openwrt-uboost/tmp/cc0dSt9z.ltrans0.ltrans.o
 .data          0x0000000000000000        0x0 /home/notlean/openwrt-uboost/tmp/cc0dSt9z.ltrans0.ltrans.o
 .bss           0x0000000000000000        0x0 /home/notlean/openwrt-uboost/tmp/cc0dSt9z.ltrans0.ltrans.o
 .note.GNU-stack
                0x0000000000000000        0x0 /home/notlean/openwrt-uboost/tmp/cc0dSt9z.ltrans0.ltrans.o
 .text          0x0000000000000000        0x0 /home/notlean/openwrt-uboost/tmp/cc0dSt9z.ltrans1.ltrans.o
 .data          0x0000000000000000        0x0 /home/notlean/openwrt-uboost/tmp/cc0dSt9z.ltrans1.ltrans.o
 .bss           0x0000000000000000        0x0 /home/notlean/openwrt-uboost/tmp/cc0dSt9z.ltrans1.ltrans.o
 .note.GNU-stack
                0x0000000000000000        0x0 /home/notlean/openwrt-uboost/tmp/cc0dSt9z.ltrans1.ltrans.o
 .text          0x0000000000000000        0x0 /home/notlean/openwrt-uboost/tmp/cc0dSt9z.ltrans2.ltrans.o
 .data          0x0000000000000000        0x0 /home/notlean/openwrt-uboost/tmp/cc0dSt9z.ltrans2.ltrans.o
 .bss           0x0000000000000000        0x0 /home/notlean/openwrt-uboost/tmp/cc0dSt9z.ltrans2.ltrans.o
 .note.GNU-stack
                0x0000000000000000        0x0 /home/notlean/openwrt-uboost/tmp/cc0dSt9z.ltrans2.ltrans.o
 .text          0x0000000000000000        0x0 /home/notlean/openwrt-uboost/tmp/cc0dSt9z.ltrans3.ltrans.o
 .data          0x0000000000000000        0x0 /home/notlean/openwrt-uboost/tmp/cc0dSt9z.ltrans3.ltrans.o
 .bss           0x0000000000000000        0x0 /home/notlean/openwrt-uboost/tmp/cc0dSt9z.ltrans3.ltrans.o
 .note.GNU-stack
                0x0000000000000000        0x0 /home/notlean/openwrt-uboost/tmp/cc0dSt9z.ltrans3.ltrans.o
 .text          0x0000000000000000        0x0 /home/notlean/openwrt-uboost/tmp/cc0dSt9z.ltrans4.ltrans.o
 .data          0x0000000000000000        0x0 /home/notlean/openwrt-uboost/tmp/cc0dSt9z.ltrans4.ltrans.o
 .bss           0x0000000000000000        0x0 /home/notlean/openwrt-uboost/tmp/cc0dSt9z.ltrans4.ltrans.o
 .note.GNU-stack
                0x0000000000000000        0x0 /home/notlean/openwrt-uboost/tmp/cc0dSt9z.ltrans4.ltrans.o
 .text          0x0000000000000000        0x0 /home/notlean/openwrt-uboost/tmp/cc0dSt9z.ltrans5.ltrans.o
 .data          0x0000000000000000        0x0 /home/notlean/openwrt-uboost/tmp/cc0dSt9z.ltrans5.ltrans.o
 .bss           0x0000000000000000        0x0 /home/notlean/openwrt-uboost/tmp/cc0dSt9z.ltrans5.ltrans.o
 .note.GNU-stack
                0x0000000000000000        0x0 /home/notlean/openwrt-uboost/tmp/cc0dSt9z.ltrans5.ltrans.o
 .text          0x0000000000000000        0x0 /home/notlean/openwrt-uboost/tmp/cc0dSt9z.ltrans6.ltrans.o
 .data          0x0000000000000000        0x0 /home/notlean/openwrt-uboost/tmp/cc0dSt9z.ltrans6.ltrans.o
 .bss           0x0000000000000000        0x0 /home/notlean/openwrt-uboost/tmp/cc0dSt9z.ltrans6.ltrans.o
 .note.GNU-stack
                0x0000000000000000        0x0 /home/notlean/openwrt-uboost/tmp/cc0dSt9z.ltrans6.ltrans.o
 .text          0x0000000000000000        0x0 /home/notlean/openwrt-uboost/tmp/cc0dSt9z.ltrans7.ltrans.o
 .data          0x0000000000000000        0x0 /home/notlean/openwrt-uboost/tmp/cc0dSt9z.ltrans7.ltrans.o
 .bss           0x0000000000000000        0x0 /home/notlean/openwrt-uboost/tmp/cc0dSt9z.ltrans7.ltrans.o
 .note.GNU-stack
                0x0000000000000000        0x0 /home/notlean/openwrt-uboost/tmp/cc0dSt9z.ltrans7.ltrans.o
 .text          0x0000000000000000        0x0 /home/notlean/openwrt-uboost/staging_dir/toolchain-aarch64_cortex-a53_gcc-12.3.0_musl/lib/gcc/aarch64-openwrt-linux-musl/12.3.0/crtend.o
 .data          0x0000000000000000        0x0 /home/notlean/openwrt-uboost/staging_dir/toolchain-aarch64_cortex-a53_gcc-12.3.0_musl/lib/gcc/aarch64-openwrt-linux-musl/12.3.0/crtend.o
 .bss           0x0000000000000000        0x0 /home/notlean/openwrt-uboost/staging_dir/toolchain-aarch64_cortex-a53_gcc-12.3.0_musl/lib/gcc/aarch64-openwrt-linux-musl/12.3.0/crtend.o
 .note.GNU-stack
                0x0000000000000000        0x0 /home/notlean/openwrt-uboost/staging_dir/toolchain-aarch64_cortex-a53_gcc-12.3.0_musl/lib/gcc/aarch64-openwrt-linux-musl/12.3.0/crtend.o
 .text          0x0000000000000000        0x0 /home/notlean/openwrt-uboost/staging_dir/toolchain-aarch64_cortex-a53_gcc-12.3.0_musl/lib/gcc/aarch64-openwrt-linux-musl/12.3.0/../../../../aarch64-openwrt-linux-musl/lib/crtn.o
 .data          0x0000000000000000        0x0 /home/notlean/openwrt-uboost/staging_dir/toolchain-aarch64_cortex-a53_gcc-12.3.0_musl/lib/gcc/aarch64-openwrt-linux-musl/12.3.0/../../../../aarch64-openwrt-linux-musl/lib/crtn.o
 .bss           0x0000000000000000        0x0 /home/notlean/openwrt-uboost/staging_dir/toolchain-aarch64_cortex-a53_gcc-12.3.0_musl/lib/gcc/aarch64-openwrt-linux-musl/12.3.0/../../../../aarch64-openwrt-linux-musl/lib/crtn.o
 .note.GNU-stack
                0x0000000000000000        0x0 /home/notlean/openwrt-uboost/staging_dir/toolchain-aarch64_cortex-a53_gcc-12.3.0_musl/lib/gcc/aarch64-openwrt-linux-musl/12.3.0/../../../../aarch64-openwrt-linux-musl/lib/crtn.o

Memory Configuration

Name             Origin             Length             Attributes
*default*        0x0000000000000000 0xffffffffffffffff

Linker script and memory map

LOAD /home/notlean/openwrt-uboost/staging_dir/toolchain-aarch64_cortex-a53_gcc-12.3.0_musl/lib/gcc/aarch64-openwrt-linux-musl/12.3.0/../../../../aarch64-openwrt-linux-musl/lib/crt1.o
LOAD /home/notlean/openwrt-uboost/staging_dir/toolchain-aarch64_cortex-a53_gcc-12.3.0_musl/lib/gcc/aarch64-openwrt-linux-musl/12.3.0/../../../../aarch64-openwrt-linux-musl/lib/crti.o
LOAD /home/notlean/openwrt-uboost/staging_dir/toolchain-aarch64_cortex-a53_gcc-12.3.0_musl/lib/gcc/aarch64-openwrt-linux-musl/12.3.0/crtbegin.o
START GROUP
LOAD applets/built-in.o
LOAD /home/notlean/openwrt-uboost/tmp/cc0dSt9z.ltrans0.ltrans.o
LOAD /home/notlean/openwrt-uboost/tmp/cc0dSt9z.ltrans1.ltrans.o
LOAD /home/notlean/openwrt-uboost/tmp/cc0dSt9z.ltrans2.ltrans.o
LOAD /home/notlean/openwrt-uboost/tmp/cc0dSt9z.ltrans3.ltrans.o
LOAD /home/notlean/openwrt-uboost/tmp/cc0dSt9z.ltrans4.ltrans.o
LOAD /home/notlean/openwrt-uboost/tmp/cc0dSt9z.ltrans5.ltrans.o
LOAD /home/notlean/openwrt-uboost/tmp/cc0dSt9z.ltrans6.ltrans.o
LOAD /home/notlean/openwrt-uboost/tmp/cc0dSt9z.ltrans7.ltrans.o
LOAD archival/lib.a
LOAD archival/libarchive/lib.a
LOAD console-tools/lib.a
LOAD coreutils/lib.a
LOAD coreutils/libcoreutils/lib.a
LOAD debianutils/lib.a
LOAD klibc-utils/lib.a
LOAD e2fsprogs/lib.a
LOAD editors/lib.a
LOAD findutils/lib.a
LOAD init/lib.a
LOAD libbb/lib.a
LOAD libpwdgrp/lib.a
LOAD loginutils/lib.a
LOAD mailutils/lib.a
LOAD miscutils/lib.a
LOAD modutils/lib.a
LOAD networking/lib.a
LOAD networking/libiproute/lib.a
LOAD networking/udhcp/lib.a
LOAD printutils/lib.a
LOAD procps/lib.a
LOAD runit/lib.a
LOAD selinux/lib.a
LOAD shell/lib.a
LOAD sysklogd/lib.a
LOAD util-linux/lib.a
LOAD util-linux/volume_id/lib.a
LOAD archival/built-in.o
LOAD archival/libarchive/built-in.o
LOAD console-tools/built-in.o
LOAD coreutils/built-in.o
LOAD coreutils/libcoreutils/built-in.o
LOAD debianutils/built-in.o
LOAD klibc-utils/built-in.o
LOAD e2fsprogs/built-in.o
LOAD editors/built-in.o
LOAD findutils/built-in.o
LOAD init/built-in.o
LOAD libbb/built-in.o
LOAD libpwdgrp/built-in.o
LOAD loginutils/built-in.o
LOAD mailutils/built-in.o
LOAD miscutils/built-in.o
LOAD modutils/built-in.o
LOAD networking/built-in.o
LOAD networking/libiproute/built-in.o
LOAD networking/udhcp/built-in.o
LOAD printutils/built-in.o
LOAD procps/built-in.o
LOAD runit/built-in.o
LOAD selinux/built-in.o
LOAD shell/built-in.o
LOAD sysklogd/built-in.o
LOAD util-linux/built-in.o
LOAD util-linux/volume_id/built-in.o
END GROUP
LOAD /home/notlean/openwrt-uboost/staging_dir/toolchain-aarch64_cortex-a53_gcc-12.3.0_musl/lib/libssp_nonshared.a
LOAD /home/notlean/openwrt-uboost/staging_dir/toolchain-aarch64_cortex-a53_gcc-12.3.0_musl/lib/libgcc_s.so
START GROUP
LOAD /home/notlean/openwrt-uboost/staging_dir/toolchain-aarch64_cortex-a53_gcc-12.3.0_musl/lib/libgcc_s.so.1
LOAD /home/notlean/openwrt-uboost/staging_dir/toolchain-aarch64_cortex-a53_gcc-12.3.0_musl/lib/gcc/aarch64-openwrt-linux-musl/12.3.0/libgcc.a
END GROUP
LOAD /home/notlean/openwrt-uboost/staging_dir/toolchain-aarch64_cortex-a53_gcc-12.3.0_musl/lib/libc.so
LOAD /home/notlean/openwrt-uboost/staging_dir/toolchain-aarch64_cortex-a53_gcc-12.3.0_musl/lib/libgcc_s.so
START GROUP
LOAD /home/notlean/openwrt-uboost/staging_dir/toolchain-aarch64_cortex-a53_gcc-12.3.0_musl/lib/libgcc_s.so.1
LOAD /home/notlean/openwrt-uboost/staging_dir/toolchain-aarch64_cortex-a53_gcc-12.3.0_musl/lib/gcc/aarch64-openwrt-linux-musl/12.3.0/libgcc.a
END GROUP
LOAD /home/notlean/openwrt-uboost/staging_dir/toolchain-aarch64_cortex-a53_gcc-12.3.0_musl/lib/gcc/aarch64-openwrt-linux-musl/12.3.0/crtend.o
LOAD /home/notlean/openwrt-uboost/staging_dir/toolchain-aarch64_cortex-a53_gcc-12.3.0_musl/lib/gcc/aarch64-openwrt-linux-musl/12.3.0/../../../../aarch64-openwrt-linux-musl/lib/crtn.o
                [!provide]                        PROVIDE (__executable_start = SEGMENT_START ("text-segment", 0x400000))
                0x0000000000400200                . = (SEGMENT_START ("text-segment", 0x400000) + SIZEOF_HEADERS)

.interp         0x0000000000400200       0x1a
 *(SORT_BY_ALIGNMENT(.interp))
 .interp        0x0000000000400200       0x1a /home/notlean/openwrt-uboost/staging_dir/toolchain-aarch64_cortex-a53_gcc-12.3.0_musl/lib/gcc/aarch64-openwrt-linux-musl/12.3.0/../../../../aarch64-openwrt-linux-musl/lib/crt1.o

.note.gnu.build-id
 *(SORT_BY_ALIGNMENT(.note.gnu.build-id))

.hash           0x0000000000400220      0x8fc
 *(SORT_BY_ALIGNMENT(.hash))
 .hash          0x0000000000400220      0x8fc /home/notlean/openwrt-uboost/staging_dir/toolchain-aarch64_cortex-a53_gcc-12.3.0_musl/lib/gcc/aarch64-openwrt-linux-musl/12.3.0/../../../../aarch64-openwrt-linux-musl/lib/crt1.o

.gnu.hash       0x0000000000400b20       0xa8
 *(SORT_BY_ALIGNMENT(.gnu.hash))
 .gnu.hash      0x0000000000400b20       0xa8 /home/notlean/openwrt-uboost/staging_dir/toolchain-aarch64_cortex-a53_gcc-12.3.0_musl/lib/gcc/aarch64-openwrt-linux-musl/12.3.0/../../../../aarch64-openwrt-linux-musl/lib/crt1.o

.dynsym         0x0000000000400bc8     0x1d10
 *(SORT_BY_ALIGNMENT(.dynsym))
 .dynsym        0x0000000000400bc8     0x1d10 /home/notlean/openwrt-uboost/staging_dir/toolchain-aarch64_cortex-a53_gcc-12.3.0_musl/lib/gcc/aarch64-openwrt-linux-musl/12.3.0/../../../../aarch64-openwrt-linux-musl/lib/crt1.o

.dynstr         0x00000000004028d8      0x9aa
 *(SORT_BY_ALIGNMENT(.dynstr))
 .dynstr        0x00000000004028d8      0x9aa /home/notlean/openwrt-uboost/staging_dir/toolchain-aarch64_cortex-a53_gcc-12.3.0_musl/lib/gcc/aarch64-openwrt-linux-musl/12.3.0/../../../../aarch64-openwrt-linux-musl/lib/crt1.o

.gnu.version    0x0000000000403282      0x26c
 *(SORT_BY_ALIGNMENT(.gnu.version))
 .gnu.version   0x0000000000403282      0x26c /home/notlean/openwrt-uboost/staging_dir/toolchain-aarch64_cortex-a53_gcc-12.3.0_musl/lib/gcc/aarch64-openwrt-linux-musl/12.3.0/../../../../aarch64-openwrt-linux-musl/lib/crt1.o

.gnu.version_d  0x00000000004034f0        0x0
 *(SORT_BY_ALIGNMENT(.gnu.version_d))
 .gnu.version_d
                0x00000000004034f0        0x0 /home/notlean/openwrt-uboost/staging_dir/toolchain-aarch64_cortex-a53_gcc-12.3.0_musl/lib/gcc/aarch64-openwrt-linux-musl/12.3.0/../../../../aarch64-openwrt-linux-musl/lib/crt1.o

.gnu.version_r  0x00000000004034f0       0x20
 *(SORT_BY_ALIGNMENT(.gnu.version_r))
 .gnu.version_r
                0x00000000004034f0       0x20 /home/notlean/openwrt-uboost/staging_dir/toolchain-aarch64_cortex-a53_gcc-12.3.0_musl/lib/gcc/aarch64-openwrt-linux-musl/12.3.0/../../../../aarch64-openwrt-linux-musl/lib/crt1.o

.rela.dyn       0x0000000000403510      0x108
 *(SORT_BY_ALIGNMENT(.rela.init))
 *(SORT_BY_ALIGNMENT(.rela.text) SORT_BY_ALIGNMENT(.rela.text.*) SORT_BY_ALIGNMENT(.rela.gnu.linkonce.t.*))
 .rela.text.lock_main
                0x0000000000403510        0x0 /home/notlean/openwrt-uboost/staging_dir/toolchain-aarch64_cortex-a53_gcc-12.3.0_musl/lib/gcc/aarch64-openwrt-linux-musl/12.3.0/../../../../aarch64-openwrt-linux-musl/lib/crt1.o
 .rela.text.netmsg_main
                0x0000000000403510        0x0 /home/notlean/openwrt-uboost/staging_dir/toolchain-aarch64_cortex-a53_gcc-12.3.0_musl/lib/gcc/aarch64-openwrt-linux-musl/12.3.0/../../../../aarch64-openwrt-linux-musl/lib/crt1.o
 .rela.text.build_ipv6_addr
                0x0000000000403510        0x0 /home/notlean/openwrt-uboost/staging_dir/toolchain-aarch64_cortex-a53_gcc-12.3.0_musl/lib/gcc/aarch64-openwrt-linux-musl/12.3.0/../../../../aarch64-openwrt-linux-musl/lib/crt1.o
 .rela.text.unix_do_one
                0x0000000000403510        0x0 /home/notlean/openwrt-uboost/staging_dir/toolchain-aarch64_cortex-a53_gcc-12.3.0_musl/lib/gcc/aarch64-openwrt-linux-musl/12.3.0/../../../../aarch64-openwrt-linux-musl/lib/crt1.o
 .rela.text.run_nofork_applet
                0x0000000000403510        0x0 /home/notlean/openwrt-uboost/staging_dir/toolchain-aarch64_cortex-a53_gcc-12.3.0_musl/lib/gcc/aarch64-openwrt-linux-musl/12.3.0/../../../../aarch64-openwrt-linux-musl/lib/crt1.o
 .rela.text.spawn_and_wait
                0x0000000000403510        0x0 /home/notlean/openwrt-uboost/staging_dir/toolchain-aarch64_cortex-a53_gcc-12.3.0_musl/lib/gcc/aarch64-openwrt-linux-musl/12.3.0/../../../../aarch64-openwrt-linux-musl/lib/crt1.o
 .rela.text.buffer_print
                0x0000000000403510        0x0 /home/notlean/openwrt-uboost/staging_dir/toolchain-aarch64_cortex-a53_gcc-12.3.0_musl/lib/gcc/aarch64-openwrt-linux-musl/12.3.0/../../../../aarch64-openwrt-linux-musl/lib/crt1.o
 .rela.text.ParseField
                0x0000000000403510        0x0 /home/notlean/openwrt-uboost/staging_dir/toolchain-aarch64_cortex-a53_gcc-12.3.0_musl/lib/gcc/aarch64-openwrt-linux-musl/12.3.0/../../../../aarch64-openwrt-linux-musl/lib/crt1.o
 .rela.text.do_if_print
                0x0000000000403510        0x0 /home/notlean/openwrt-uboost/staging_dir/toolchain-aarch64_cortex-a53_gcc-12.3.0_musl/lib/gcc/aarch64-openwrt-linux-musl/12.3.0/../../../../aarch64-openwrt-linux-musl/lib/crt1.o
 .rela.text.tcp_do_one
                0x0000000000403510        0x0 /home/notlean/openwrt-uboost/staging_dir/toolchain-aarch64_cortex-a53_gcc-12.3.0_musl/lib/gcc/aarch64-openwrt-linux-musl/12.3.0/../../../../aarch64-openwrt-linux-musl/lib/crt1.o
 .rela.text.udp_do_one
                0x0000000000403510        0x0 /home/notlean/openwrt-uboost/staging_dir/toolchain-aarch64_cortex-a53_gcc-12.3.0_musl/lib/gcc/aarch64-openwrt-linux-musl/12.3.0/../../../../aarch64-openwrt-linux-musl/lib/crt1.o
 .rela.text.raw_do_one
                0x0000000000403510        0x0 /home/notlean/openwrt-uboost/staging_dir/toolchain-aarch64_cortex-a53_gcc-12.3.0_musl/lib/gcc/aarch64-openwrt-linux-musl/12.3.0/../../../../aarch64-openwrt-linux-musl/lib/crt1.o
 .rela.text.send_queries
                0x0000000000403510        0x0 /home/notlean/openwrt-uboost/staging_dir/toolchain-aarch64_cortex-a53_gcc-12.3.0_musl/lib/gcc/aarch64-openwrt-linux-musl/12.3.0/../../../../aarch64-openwrt-linux-musl/lib/crt1.o
 .rela.text.nslookup_main
                0x0000000000403510        0x0 /home/notlean/openwrt-uboost/staging_dir/toolchain-aarch64_cortex-a53_gcc-12.3.0_musl/lib/gcc/aarch64-openwrt-linux-musl/12.3.0/../../../../aarch64-openwrt-linux-musl/lib/crt1.o
 .rela.text.vgetopt32
                0x0000000000403510        0x0 /home/notlean/openwrt-uboost/staging_dir/toolchain-aarch64_cortex-a53_gcc-12.3.0_musl/lib/gcc/aarch64-openwrt-linux-musl/12.3.0/../../../../aarch64-openwrt-linux-musl/lib/crt1.o
 .rela.text.passwd_main
                0x0000000000403510        0x0 /home/notlean/openwrt-uboost/staging_dir/toolchain-aarch64_cortex-a53_gcc-12.3.0_musl/lib/gcc/aarch64-openwrt-linux-musl/12.3.0/../../../../aarch64-openwrt-linux-musl/lib/crt1.o
 .rela.text.crontab_main
                0x0000000000403510        0x0 /home/notlean/openwrt-uboost/staging_dir/toolchain-aarch64_cortex-a53_gcc-12.3.0_musl/lib/gcc/aarch64-openwrt-linux-musl/12.3.0/../../../../aarch64-openwrt-linux-musl/lib/crt1.o
 .rela.text.strings_main
                0x0000000000403510        0x0 /home/notlean/openwrt-uboost/staging_dir/toolchain-aarch64_cortex-a53_gcc-12.3.0_musl/lib/gcc/aarch64-openwrt-linux-musl/12.3.0/../../../../aarch64-openwrt-linux-musl/lib/crt1.o
 .rela.text.time_main
                0x0000000000403510        0x0 /home/notlean/openwrt-uboost/staging_dir/toolchain-aarch64_cortex-a53_gcc-12.3.0_musl/lib/gcc/aarch64-openwrt-linux-musl/12.3.0/../../../../aarch64-openwrt-linux-musl/lib/crt1.o
 .rela.text.login_main
                0x0000000000403510        0x0 /home/notlean/openwrt-uboost/staging_dir/toolchain-aarch64_cortex-a53_gcc-12.3.0_musl/lib/gcc/aarch64-openwrt-linux-musl/12.3.0/../../../../aarch64-openwrt-linux-musl/lib/crt1.o
 .rela.text.less_main
                0x0000000000403510        0x0 /home/notlean/openwrt-uboost/staging_dir/toolchain-aarch64_cortex-a53_gcc-12.3.0_musl/lib/gcc/aarch64-openwrt-linux-musl/12.3.0/../../../../aarch64-openwrt-linux-musl/lib/crt1.o
 .rela.text.ifconfig_main
                0x0000000000403510        0x0 /home/notlean/openwrt-uboost/staging_dir/toolchain-aarch64_cortex-a53_gcc-12.3.0_musl/lib/gcc/aarch64-openwrt-linux-musl/12.3.0/../../../../aarch64-openwrt-linux-musl/lib/crt1.o
 .rela.text.resolve_peer_hostname.lto_priv.0
                0x0000000000403510        0x0 /home/notlean/openwrt-uboost/staging_dir/toolchain-aarch64_cortex-a53_gcc-12.3.0_musl/lib/gcc/aarch64-openwrt-linux-musl/12.3.0/../../../../aarch64-openwrt-linux-musl/lib/crt1.o
 .rela.text.select_and_cluster.lto_priv.0
                0x0000000000403510        0x0 /home/notlean/openwrt-uboost/staging_dir/toolchain-aarch64_cortex-a53_gcc-12.3.0_musl/lib/gcc/aarch64-openwrt-linux-musl/12.3.0/../../../../aarch64-openwrt-linux-musl/lib/crt1.o
 .rela.text.recv_and_process_peer_pkt
                0x0000000000403510        0x0 /home/notlean/openwrt-uboost/staging_dir/toolchain-aarch64_cortex-a53_gcc-12.3.0_musl/lib/gcc/aarch64-openwrt-linux-musl/12.3.0/../../../../aarch64-openwrt-linux-musl/lib/crt1.o
 .rela.text.recv_and_process_client_pkt
                0x0000000000403510        0x0 /home/notlean/openwrt-uboost/staging_dir/toolchain-aarch64_cortex-a53_gcc-12.3.0_musl/lib/gcc/aarch64-openwrt-linux-musl/12.3.0/../../../../aarch64-openwrt-linux-musl/lib/crt1.o
 .rela.text.INET6_setroute
                0x0000000000403510        0x0 /home/notlean/openwrt-uboost/staging_dir/toolchain-aarch64_cortex-a53_gcc-12.3.0_musl/lib/gcc/aarch64-openwrt-linux-musl/12.3.0/../../../../aarch64-openwrt-linux-musl/lib/crt1.o
 .rela.text.INET6_displayroutes
                0x0000000000403510        0x0 /home/notlean/openwrt-uboost/staging_dir/toolchain-aarch64_cortex-a53_gcc-12.3.0_musl/lib/gcc/aarch64-openwrt-linux-musl/12.3.0/../../../../aarch64-openwrt-linux-musl/lib/crt1.o
 .rela.text.traceroute_init
                0x0000000000403510        0x0 /home/notlean/openwrt-uboost/staging_dir/toolchain-aarch64_cortex-a53_gcc-12.3.0_musl/lib/gcc/aarch64-openwrt-linux-musl/12.3.0/../../../../aarch64-openwrt-linux-musl/lib/crt1.o
 .rela.text.print_route
                0x0000000000403510        0x0 /home/notlean/openwrt-uboost/staging_dir/toolchain-aarch64_cortex-a53_gcc-12.3.0_musl/lib/gcc/aarch64-openwrt-linux-musl/12.3.0/../../../../aarch64-openwrt-linux-musl/lib/crt1.o
 .rela.text.bb_displayroutes
                0x0000000000403510        0x0 /home/notlean/openwrt-uboost/staging_dir/toolchain-aarch64_cortex-a53_gcc-12.3.0_musl/lib/gcc/aarch64-openwrt-linux-musl/12.3.0/../../../../aarch64-openwrt-linux-musl/lib/crt1.o
 .rela.text.route_main
                0x0000000000403510        0x0 /home/notlean/openwrt-uboost/staging_dir/toolchain-aarch64_cortex-a53_gcc-12.3.0_musl/lib/gcc/aarch64-openwrt-linux-musl/12.3.0/../../../../aarch64-openwrt-linux-musl/lib/crt1.o
 .rela.text.ipaddr_modify
                0x0000000000403510        0x0 /home/notlean/openwrt-uboost/staging_dir/toolchain-aarch64_cortex-a53_gcc-12.3.0_musl/lib/gcc/aarch64-openwrt-linux-musl/12.3.0/../../../../aarch64-openwrt-linux-musl/lib/crt1.o
 .rela.text.do_add_or_delete
                0x0000000000403510        0x0 /home/notlean/openwrt-uboost/staging_dir/toolchain-aarch64_cortex-a53_gcc-12.3.0_musl/lib/gcc/aarch64-openwrt-linux-musl/12.3.0/../../../../aarch64-openwrt-linux-musl/lib/crt1.o
 .rela.text.do_iplink
                0x0000000000403510        0x0 /home/notlean/openwrt-uboost/staging_dir/toolchain-aarch64_cortex-a53_gcc-12.3.0_musl/lib/gcc/aarch64-openwrt-linux-musl/12.3.0/../../../../aarch64-openwrt-linux-musl/lib/crt1.o
 .rela.text.d4_recv_raw_packet
                0x0000000000403510        0x0 /home/notlean/openwrt-uboost/staging_dir/toolchain-aarch64_cortex-a53_gcc-12.3.0_musl/lib/gcc/aarch64-openwrt-linux-musl/12.3.0/../../../../aarch64-openwrt-linux-musl/lib/crt1.o
 .rela.text.change_listen_mode
                0x0000000000403510        0x0 /home/notlean/openwrt-uboost/staging_dir/toolchain-aarch64_cortex-a53_gcc-12.3.0_musl/lib/gcc/aarch64-openwrt-linux-musl/12.3.0/../../../../aarch64-openwrt-linux-musl/lib/crt1.o
 .rela.text.pgrep_main
                0x0000000000403510        0x0 /home/notlean/openwrt-uboost/staging_dir/toolchain-aarch64_cortex-a53_gcc-12.3.0_musl/lib/gcc/aarch64-openwrt-linux-musl/12.3.0/../../../../aarch64-openwrt-linux-musl/lib/crt1.o
 .rela.text.pidof_main
                0x0000000000403510        0x0 /home/notlean/openwrt-uboost/staging_dir/toolchain-aarch64_cortex-a53_gcc-12.3.0_musl/lib/gcc/aarch64-openwrt-linux-musl/12.3.0/../../../../aarch64-openwrt-linux-musl/lib/crt1.o
 .rela.text.ps_main
                0x0000000000403510        0x0 /home/notlean/openwrt-uboost/staging_dir/toolchain-aarch64_cortex-a53_gcc-12.3.0_musl/lib/gcc/aarch64-openwrt-linux-musl/12.3.0/../../../../aarch64-openwrt-linux-musl/lib/crt1.o
 .rela.text.sysctl_act_on_setting
                0x0000000000403510        0x0 /home/notlean/openwrt-uboost/staging_dir/toolchain-aarch64_cortex-a53_gcc-12.3.0_musl/lib/gcc/aarch64-openwrt-linux-musl/12.3.0/../../../../aarch64-openwrt-linux-musl/lib/crt1.o
 .rela.text.sysctl_main
                0x0000000000403510        0x0 /home/notlean/openwrt-uboost/staging_dir/toolchain-aarch64_cortex-a53_gcc-12.3.0_musl/lib/gcc/aarch64-openwrt-linux-musl/12.3.0/../../../../aarch64-openwrt-linux-musl/lib/crt1.o
 .rela.text.bcast_or_ucast
                0x0000000000403510        0x0 /home/notlean/openwrt-uboost/staging_dir/toolchain-aarch64_cortex-a53_gcc-12.3.0_musl/lib/gcc/aarch64-openwrt-linux-musl/12.3.0/../../../../aarch64-openwrt-linux-musl/lib/crt1.o
 .rela.text.send_renew
                0x0000000000403510        0x0 /home/notlean/openwrt-uboost/staging_dir/toolchain-aarch64_cortex-a53_gcc-12.3.0_musl/lib/gcc/aarch64-openwrt-linux-musl/12.3.0/../../../../aarch64-openwrt-linux-musl/lib/crt1.o
 .rela.text.perform_release
                0x0000000000403510        0x0 /home/notlean/openwrt-uboost/staging_dir/toolchain-aarch64_cortex-a53_gcc-12.3.0_musl/lib/gcc/aarch64-openwrt-linux-musl/12.3.0/../../../../aarch64-openwrt-linux-musl/lib/crt1.o
 .rela.text.udhcpc_main
                0x0000000000403510        0x0 /home/notlean/openwrt-uboost/staging_dir/toolchain-aarch64_cortex-a53_gcc-12.3.0_musl/lib/gcc/aarch64-openwrt-linux-musl/12.3.0/../../../../aarch64-openwrt-linux-musl/lib/crt1.o
 .rela.text.out1str
                0x0000000000403510        0x0 /home/notlean/openwrt-uboost/staging_dir/toolchain-aarch64_cortex-a53_gcc-12.3.0_musl/lib/gcc/aarch64-openwrt-linux-musl/12.3.0/../../../../aarch64-openwrt-linux-musl/lib/crt1.o
 .rela.text.showjob
                0x0000000000403510        0x0 /home/notlean/openwrt-uboost/staging_dir/toolchain-aarch64_cortex-a53_gcc-12.3.0_musl/lib/gcc/aarch64-openwrt-linux-musl/12.3.0/../../../../aarch64-openwrt-linux-musl/lib/crt1.o
 .rela.text.out2str.lto_priv.0
                0x0000000000403510        0x0 /home/notlean/openwrt-uboost/staging_dir/toolchain-aarch64_cortex-a53_gcc-12.3.0_musl/lib/gcc/aarch64-openwrt-linux-musl/12.3.0/../../../../aarch64-openwrt-linux-musl/lib/crt1.o
 .rela.text.ash_vmsg.lto_priv.0
                0x0000000000403510        0x0 /home/notlean/openwrt-uboost/staging_dir/toolchain-aarch64_cortex-a53_gcc-12.3.0_musl/lib/gcc/aarch64-openwrt-linux-musl/12.3.0/../../../../aarch64-openwrt-linux-musl/lib/crt1.o
 .rela.text.getjob
                0x0000000000403510        0x0 /home/notlean/openwrt-uboost/staging_dir/toolchain-aarch64_cortex-a53_gcc-12.3.0_musl/lib/gcc/aarch64-openwrt-linux-musl/12.3.0/../../../../aarch64-openwrt-linux-musl/lib/crt1.o
 .rela.text.killcmd.lto_priv.0
                0x0000000000403510        0x0 /home/notlean/openwrt-uboost/staging_dir/toolchain-aarch64_cortex-a53_gcc-12.3.0_musl/lib/gcc/aarch64-openwrt-linux-musl/12.3.0/../../../../aarch64-openwrt-linux-musl/lib/crt1.o
 .rela.text.aliascmd.lto_priv.0
                0x0000000000403510        0x0 /home/notlean/openwrt-uboost/staging_dir/toolchain-aarch64_cortex-a53_gcc-12.3.0_musl/lib/gcc/aarch64-openwrt-linux-musl/12.3.0/../../../../aarch64-openwrt-linux-musl/lib/crt1.o
 .rela.text.unaliascmd.lto_priv.0
                0x0000000000403510        0x0 /home/notlean/openwrt-uboost/staging_dir/toolchain-aarch64_cortex-a53_gcc-12.3.0_musl/lib/gcc/aarch64-openwrt-linux-musl/12.3.0/../../../../aarch64-openwrt-linux-musl/lib/crt1.o
 .rela.text.fg_bgcmd.lto_priv.0
                0x0000000000403510        0x0 /home/notlean/openwrt-uboost/staging_dir/toolchain-aarch64_cortex-a53_gcc-12.3.0_musl/lib/gcc/aarch64-openwrt-linux-musl/12.3.0/../../../../aarch64-openwrt-linux-musl/lib/crt1.o
 .rela.text.__pgetc
                0x0000000000403510        0x0 /home/notlean/openwrt-uboost/staging_dir/toolchain-aarch64_cortex-a53_gcc-12.3.0_musl/lib/gcc/aarch64-openwrt-linux-musl/12.3.0/../../../../aarch64-openwrt-linux-musl/lib/crt1.o
 .rela.text.getoptscmd
                0x0000000000403510        0x0 /home/notlean/openwrt-uboost/staging_dir/toolchain-aarch64_cortex-a53_gcc-12.3.0_musl/lib/gcc/aarch64-openwrt-linux-musl/12.3.0/../../../../aarch64-openwrt-linux-musl/lib/crt1.o
 .rela.text.readtoken1
                0x0000000000403510        0x0 /home/notlean/openwrt-uboost/staging_dir/toolchain-aarch64_cortex-a53_gcc-12.3.0_musl/lib/gcc/aarch64-openwrt-linux-musl/12.3.0/../../../../aarch64-openwrt-linux-musl/lib/crt1.o
 .rela.text.cmdloop
                0x0000000000403510        0x0 /home/notlean/openwrt-uboost/staging_dir/toolchain-aarch64_cortex-a53_gcc-12.3.0_musl/lib/gcc/aarch64-openwrt-linux-musl/12.3.0/../../../../aarch64-openwrt-linux-musl/lib/crt1.o
 .rela.text.readcmd
                0x0000000000403510        0x0 /home/notlean/openwrt-uboost/staging_dir/toolchain-aarch64_cortex-a53_gcc-12.3.0_musl/lib/gcc/aarch64-openwrt-linux-musl/12.3.0/../../../../aarch64-openwrt-linux-musl/lib/crt1.o
 .rela.text.ulimitcmd
                0x0000000000403510        0x0 /home/notlean/openwrt-uboost/staging_dir/toolchain-aarch64_cortex-a53_gcc-12.3.0_musl/lib/gcc/aarch64-openwrt-linux-musl/12.3.0/../../../../aarch64-openwrt-linux-musl/lib/crt1.o
 .rela.text.init
                0x0000000000403510        0x0 /home/notlean/openwrt-uboost/staging_dir/toolchain-aarch64_cortex-a53_gcc-12.3.0_musl/lib/gcc/aarch64-openwrt-linux-musl/12.3.0/../../../../aarch64-openwrt-linux-musl/lib/crt1.o
 .rela.text.logger_main
                0x0000000000403510        0x0 /home/notlean/openwrt-uboost/staging_dir/toolchain-aarch64_cortex-a53_gcc-12.3.0_musl/lib/gcc/aarch64-openwrt-linux-musl/12.3.0/../../../../aarch64-openwrt-linux-musl/lib/crt1.o
 .rela.text.flock_main
                0x0000000000403510        0x0 /home/notlean/openwrt-uboost/staging_dir/toolchain-aarch64_cortex-a53_gcc-12.3.0_musl/lib/gcc/aarch64-openwrt-linux-musl/12.3.0/../../../../aarch64-openwrt-linux-musl/lib/crt1.o
 .rela.text.hexdump_main
                0x0000000000403510        0x0 /home/notlean/openwrt-uboost/staging_dir/toolchain-aarch64_cortex-a53_gcc-12.3.0_musl/lib/gcc/aarch64-openwrt-linux-musl/12.3.0/../../../../aarch64-openwrt-linux-musl/lib/crt1.o
 .rela.text.mkswap_main
                0x0000000000403510        0x0 /home/notlean/openwrt-uboost/staging_dir/toolchain-aarch64_cortex-a53_gcc-12.3.0_musl/lib/gcc/aarch64-openwrt-linux-musl/12.3.0/../../../../aarch64-openwrt-linux-musl/lib/crt1.o
 .rela.text.singlemount
                0x0000000000403510        0x0 /home/notlean/openwrt-uboost/staging_dir/toolchain-aarch64_cortex-a53_gcc-12.3.0_musl/lib/gcc/aarch64-openwrt-linux-musl/12.3.0/../../../../aarch64-openwrt-linux-musl/lib/crt1.o
 .rela.text.mount_main
                0x0000000000403510        0x0 /home/notlean/openwrt-uboost/staging_dir/toolchain-aarch64_cortex-a53_gcc-12.3.0_musl/lib/gcc/aarch64-openwrt-linux-musl/12.3.0/../../../../aarch64-openwrt-linux-musl/lib/crt1.o
 .rela.text.swap_on_off_main
                0x0000000000403510        0x0 /home/notlean/openwrt-uboost/staging_dir/toolchain-aarch64_cortex-a53_gcc-12.3.0_musl/lib/gcc/aarch64-openwrt-linux-musl/12.3.0/../../../../aarch64-openwrt-linux-musl/lib/crt1.o
 .rela.text.evalbltin
                0x0000000000403510        0x0 /home/notlean/openwrt-uboost/staging_dir/toolchain-aarch64_cortex-a53_gcc-12.3.0_musl/lib/gcc/aarch64-openwrt-linux-musl/12.3.0/../../../../aarch64-openwrt-linux-musl/lib/crt1.o
 .rela.text.ash_main
                0x0000000000403510        0x0 /home/notlean/openwrt-uboost/staging_dir/toolchain-aarch64_cortex-a53_gcc-12.3.0_musl/lib/gcc/aarch64-openwrt-linux-musl/12.3.0/../../../../aarch64-openwrt-linux-musl/lib/crt1.o
 .rela.text.evaluate_string.lto_priv.0
                0x0000000000403510        0x0 /home/notlean/openwrt-uboost/staging_dir/toolchain-aarch64_cortex-a53_gcc-12.3.0_musl/lib/gcc/aarch64-openwrt-linux-musl/12.3.0/../../../../aarch64-openwrt-linux-musl/lib/crt1.o
 .rela.text.switch_root_main
                0x0000000000403510        0x0 /home/notlean/openwrt-uboost/staging_dir/toolchain-aarch64_cortex-a53_gcc-12.3.0_musl/lib/gcc/aarch64-openwrt-linux-musl/12.3.0/../../../../aarch64-openwrt-linux-musl/lib/crt1.o
 .rela.text.taskset_main
                0x0000000000403510        0x0 /home/notlean/openwrt-uboost/staging_dir/toolchain-aarch64_cortex-a53_gcc-12.3.0_musl/lib/gcc/aarch64-openwrt-linux-musl/12.3.0/../../../../aarch64-openwrt-linux-musl/lib/crt1.o
 .rela.text.umount_main
                0x0000000000403510        0x0 /home/notlean/openwrt-uboost/staging_dir/toolchain-aarch64_cortex-a53_gcc-12.3.0_musl/lib/gcc/aarch64-openwrt-linux-musl/12.3.0/../../../../aarch64-openwrt-linux-musl/lib/crt1.o
 .rela.text.dd_output_status
                0x0000000000403510        0x0 /home/notlean/openwrt-uboost/staging_dir/toolchain-aarch64_cortex-a53_gcc-12.3.0_musl/lib/gcc/aarch64-openwrt-linux-musl/12.3.0/../../../../aarch64-openwrt-linux-musl/lib/crt1.o
 .rela.text.writeTarHeader
                0x0000000000403510        0x0 /home/notlean/openwrt-uboost/staging_dir/toolchain-aarch64_cortex-a53_gcc-12.3.0_musl/lib/gcc/aarch64-openwrt-linux-musl/12.3.0/../../../../aarch64-openwrt-linux-musl/lib/crt1.o
 .rela.text.chmod_main
                0x0000000000403510        0x0 /home/notlean/openwrt-uboost/staging_dir/toolchain-aarch64_cortex-a53_gcc-12.3.0_musl/lib/gcc/aarch64-openwrt-linux-musl/12.3.0/../../../../aarch64-openwrt-linux-musl/lib/crt1.o
 .rela.text.unpack_gz_stream
                0x0000000000403510        0x0 /home/notlean/openwrt-uboost/staging_dir/toolchain-aarch64_cortex-a53_gcc-12.3.0_musl/lib/gcc/aarch64-openwrt-linux-musl/12.3.0/../../../../aarch64-openwrt-linux-musl/lib/crt1.o
 .rela.text.fork_transformer
                0x0000000000403510        0x0 /home/notlean/openwrt-uboost/staging_dir/toolchain-aarch64_cortex-a53_gcc-12.3.0_musl/lib/gcc/aarch64-openwrt-linux-musl/12.3.0/../../../../aarch64-openwrt-linux-musl/lib/crt1.o
 .rela.text.bbunpack
                0x0000000000403510        0x0 /home/notlean/openwrt-uboost/staging_dir/toolchain-aarch64_cortex-a53_gcc-12.3.0_musl/lib/gcc/aarch64-openwrt-linux-musl/12.3.0/../../../../aarch64-openwrt-linux-musl/lib/crt1.o
 .rela.text.gunzip_main
                0x0000000000403510        0x0 /home/notlean/openwrt-uboost/staging_dir/toolchain-aarch64_cortex-a53_gcc-12.3.0_musl/lib/gcc/aarch64-openwrt-linux-musl/12.3.0/../../../../aarch64-openwrt-linux-musl/lib/crt1.o
 .rela.text.gzip_main
                0x0000000000403510        0x0 /home/notlean/openwrt-uboost/staging_dir/toolchain-aarch64_cortex-a53_gcc-12.3.0_musl/lib/gcc/aarch64-openwrt-linux-musl/12.3.0/../../../../aarch64-openwrt-linux-musl/lib/crt1.o
 .rela.text.tar_main
                0x0000000000403510        0x0 /home/notlean/openwrt-uboost/staging_dir/toolchain-aarch64_cortex-a53_gcc-12.3.0_musl/lib/gcc/aarch64-openwrt-linux-musl/12.3.0/../../../../aarch64-openwrt-linux-musl/lib/crt1.o
 .rela.text.resize_main
                0x0000000000403510        0x0 /home/notlean/openwrt-uboost/staging_dir/toolchain-aarch64_cortex-a53_gcc-12.3.0_musl/lib/gcc/aarch64-openwrt-linux-musl/12.3.0/../../../../aarch64-openwrt-linux-musl/lib/crt1.o
 .rela.text.basename_main
                0x0000000000403510        0x0 /home/notlean/openwrt-uboost/staging_dir/toolchain-aarch64_cortex-a53_gcc-12.3.0_musl/lib/gcc/aarch64-openwrt-linux-musl/12.3.0/../../../../aarch64-openwrt-linux-musl/lib/crt1.o
 .rela.text.cat_main
                0x0000000000403510        0x0 /home/notlean/openwrt-uboost/staging_dir/toolchain-aarch64_cortex-a53_gcc-12.3.0_musl/lib/gcc/aarch64-openwrt-linux-musl/12.3.0/../../../../aarch64-openwrt-linux-musl/lib/crt1.o
 .rela.text.chown_main
                0x0000000000403510        0x0 /home/notlean/openwrt-uboost/staging_dir/toolchain-aarch64_cortex-a53_gcc-12.3.0_musl/lib/gcc/aarch64-openwrt-linux-musl/12.3.0/../../../../aarch64-openwrt-linux-musl/lib/crt1.o
 .rela.text.cp_main
                0x0000000000403510        0x0 /home/notlean/openwrt-uboost/staging_dir/toolchain-aarch64_cortex-a53_gcc-12.3.0_musl/lib/gcc/aarch64-openwrt-linux-musl/12.3.0/../../../../aarch64-openwrt-linux-musl/lib/crt1.o
 .rela.text.cut_main
                0x0000000000403510        0x0 /home/notlean/openwrt-uboost/staging_dir/toolchain-aarch64_cortex-a53_gcc-12.3.0_musl/lib/gcc/aarch64-openwrt-linux-musl/12.3.0/../../../../aarch64-openwrt-linux-musl/lib/crt1.o
 .rela.text.date_main
                0x0000000000403510        0x0 /home/notlean/openwrt-uboost/staging_dir/toolchain-aarch64_cortex-a53_gcc-12.3.0_musl/lib/gcc/aarch64-openwrt-linux-musl/12.3.0/../../../../aarch64-openwrt-linux-musl/lib/crt1.o
 .rela.text.df_main
                0x0000000000403510        0x0 /home/notlean/openwrt-uboost/staging_dir/toolchain-aarch64_cortex-a53_gcc-12.3.0_musl/lib/gcc/aarch64-openwrt-linux-musl/12.3.0/../../../../aarch64-openwrt-linux-musl/lib/crt1.o
 .rela.text.du_main
                0x0000000000403510        0x0 /home/notlean/openwrt-uboost/staging_dir/toolchain-aarch64_cortex-a53_gcc-12.3.0_musl/lib/gcc/aarch64-openwrt-linux-musl/12.3.0/../../../../aarch64-openwrt-linux-musl/lib/crt1.o
 .rela.text.env_main
                0x0000000000403510        0x0 /home/notlean/openwrt-uboost/staging_dir/toolchain-aarch64_cortex-a53_gcc-12.3.0_musl/lib/gcc/aarch64-openwrt-linux-musl/12.3.0/../../../../aarch64-openwrt-linux-musl/lib/crt1.o
 .rela.text.head_main
                0x0000000000403510        0x0 /home/notlean/openwrt-uboost/staging_dir/toolchain-aarch64_cortex-a53_gcc-12.3.0_musl/lib/gcc/aarch64-openwrt-linux-musl/12.3.0/../../../../aarch64-openwrt-linux-musl/lib/crt1.o
 .rela.text.id_main
                0x0000000000403510        0x0 /home/notlean/openwrt-uboost/staging_dir/toolchain-aarch64_cortex-a53_gcc-12.3.0_musl/lib/gcc/aarch64-openwrt-linux-musl/12.3.0/../../../../aarch64-openwrt-linux-musl/lib/crt1.o
 .rela.text.ln_main
                0x0000000000403510        0x0 /home/notlean/openwrt-uboost/staging_dir/toolchain-aarch64_cortex-a53_gcc-12.3.0_musl/lib/gcc/aarch64-openwrt-linux-musl/12.3.0/../../../../aarch64-openwrt-linux-musl/lib/crt1.o
 .rela.text.ls_main
                0x0000000000403510        0x0 /home/notlean/openwrt-uboost/staging_dir/toolchain-aarch64_cortex-a53_gcc-12.3.0_musl/lib/gcc/aarch64-openwrt-linux-musl/12.3.0/../../../../aarch64-openwrt-linux-musl/lib/crt1.o
 .rela.text.hash_file
                0x0000000000403510        0x0 /home/notlean/openwrt-uboost/staging_dir/toolchain-aarch64_cortex-a53_gcc-12.3.0_musl/lib/gcc/aarch64-openwrt-linux-musl/12.3.0/../../../../aarch64-openwrt-linux-musl/lib/crt1.o
 .rela.text.md5_sha1_sum_main
                0x0000000000403510        0x0 /home/notlean/openwrt-uboost/staging_dir/toolchain-aarch64_cortex-a53_gcc-12.3.0_musl/lib/gcc/aarch64-openwrt-linux-musl/12.3.0/../../../../aarch64-openwrt-linux-musl/lib/crt1.o
 .rela.text.mkdir_main
                0x0000000000403510        0x0 /home/notlean/openwrt-uboost/staging_dir/toolchain-aarch64_cortex-a53_gcc-12.3.0_musl/lib/gcc/aarch64-openwrt-linux-musl/12.3.0/../../../../aarch64-openwrt-linux-musl/lib/crt1.o
 .rela.text.mktemp_main
                0x0000000000403510        0x0 /home/notlean/openwrt-uboost/staging_dir/toolchain-aarch64_cortex-a53_gcc-12.3.0_musl/lib/gcc/aarch64-openwrt-linux-musl/12.3.0/../../../../aarch64-openwrt-linux-musl/lib/crt1.o
 .rela.text.rm_main
                0x0000000000403510        0x0 /home/notlean/openwrt-uboost/staging_dir/toolchain-aarch64_cortex-a53_gcc-12.3.0_musl/lib/gcc/aarch64-openwrt-linux-musl/12.3.0/../../../../aarch64-openwrt-linux-musl/lib/crt1.o
 .rela.text.readlink_main
                0x0000000000403510        0x0 /home/notlean/openwrt-uboost/staging_dir/toolchain-aarch64_cortex-a53_gcc-12.3.0_musl/lib/gcc/aarch64-openwrt-linux-musl/12.3.0/../../../../aarch64-openwrt-linux-musl/lib/crt1.o
 .rela.text.rmdir_main
                0x0000000000403510        0x0 /home/notlean/openwrt-uboost/staging_dir/toolchain-aarch64_cortex-a53_gcc-12.3.0_musl/lib/gcc/aarch64-openwrt-linux-musl/12.3.0/../../../../aarch64-openwrt-linux-musl/lib/crt1.o
 .rela.text.seq_main
                0x0000000000403510        0x0 /home/notlean/openwrt-uboost/staging_dir/toolchain-aarch64_cortex-a53_gcc-12.3.0_musl/lib/gcc/aarch64-openwrt-linux-musl/12.3.0/../../../../aarch64-openwrt-linux-musl/lib/crt1.o
 .rela.text.sort_main
                0x0000000000403510        0x0 /home/notlean/openwrt-uboost/staging_dir/toolchain-aarch64_cortex-a53_gcc-12.3.0_musl/lib/gcc/aarch64-openwrt-linux-musl/12.3.0/../../../../aarch64-openwrt-linux-musl/lib/crt1.o
 .rela.text.fsync_main
                0x0000000000403510        0x0 /home/notlean/openwrt-uboost/staging_dir/toolchain-aarch64_cortex-a53_gcc-12.3.0_musl/lib/gcc/aarch64-openwrt-linux-musl/12.3.0/../../../../aarch64-openwrt-linux-musl/lib/crt1.o
 .rela.text.tail_main
                0x0000000000403510        0x0 /home/notlean/openwrt-uboost/staging_dir/toolchain-aarch64_cortex-a53_gcc-12.3.0_musl/lib/gcc/aarch64-openwrt-linux-musl/12.3.0/../../../../aarch64-openwrt-linux-musl/lib/crt1.o
 .rela.text.tee_main
                0x0000000000403510        0x0 /home/notlean/openwrt-uboost/staging_dir/toolchain-aarch64_cortex-a53_gcc-12.3.0_musl/lib/gcc/aarch64-openwrt-linux-musl/12.3.0/../../../../aarch64-openwrt-linux-musl/lib/crt1.o
 .rela.text.touch_main
                0x0000000000403510        0x0 /home/notlean/openwrt-uboost/staging_dir/toolchain-aarch64_cortex-a53_gcc-12.3.0_musl/lib/gcc/aarch64-openwrt-linux-musl/12.3.0/../../../../aarch64-openwrt-linux-musl/lib/crt1.o
 .rela.text.tr_main
                0x0000000000403510        0x0 /home/notlean/openwrt-uboost/staging_dir/toolchain-aarch64_cortex-a53_gcc-12.3.0_musl/lib/gcc/aarch64-openwrt-linux-musl/12.3.0/../../../../aarch64-openwrt-linux-musl/lib/crt1.o
 .rela.text.uname_main
                0x0000000000403510        0x0 /home/notlean/openwrt-uboost/staging_dir/toolchain-aarch64_cortex-a53_gcc-12.3.0_musl/lib/gcc/aarch64-openwrt-linux-musl/12.3.0/../../../../aarch64-openwrt-linux-musl/lib/crt1.o
 .rela.text.uniq_main
                0x0000000000403510        0x0 /home/notlean/openwrt-uboost/staging_dir/toolchain-aarch64_cortex-a53_gcc-12.3.0_musl/lib/gcc/aarch64-openwrt-linux-musl/12.3.0/../../../../aarch64-openwrt-linux-musl/lib/crt1.o
 .rela.text.wc_main
                0x0000000000403510        0x0 /home/notlean/openwrt-uboost/staging_dir/toolchain-aarch64_cortex-a53_gcc-12.3.0_musl/lib/gcc/aarch64-openwrt-linux-musl/12.3.0/../../../../aarch64-openwrt-linux-musl/lib/crt1.o
 .rela.text.mkfifo_main
                0x0000000000403510        0x0 /home/notlean/openwrt-uboost/staging_dir/toolchain-aarch64_cortex-a53_gcc-12.3.0_musl/lib/gcc/aarch64-openwrt-linux-musl/12.3.0/../../../../aarch64-openwrt-linux-musl/lib/crt1.o
 .rela.text.mknod_main
                0x0000000000403510        0x0 /home/notlean/openwrt-uboost/staging_dir/toolchain-aarch64_cortex-a53_gcc-12.3.0_musl/lib/gcc/aarch64-openwrt-linux-musl/12.3.0/../../../../aarch64-openwrt-linux-musl/lib/crt1.o
 .rela.text.start_stop_daemon_main
                0x0000000000403510        0x0 /home/notlean/openwrt-uboost/staging_dir/toolchain-aarch64_cortex-a53_gcc-12.3.0_musl/lib/gcc/aarch64-openwrt-linux-musl/12.3.0/../../../../aarch64-openwrt-linux-musl/lib/crt1.o
 .rela.text.which_main
                0x0000000000403510        0x0 /home/notlean/openwrt-uboost/staging_dir/toolchain-aarch64_cortex-a53_gcc-12.3.0_musl/lib/gcc/aarch64-openwrt-linux-musl/12.3.0/../../../../aarch64-openwrt-linux-musl/lib/crt1.o
 .rela.text.mv_main
                0x0000000000403510        0x0 /home/notlean/openwrt-uboost/staging_dir/toolchain-aarch64_cortex-a53_gcc-12.3.0_musl/lib/gcc/aarch64-openwrt-linux-musl/12.3.0/../../../../aarch64-openwrt-linux-musl/lib/crt1.o
 .rela.text.next_input_file
                0x0000000000403510        0x0 /home/notlean/openwrt-uboost/staging_dir/toolchain-aarch64_cortex-a53_gcc-12.3.0_musl/lib/gcc/aarch64-openwrt-linux-musl/12.3.0/../../../../aarch64-openwrt-linux-musl/lib/crt1.o
 .rela.text.evaluate.lto_priv.0
                0x0000000000403510        0x0 /home/notlean/openwrt-uboost/staging_dir/toolchain-aarch64_cortex-a53_gcc-12.3.0_musl/lib/gcc/aarch64-openwrt-linux-musl/12.3.0/../../../../aarch64-openwrt-linux-musl/lib/crt1.o
 .rela.text.awk_main
                0x0000000000403510        0x0 /home/notlean/openwrt-uboost/staging_dir/toolchain-aarch64_cortex-a53_gcc-12.3.0_musl/lib/gcc/aarch64-openwrt-linux-musl/12.3.0/../../../../aarch64-openwrt-linux-musl/lib/crt1.o
 .rela.text.cmp_main
                0x0000000000403510        0x0 /home/notlean/openwrt-uboost/staging_dir/toolchain-aarch64_cortex-a53_gcc-12.3.0_musl/lib/gcc/aarch64-openwrt-linux-musl/12.3.0/../../../../aarch64-openwrt-linux-musl/lib/crt1.o
 .rela.text.get_next_line
                0x0000000000403510        0x0 /home/notlean/openwrt-uboost/staging_dir/toolchain-aarch64_cortex-a53_gcc-12.3.0_musl/lib/gcc/aarch64-openwrt-linux-musl/12.3.0/../../../../aarch64-openwrt-linux-musl/lib/crt1.o
 .rela.text.sed_main
                0x0000000000403510        0x0 /home/notlean/openwrt-uboost/staging_dir/toolchain-aarch64_cortex-a53_gcc-12.3.0_musl/lib/gcc/aarch64-openwrt-linux-musl/12.3.0/../../../../aarch64-openwrt-linux-musl/lib/crt1.o
 .rela.text.rawmode
                0x0000000000403510        0x0 /home/notlean/openwrt-uboost/staging_dir/toolchain-aarch64_cortex-a53_gcc-12.3.0_musl/lib/gcc/aarch64-openwrt-linux-musl/12.3.0/../../../../aarch64-openwrt-linux-musl/lib/crt1.o
 .rela.text.refresh
                0x0000000000403510        0x0 /home/notlean/openwrt-uboost/staging_dir/toolchain-aarch64_cortex-a53_gcc-12.3.0_musl/lib/gcc/aarch64-openwrt-linux-musl/12.3.0/../../../../aarch64-openwrt-linux-musl/lib/crt1.o
 .rela.text.colon
                0x0000000000403510        0x0 /home/notlean/openwrt-uboost/staging_dir/toolchain-aarch64_cortex-a53_gcc-12.3.0_musl/lib/gcc/aarch64-openwrt-linux-musl/12.3.0/../../../../aarch64-openwrt-linux-musl/lib/crt1.o
 .rela.text.do_cmd
                0x0000000000403510        0x0 /home/notlean/openwrt-uboost/staging_dir/toolchain-aarch64_cortex-a53_gcc-12.3.0_musl/lib/gcc/aarch64-openwrt-linux-musl/12.3.0/../../../../aarch64-openwrt-linux-musl/lib/crt1.o
 .rela.text.vi_main
                0x0000000000403510        0x0 /home/notlean/openwrt-uboost/staging_dir/toolchain-aarch64_cortex-a53_gcc-12.3.0_musl/lib/gcc/aarch64-openwrt-linux-musl/12.3.0/../../../../aarch64-openwrt-linux-musl/lib/crt1.o
 .rela.text.func_exec
                0x0000000000403510        0x0 /home/notlean/openwrt-uboost/staging_dir/toolchain-aarch64_cortex-a53_gcc-12.3.0_musl/lib/gcc/aarch64-openwrt-linux-musl/12.3.0/../../../../aarch64-openwrt-linux-musl/lib/crt1.o
 .rela.text.grep_main
                0x0000000000403510        0x0 /home/notlean/openwrt-uboost/staging_dir/toolchain-aarch64_cortex-a53_gcc-12.3.0_musl/lib/gcc/aarch64-openwrt-linux-musl/12.3.0/../../../../aarch64-openwrt-linux-musl/lib/crt1.o
 .rela.text.next
                0x0000000000403510        0x0 /home/notlean/openwrt-uboost/staging_dir/toolchain-aarch64_cortex-a53_gcc-12.3.0_musl/lib/gcc/aarch64-openwrt-linux-musl/12.3.0/../../../../aarch64-openwrt-linux-musl/lib/crt1.o
 .rela.text.get_uidgid
                0x0000000000403510        0x0 /home/notlean/openwrt-uboost/staging_dir/toolchain-aarch64_cortex-a53_gcc-12.3.0_musl/lib/gcc/aarch64-openwrt-linux-musl/12.3.0/../../../../aarch64-openwrt-linux-musl/lib/crt1.o
 .rela.text.bb_ask_y_confirmation
                0x0000000000403510        0x0 /home/notlean/openwrt-uboost/staging_dir/toolchain-aarch64_cortex-a53_gcc-12.3.0_musl/lib/gcc/aarch64-openwrt-linux-musl/12.3.0/../../../../aarch64-openwrt-linux-musl/lib/crt1.o
 .rela.text.ask_and_unlink
                0x0000000000403510        0x0 /home/notlean/openwrt-uboost/staging_dir/toolchain-aarch64_cortex-a53_gcc-12.3.0_musl/lib/gcc/aarch64-openwrt-linux-musl/12.3.0/../../../../aarch64-openwrt-linux-musl/lib/crt1.o
 .rela.text.fclose_if_not_stdin
                0x0000000000403510        0x0 /home/notlean/openwrt-uboost/staging_dir/toolchain-aarch64_cortex-a53_gcc-12.3.0_musl/lib/gcc/aarch64-openwrt-linux-musl/12.3.0/../../../../aarch64-openwrt-linux-musl/lib/crt1.o
 .rela.text.fflush_stdout_and_exit
                0x0000000000403510        0x0 /home/notlean/openwrt-uboost/staging_dir/toolchain-aarch64_cortex-a53_gcc-12.3.0_musl/lib/gcc/aarch64-openwrt-linux-musl/12.3.0/../../../../aarch64-openwrt-linux-musl/lib/crt1.o
 .rela.text.recursive_action1.lto_priv.0
                0x0000000000403510        0x0 /home/notlean/openwrt-uboost/staging_dir/toolchain-aarch64_cortex-a53_gcc-12.3.0_musl/lib/gcc/aarch64-openwrt-linux-musl/12.3.0/../../../../aarch64-openwrt-linux-musl/lib/crt1.o
 .rela.text.remove_file
                0x0000000000403510        0x0 /home/notlean/openwrt-uboost/staging_dir/toolchain-aarch64_cortex-a53_gcc-12.3.0_musl/lib/gcc/aarch64-openwrt-linux-musl/12.3.0/../../../../aarch64-openwrt-linux-musl/lib/crt1.o
 .rela.text.fopen_or_warn_stdin
                0x0000000000403510        0x0 /home/notlean/openwrt-uboost/staging_dir/toolchain-aarch64_cortex-a53_gcc-12.3.0_musl/lib/gcc/aarch64-openwrt-linux-musl/12.3.0/../../../../aarch64-openwrt-linux-musl/lib/crt1.o
 .rela.text.xargs_main
                0x0000000000403510        0x0 /home/notlean/openwrt-uboost/staging_dir/toolchain-aarch64_cortex-a53_gcc-12.3.0_musl/lib/gcc/aarch64-openwrt-linux-musl/12.3.0/../../../../aarch64-openwrt-linux-musl/lib/crt1.o
 .rela.text.get_sock_lsa
                0x0000000000403510        0x0 /home/notlean/openwrt-uboost/staging_dir/toolchain-aarch64_cortex-a53_gcc-12.3.0_musl/lib/gcc/aarch64-openwrt-linux-musl/12.3.0/../../../../aarch64-openwrt-linux-musl/lib/crt1.o
 .rela.text.str2sockaddr.lto_priv.0
                0x0000000000403510        0x0 /home/notlean/openwrt-uboost/staging_dir/toolchain-aarch64_cortex-a53_gcc-12.3.0_musl/lib/gcc/aarch64-openwrt-linux-musl/12.3.0/../../../../aarch64-openwrt-linux-musl/lib/crt1.o
 .rela.text.copy_file
                0x0000000000403510        0x0 /home/notlean/openwrt-uboost/staging_dir/toolchain-aarch64_cortex-a53_gcc-12.3.0_musl/lib/gcc/aarch64-openwrt-linux-musl/12.3.0/../../../../aarch64-openwrt-linux-musl/lib/crt1.o
 .rela.text.udhcp_send_raw_packet.constprop.0
                0x0000000000403510        0x0 /home/notlean/openwrt-uboost/staging_dir/toolchain-aarch64_cortex-a53_gcc-12.3.0_musl/lib/gcc/aarch64-openwrt-linux-musl/12.3.0/../../../../aarch64-openwrt-linux-musl/lib/crt1.o
 .rela.text.send_select.isra.0
                0x0000000000403510        0x0 /home/notlean/openwrt-uboost/staging_dir/toolchain-aarch64_cortex-a53_gcc-12.3.0_musl/lib/gcc/aarch64-openwrt-linux-musl/12.3.0/../../../../aarch64-openwrt-linux-musl/lib/crt1.o
 .rela.text.send_discover.isra.0
                0x0000000000403510        0x0 /home/notlean/openwrt-uboost/staging_dir/toolchain-aarch64_cortex-a53_gcc-12.3.0_musl/lib/gcc/aarch64-openwrt-linux-musl/12.3.0/../../../../aarch64-openwrt-linux-musl/lib/crt1.o
 .rela.text.fputs_stdout.isra.0
                0x0000000000403510        0x0 /home/notlean/openwrt-uboost/staging_dir/toolchain-aarch64_cortex-a53_gcc-12.3.0_musl/lib/gcc/aarch64-openwrt-linux-musl/12.3.0/../../../../aarch64-openwrt-linux-musl/lib/crt1.o
 .rela.text.display.lto_priv.0
                0x0000000000403510        0x0 /home/notlean/openwrt-uboost/staging_dir/toolchain-aarch64_cortex-a53_gcc-12.3.0_musl/lib/gcc/aarch64-openwrt-linux-musl/12.3.0/../../../../aarch64-openwrt-linux-musl/lib/crt1.o
 .rela.text.bb_ask_noecho.constprop.0
                0x0000000000403510        0x0 /home/notlean/openwrt-uboost/staging_dir/toolchain-aarch64_cortex-a53_gcc-12.3.0_musl/lib/gcc/aarch64-openwrt-linux-musl/12.3.0/../../../../aarch64-openwrt-linux-musl/lib/crt1.o
 .rela.text.common_ping_main.isra.0
                0x0000000000403510        0x0 /home/notlean/openwrt-uboost/staging_dir/toolchain-aarch64_cortex-a53_gcc-12.3.0_musl/lib/gcc/aarch64-openwrt-linux-musl/12.3.0/../../../../aarch64-openwrt-linux-musl/lib/crt1.o
 *(SORT_BY_ALIGNMENT(.rela.fini))
 *(SORT_BY_ALIGNMENT(.rela.rodata) SORT_BY_ALIGNMENT(.rela.rodata.*) SORT_BY_ALIGNMENT(.rela.gnu.linkonce.r.*))
 *(SORT_BY_ALIGNMENT(.rela.data) SORT_BY_ALIGNMENT(.rela.data.*) SORT_BY_ALIGNMENT(.rela.gnu.linkonce.d.*))
 .rela.data.rel.ro
                0x0000000000403510       0x48 /home/notlean/openwrt-uboost/staging_dir/toolchain-aarch64_cortex-a53_gcc-12.3.0_musl/lib/gcc/aarch64-openwrt-linux-musl/12.3.0/../../../../aarch64-openwrt-linux-musl/lib/crt1.o
 *(SORT_BY_ALIGNMENT(.rela.tdata) SORT_BY_ALIGNMENT(.rela.tdata.*) SORT_BY_ALIGNMENT(.rela.gnu.linkonce.td.*))
 *(SORT_BY_ALIGNMENT(.rela.tbss) SORT_BY_ALIGNMENT(.rela.tbss.*) SORT_BY_ALIGNMENT(.rela.gnu.linkonce.tb.*))
 *(SORT_BY_ALIGNMENT(.rela.ctors))
 *(SORT_BY_ALIGNMENT(.rela.dtors))
 *(SORT_BY_ALIGNMENT(.rela.got))
 .rela.got      0x0000000000403558       0x60 /home/notlean/openwrt-uboost/staging_dir/toolchain-aarch64_cortex-a53_gcc-12.3.0_musl/lib/gcc/aarch64-openwrt-linux-musl/12.3.0/../../../../aarch64-openwrt-linux-musl/lib/crt1.o
 *(SORT_BY_ALIGNMENT(.rela.bss) SORT_BY_ALIGNMENT(.rela.bss.*) SORT_BY_ALIGNMENT(.rela.gnu.linkonce.b.*))
 .rela.bss      0x00000000004035b8       0x60 /home/notlean/openwrt-uboost/staging_dir/toolchain-aarch64_cortex-a53_gcc-12.3.0_musl/lib/gcc/aarch64-openwrt-linux-musl/12.3.0/../../../../aarch64-openwrt-linux-musl/lib/crt1.o
 *(SORT_BY_ALIGNMENT(.rela.ifunc))

.rela.plt       0x0000000000403618     0x1c08
 *(SORT_BY_ALIGNMENT(.rela.plt))
 .rela.plt      0x0000000000403618     0x1c08 /home/notlean/openwrt-uboost/staging_dir/toolchain-aarch64_cortex-a53_gcc-12.3.0_musl/lib/gcc/aarch64-openwrt-linux-musl/12.3.0/../../../../aarch64-openwrt-linux-musl/lib/crt1.o
                [!provide]                        PROVIDE (__rela_iplt_start = .)
 *(SORT_BY_ALIGNMENT(.rela.iplt))
 .rela.iplt     0x0000000000405220        0x0 /home/notlean/openwrt-uboost/staging_dir/toolchain-aarch64_cortex-a53_gcc-12.3.0_musl/lib/gcc/aarch64-openwrt-linux-musl/12.3.0/../../../../aarch64-openwrt-linux-musl/lib/crt1.o
                [!provide]                        PROVIDE (__rela_iplt_end = .)

.init           0x0000000000405220       0x10
 *(SORT_NONE(.init))
 .init          0x0000000000405220        0x8 /home/notlean/openwrt-uboost/staging_dir/toolchain-aarch64_cortex-a53_gcc-12.3.0_musl/lib/gcc/aarch64-openwrt-linux-musl/12.3.0/../../../../aarch64-openwrt-linux-musl/lib/crti.o
                0x0000000000405220                _init
 .init          0x0000000000405228        0x8 /home/notlean/openwrt-uboost/staging_dir/toolchain-aarch64_cortex-a53_gcc-12.3.0_musl/lib/gcc/aarch64-openwrt-linux-musl/12.3.0/../../../../aarch64-openwrt-linux-musl/lib/crtn.o

.plt            0x0000000000405230     0x12d0
 *(SORT_BY_ALIGNMENT(.plt))
 .plt           0x0000000000405230     0x12d0 /home/notlean/openwrt-uboost/staging_dir/toolchain-aarch64_cortex-a53_gcc-12.3.0_musl/lib/gcc/aarch64-openwrt-linux-musl/12.3.0/../../../../aarch64-openwrt-linux-musl/lib/crt1.o
                0x0000000000405250                longjmp
                0x0000000000405260                stpcpy
                0x0000000000405270                clock_gettime
                0x0000000000405280                strcpy
                0x0000000000405290                chroot
                0x00000000004052a0                sigsetjmp
                0x00000000004052b0                unsetenv
                0x00000000004052c0                log
                0x00000000004052d0                sqrt
                0x00000000004052e0                setjmp
                0x00000000004052f0                waitpid
                0x0000000000405300                getrlimit
                0x0000000000405310                ioctl
                0x0000000000405320                strtok_r
                0x0000000000405330                getgid
                0x0000000000405340                popen
                0x0000000000405350                sysconf
                0x0000000000405360                printf
                0x0000000000405370                getspnam_r
                0x0000000000405380                putc_unlocked
                0x0000000000405390                recv
                0x00000000004053a0                connect
                0x00000000004053b0                ungetc
                0x00000000004053c0                sigemptyset
                0x00000000004053d0                utimes
                0x00000000004053e0                strerror
                0x00000000004053f0                memrchr
                0x0000000000405400                strndup
                0x0000000000405410                geteuid
                0x0000000000405420                inet_pton
                0x0000000000405430                memmove
                0x0000000000405440                ns_initparse
                0x0000000000405450                pclose
                0x0000000000405460                getopt_long
                0x0000000000405470                snprintf
                0x0000000000405480                syscall
                0x0000000000405490                fileno_unlocked
                0x00000000004054a0                mknod
                0x00000000004054b0                getc_unlocked
                0x00000000004054c0                getgrgid
                0x00000000004054d0                times
                0x00000000004054e0                getenv
                0x00000000004054f0                fchmod
                0x0000000000405500                getegid
                0x0000000000405510                __register_frame_info@@GLIBC_2.0
                0x0000000000405520                setpriority
                0x0000000000405530                getpriority
                0x0000000000405540                bsearch
                0x0000000000405550                usleep
                0x0000000000405560                execve
                0x0000000000405570                utimensat
                0x0000000000405580                getpagesize
                0x0000000000405590                getpid
                0x00000000004055a0                qsort
                0x00000000004055b0                fchown
                0x00000000004055c0                fscanf
                0x00000000004055d0                dirname
                0x00000000004055e0                prctl
                0x00000000004055f0                fchdir
                0x0000000000405600                res_mkquery
                0x0000000000405610                memcpy
                0x0000000000405620                ns_name_uncompress
                0x0000000000405630                setitimer
                0x0000000000405640                execl
                0x0000000000405650                perror
                0x0000000000405660                readlink
                0x0000000000405670                puts
                0x0000000000405680                clock_settime
                0x0000000000405690                dup2
                0x00000000004056a0                tcflush
                0x00000000004056b0                getuid
                0x00000000004056c0                system
                0x00000000004056d0                hasmntopt
                0x00000000004056e0                malloc
                0x00000000004056f0                isatty
                0x0000000000405700                siglongjmp
                0x0000000000405710                sleep
                0x0000000000405720                sysinfo
                0x0000000000405730                strtoll
                0x0000000000405740                vsnprintf
                0x0000000000405750                recvfrom
                0x0000000000405760                statfs
                0x0000000000405770                pivot_root
                0x0000000000405780                strtoul
                0x0000000000405790                mktemp
                0x00000000004057a0                settimeofday
                0x00000000004057b0                rmdir
                0x00000000004057c0                socket
                0x00000000004057d0                readdir
                0x00000000004057e0                lchown
                0x00000000004057f0                ns_parserr
                0x0000000000405800                setgroups
                0x0000000000405810                mempcpy
                0x0000000000405820                fflush
                0x0000000000405830                ftruncate
                0x0000000000405840                realpath
                0x0000000000405850                ns_get32
                0x0000000000405860                putenv
                0x0000000000405870                lseek
                0x0000000000405880                sigaddset
                0x0000000000405890                clearenv
                0x00000000004058a0                chown
                0x00000000004058b0                mmap
                0x00000000004058c0                strncasecmp
                0x00000000004058d0                setpgid
                0x00000000004058e0                freeaddrinfo
                0x00000000004058f0                __stack_chk_fail
                0x0000000000405900                gmtime_r
                0x0000000000405910                chmod
                0x0000000000405920                getnameinfo
                0x0000000000405930                alarm
                0x0000000000405940                strtol
                0x0000000000405950                pipe
                0x0000000000405960                getpgrp
                0x0000000000405970                strnlen
                0x0000000000405980                uname
                0x0000000000405990                rename
                0x00000000004059a0                strrchr
                0x00000000004059b0                nanosleep
                0x00000000004059c0                setrlimit
                0x00000000004059d0                strtod
                0x00000000004059e0                __deregister_frame_info@@GLIBC_2.0
                0x00000000004059f0                sendfile
                0x0000000000405a00                write
                0x0000000000405a10                fdatasync
                0x0000000000405a20                fstat
                0x0000000000405a30                fprintf
                0x0000000000405a40                kill
                0x0000000000405a50                fputs_unlocked
                0x0000000000405a60                ctime
                0x0000000000405a70                strcat
                0x0000000000405a80                bind
                0x0000000000405a90                getmntent_r
                0x0000000000405aa0                inet_addr
                0x0000000000405ab0                vprintf
                0x0000000000405ac0                umount2
                0x0000000000405ad0                mkfifo
                0x0000000000405ae0                if_nametoindex
                0x0000000000405af0                reboot
                0x0000000000405b00                chdir
                0x0000000000405b10                initgroups
                0x0000000000405b20                fseeko
                0x0000000000405b30                endgrent
                0x0000000000405b40                setsockopt
                0x0000000000405b50                wait3
                0x0000000000405b60                cos
                0x0000000000405b70                memchr
                0x0000000000405b80                swapoff
                0x0000000000405b90                wait
                0x0000000000405ba0                umask
                0x0000000000405bb0                dprintf
                0x0000000000405bc0                mktime
                0x0000000000405bd0                strcasestr
                0x0000000000405be0                lstat
                0x0000000000405bf0                strstr
                0x0000000000405c00                sin
                0x0000000000405c10                rand
                0x0000000000405c20                flock
                0x0000000000405c30                setgid
                0x0000000000405c40                atan2
                0x0000000000405c50                signal
                0x0000000000405c60                read
                0x0000000000405c70                openlog
                0x0000000000405c80                sendmsg
                0x0000000000405c90                closelog
                0x0000000000405ca0                strncmp
                0x0000000000405cb0                setpgrp
                0x0000000000405cc0                pow
                0x0000000000405cd0                strncpy
                0x0000000000405ce0                unlink
                0x0000000000405cf0                sync
                0x0000000000405d00                setenv
                0x0000000000405d10                strcasecmp
                0x0000000000405d20                sendto
                0x0000000000405d30                realloc
                0x0000000000405d40                sigfillset
                0x0000000000405d50                memcmp
                0x0000000000405d60                crypt
                0x0000000000405d70                fdopen
                0x0000000000405d80                fork
                0x0000000000405d90                sscanf
                0x0000000000405da0                execv
                0x0000000000405db0                setmntent
                0x0000000000405dc0                statvfs
                0x0000000000405dd0                execlp
                0x0000000000405de0                sigaction
                0x0000000000405df0                endmntent
                0x0000000000405e00                killpg
                0x0000000000405e10                fread
                0x0000000000405e20                ttyname_r
                0x0000000000405e30                strdup
                0x0000000000405e40                inet_aton
                0x0000000000405e50                strtoull
                0x0000000000405e60                regcomp
                0x0000000000405e70                symlink
                0x0000000000405e80                gettimeofday
                0x0000000000405e90                fopen
                0x0000000000405ea0                getopt
                0x0000000000405eb0                localtime
                0x0000000000405ec0                memset
                0x0000000000405ed0                fnmatch
                0x0000000000405ee0                getsid
                0x0000000000405ef0                srand
                0x0000000000405f00                clearerr
                0x0000000000405f10                fclose
                0x0000000000405f20                inet_ntoa
                0x0000000000405f30                getppid
                0x0000000000405f40                tcgetattr
                0x0000000000405f50                getservbyport
                0x0000000000405f60                regexec
                0x0000000000405f70                time
                0x0000000000405f80                opendir
                0x0000000000405f90                getgroups
                0x0000000000405fa0                poll
                0x0000000000405fb0                getgrouplist
                0x0000000000405fc0                syslog
                0x0000000000405fd0                seteuid
                0x0000000000405fe0                exp
                0x0000000000405ff0                mount
                0x0000000000406000                strcmp
                0x0000000000406010                shutdown
                0x0000000000406020                getpwuid
                0x0000000000406030                dup
                0x0000000000406040                swapon
                0x0000000000406050                getcwd
                0x0000000000406060                gethostbyname
                0x0000000000406070                strsignal
                0x0000000000406080                getpwnam
                0x0000000000406090                futimens
                0x00000000004060a0                getservbyname
                0x00000000004060b0                sprintf
                0x00000000004060c0                strcspn
                0x00000000004060d0                scanf
                0x00000000004060e0                regerror
                0x00000000004060f0                mkstemp
                0x0000000000406100                vfork
                0x0000000000406110                sched_getaffinity
                0x0000000000406120                strsep
                0x0000000000406130                putchar_unlocked
                0x0000000000406140                fsync
                0x0000000000406150                feof_unlocked
                0x0000000000406160                getchar_unlocked
                0x0000000000406170                sched_setaffinity
                0x0000000000406180                localtime_r
                0x0000000000406190                getaddrinfo
                0x00000000004061a0                strftime
                0x00000000004061b0                stat
                0x00000000004061c0                mkdtemp
                0x00000000004061d0                stpncpy
                0x00000000004061e0                getmntent
                0x00000000004061f0                fwrite
                0x0000000000406200                ns_get16
                0x0000000000406210                access
                0x0000000000406220                strptime
                0x0000000000406230                freopen
                0x0000000000406240                tcgetpgrp
                0x0000000000406250                __errno_location
                0x0000000000406260                link
                0x0000000000406270                exit
                0x0000000000406280                klogctl
                0x0000000000406290                setbuf
                0x00000000004062a0                inet_ntop
                0x00000000004062b0                getgrnam
                0x00000000004062c0                atoi
                0x00000000004062d0                ferror_unlocked
                0x00000000004062e0                fgets_unlocked
                0x00000000004062f0                getline
                0x0000000000406300                _exit
                0x0000000000406310                strverscmp
                0x0000000000406320                strspn
                0x0000000000406330                __libc_start_main
                0x0000000000406340                strlen
                0x0000000000406350                open
                0x0000000000406360                regfree
                0x0000000000406370                strchr
                0x0000000000406380                fputs
                0x0000000000406390                adjtimex
                0x00000000004063a0                execvp
                0x00000000004063b0                setsid
                0x00000000004063c0                setegid
                0x00000000004063d0                closedir
                0x00000000004063e0                vasprintf
                0x00000000004063f0                recvmsg
                0x0000000000406400                strchrnul
                0x0000000000406410                fcntl
                0x0000000000406420                tzset
                0x0000000000406430                sched_yield
                0x0000000000406440                setuid
                0x0000000000406450                tcsetattr
                0x0000000000406460                mkdir
                0x0000000000406470                close
                0x0000000000406480                vfprintf
                0x0000000000406490                strpbrk
                0x00000000004064a0                tcsetpgrp
                0x00000000004064b0                sigsuspend
                0x00000000004064c0                raise
                0x00000000004064d0                free
                0x00000000004064e0                sigprocmask
                0x00000000004064f0                getsockname
 *(SORT_BY_ALIGNMENT(.iplt))
 .iplt          0x0000000000406500        0x0 /home/notlean/openwrt-uboost/staging_dir/toolchain-aarch64_cortex-a53_gcc-12.3.0_musl/lib/gcc/aarch64-openwrt-linux-musl/12.3.0/../../../../aarch64-openwrt-linux-musl/lib/crt1.o

.text           0x0000000000406500    0x4d8e4
 *(SORT_BY_ALIGNMENT(.text.unlikely) SORT_BY_ALIGNMENT(.text.*_unlikely) SORT_BY_ALIGNMENT(.text.unlikely.*))
 *(SORT_BY_ALIGNMENT(.text.exit) SORT_BY_ALIGNMENT(.text.exit.*))
 *(SORT_BY_ALIGNMENT(.text.startup) SORT_BY_ALIGNMENT(.text.startup.*))
 *(SORT_BY_ALIGNMENT(.text.hot) SORT_BY_ALIGNMENT(.text.hot.*))
 *(SORT_BY_NAME(SORT_BY_ALIGNMENT(.text.sorted.*)))
 *(SORT_BY_ALIGNMENT(.text) SORT_BY_ALIGNMENT(.stub) SORT_BY_ALIGNMENT(.text.*) SORT_BY_ALIGNMENT(.gnu.linkonce.t.*))
 .text          0x0000000000406500       0x1c /home/notlean/openwrt-uboost/staging_dir/toolchain-aarch64_cortex-a53_gcc-12.3.0_musl/lib/gcc/aarch64-openwrt-linux-musl/12.3.0/../../../../aarch64-openwrt-linux-musl/lib/crt1.o
                0x0000000000406500                _start
 .text._start_c
                0x000000000040651c       0x28 /home/notlean/openwrt-uboost/staging_dir/toolchain-aarch64_cortex-a53_gcc-12.3.0_musl/lib/gcc/aarch64-openwrt-linux-musl/12.3.0/../../../../aarch64-openwrt-linux-musl/lib/crt1.o
                0x000000000040651c                _start_c
 .text          0x0000000000406544       0x68 /home/notlean/openwrt-uboost/staging_dir/toolchain-aarch64_cortex-a53_gcc-12.3.0_musl/lib/gcc/aarch64-openwrt-linux-musl/12.3.0/crtbegin.o
 .text.record_signo
                0x00000000004065ac        0xc /home/notlean/openwrt-uboost/tmp/cc0dSt9z.ltrans0.ltrans.o
                0x00000000004065ac                record_signo
 .text.at_end   0x00000000004065b8       0x24 /home/notlean/openwrt-uboost/tmp/cc0dSt9z.ltrans0.ltrans.o
 .text.cap_cur_fline
                0x00000000004065dc       0x3c /home/notlean/openwrt-uboost/tmp/cc0dSt9z.ltrans0.ltrans.o
 .text.ptok     0x0000000000406618       0x28 /home/notlean/openwrt-uboost/tmp/cc0dSt9z.ltrans0.ltrans.o
 .text.prg_cache_get
                0x0000000000406640       0x48 /home/notlean/openwrt-uboost/tmp/cc0dSt9z.ltrans0.ltrans.o
 .text.my_SQRT  0x0000000000406688       0x3c /home/notlean/openwrt-uboost/tmp/cc0dSt9z.ltrans0.ltrans.o
 .text.compare_point_edge
                0x00000000004066c4       0x18 /home/notlean/openwrt-uboost/tmp/cc0dSt9z.ltrans0.ltrans.o
 .text.compare_survivor_metric
                0x00000000004066dc       0x18 /home/notlean/openwrt-uboost/tmp/cc0dSt9z.ltrans0.ltrans.o
 .text.bb_get_last_path_component_nostrip
                0x00000000004066f4       0x38 /home/notlean/openwrt-uboost/tmp/cc0dSt9z.ltrans0.ltrans.o
 .text.jump     0x000000000040672c       0x1c /home/notlean/openwrt-uboost/tmp/cc0dSt9z.ltrans0.ltrans.o
 .text.delete_cronfile
                0x0000000000406748       0xc0 /home/notlean/openwrt-uboost/tmp/cc0dSt9z.ltrans0.ltrans.o
 .text.clear_line
                0x0000000000406808       0x1c /home/notlean/openwrt-uboost/tmp/cc0dSt9z.ltrans0.ltrans.o
 .text.print_statusline
                0x0000000000406824       0x30 /home/notlean/openwrt-uboost/tmp/cc0dSt9z.ltrans0.ltrans.o
 .text.print_bytes_scaled
                0x0000000000406854       0x50 /home/notlean/openwrt-uboost/tmp/cc0dSt9z.ltrans0.ltrans.o
 .text.status_print
                0x00000000004068a4       0x7c /home/notlean/openwrt-uboost/tmp/cc0dSt9z.ltrans0.ltrans.o
 .text.exit_unlock
                0x0000000000406920       0x1c /home/notlean/openwrt-uboost/tmp/cc0dSt9z.ltrans0.ltrans.o
 .text.lock_main
                0x000000000040693c      0x2c8 /home/notlean/openwrt-uboost/tmp/cc0dSt9z.ltrans0.ltrans.o
 .text.compare_fdbs
                0x0000000000406c04        0x8 /home/notlean/openwrt-uboost/tmp/cc0dSt9z.ltrans0.ltrans.o
 .text.add_ns   0x0000000000406c0c       0x70 /home/notlean/openwrt-uboost/tmp/cc0dSt9z.ltrans0.ltrans.o
 .text.INET_sprint
                0x0000000000406c7c       0x34 /home/notlean/openwrt-uboost/tmp/cc0dSt9z.ltrans0.ltrans.o
 .text.INET_input
                0x0000000000406cb0        0x8 /home/notlean/openwrt-uboost/tmp/cc0dSt9z.ltrans0.ltrans.o
 .text.INET6_input
                0x0000000000406cb8        0x4 /home/notlean/openwrt-uboost/tmp/cc0dSt9z.ltrans0.ltrans.o
 .text.netmsg_main
                0x0000000000406cbc      0x158 /home/notlean/openwrt-uboost/tmp/cc0dSt9z.ltrans0.ltrans.o
 .text.build_ipv6_addr
                0x0000000000406e14       0x84 /home/notlean/openwrt-uboost/tmp/cc0dSt9z.ltrans0.ltrans.o
 .text.scan_inet_proc_line
                0x0000000000406e98       0xd4 /home/notlean/openwrt-uboost/tmp/cc0dSt9z.ltrans0.ltrans.o
 .text.parse_reply
                0x0000000000406f6c      0x438 /home/notlean/openwrt-uboost/tmp/cc0dSt9z.ltrans0.ltrans.o
 .text.add_query
                0x00000000004073a4       0x98 /home/notlean/openwrt-uboost/tmp/cc0dSt9z.ltrans0.ltrans.o
 .text.string_array_len
                0x000000000040743c       0x20 /home/notlean/openwrt-uboost/tmp/cc0dSt9z.ltrans0.ltrans.o
                0x000000000040743c                string_array_len
 .text.find_applet_by_name
                0x000000000040745c       0xc8 /home/notlean/openwrt-uboost/tmp/cc0dSt9z.ltrans0.ltrans.o
                0x000000000040745c                find_applet_by_name
 .text.is_prefixed_with
                0x0000000000407524       0x30 /home/notlean/openwrt-uboost/tmp/cc0dSt9z.ltrans0.ltrans.o
                0x0000000000407524                is_prefixed_with
 .text.index_in_strings
                0x0000000000407554       0x4c /home/notlean/openwrt-uboost/tmp/cc0dSt9z.ltrans0.ltrans.o
                0x0000000000407554                index_in_strings
 .text.index_in_substrings
                0x00000000004075a0       0x98 /home/notlean/openwrt-uboost/tmp/cc0dSt9z.ltrans0.ltrans.o
                0x00000000004075a0                index_in_substrings
 .text.nth_string
                0x0000000000407638       0x20 /home/notlean/openwrt-uboost/tmp/cc0dSt9z.ltrans0.ltrans.o
                0x0000000000407638                nth_string
 .text.bb_basename
                0x0000000000407658       0x24 /home/notlean/openwrt-uboost/tmp/cc0dSt9z.ltrans0.ltrans.o
                0x0000000000407658                bb_basename
 .text.last_char_is
                0x000000000040767c       0x30 /home/notlean/openwrt-uboost/tmp/cc0dSt9z.ltrans0.ltrans.o
                0x000000000040767c                last_char_is
 .text.bb_get_last_path_component_strip
                0x00000000004076ac       0x3c /home/notlean/openwrt-uboost/tmp/cc0dSt9z.ltrans0.ltrans.o
                0x00000000004076ac                bb_get_last_path_component_strip
 .text.unix_do_one
                0x00000000004076e8      0x36c /home/notlean/openwrt-uboost/tmp/cc0dSt9z.ltrans0.ltrans.o
 .text.xfunc_die
                0x0000000000407a54       0x20 /home/notlean/openwrt-uboost/tmp/cc0dSt9z.ltrans0.ltrans.o
                0x0000000000407a54                xfunc_die
 .text.bb_show_usage
                0x0000000000407a74       0xb0 /home/notlean/openwrt-uboost/tmp/cc0dSt9z.ltrans0.ltrans.o
                0x0000000000407a74                bb_show_usage
 .text.show_usage_if_dash_dash_help
                0x0000000000407b24       0x60 /home/notlean/openwrt-uboost/tmp/cc0dSt9z.ltrans0.ltrans.o
 .text.ip_print_help
                0x0000000000407b84        0x8 /home/notlean/openwrt-uboost/tmp/cc0dSt9z.ltrans0.ltrans.o
 .text.ip_main  0x0000000000407b8c      0x140 /home/notlean/openwrt-uboost/tmp/cc0dSt9z.ltrans0.ltrans.o
 .text.run_applet_no_and_exit
                0x0000000000407ccc       0x48 /home/notlean/openwrt-uboost/tmp/cc0dSt9z.ltrans0.ltrans.o
 .text.main     0x0000000000407d14       0xe8 /home/notlean/openwrt-uboost/tmp/cc0dSt9z.ltrans0.ltrans.o
                0x0000000000407d14                main
 .text.ndelay_on
                0x0000000000407dfc       0x3c /home/notlean/openwrt-uboost/tmp/cc0dSt9z.ltrans0.ltrans.o
                0x0000000000407dfc                ndelay_on
 .text.close_on_exec_on
                0x0000000000407e38        0xc /home/notlean/openwrt-uboost/tmp/cc0dSt9z.ltrans0.ltrans.o
                0x0000000000407e38                close_on_exec_on
 .text.utoa_to_buf
                0x0000000000407e44       0x64 /home/notlean/openwrt-uboost/tmp/cc0dSt9z.ltrans0.ltrans.o
                0x0000000000407e44                utoa_to_buf
 .text.utoa     0x0000000000407ea8       0x28 /home/notlean/openwrt-uboost/tmp/cc0dSt9z.ltrans0.ltrans.o
                0x0000000000407ea8                utoa
 .text.itoa     0x0000000000407ed0       0x48 /home/notlean/openwrt-uboost/tmp/cc0dSt9z.ltrans0.ltrans.o
                0x0000000000407ed0                itoa
 .text.bin2hex  0x0000000000407f18       0x50 /home/notlean/openwrt-uboost/tmp/cc0dSt9z.ltrans0.ltrans.o
                0x0000000000407f18                bin2hex
 .text.get_terminal_width_height
                0x0000000000407f68       0xcc /home/notlean/openwrt-uboost/tmp/cc0dSt9z.ltrans0.ltrans.o
                0x0000000000407f68                get_terminal_width_height
 .text.is_TERM_dumb
                0x0000000000408034       0x3c /home/notlean/openwrt-uboost/tmp/cc0dSt9z.ltrans0.ltrans.o
                0x0000000000408034                is_TERM_dumb
 .text.safe_waitpid
                0x0000000000408070       0x54 /home/notlean/openwrt-uboost/tmp/cc0dSt9z.ltrans0.ltrans.o
                0x0000000000408070                safe_waitpid
 .text.wait4pid
                0x00000000004080c4       0x60 /home/notlean/openwrt-uboost/tmp/cc0dSt9z.ltrans0.ltrans.o
 .text._exit_SUCCESS
                0x0000000000408124        0xc /home/notlean/openwrt-uboost/tmp/cc0dSt9z.ltrans0.ltrans.o
                0x0000000000408124                _exit_SUCCESS
 .text.fflush_all
                0x0000000000408130        0x8 /home/notlean/openwrt-uboost/tmp/cc0dSt9z.ltrans0.ltrans.o
                0x0000000000408130                fflush_all
 .text.run_nofork_applet
                0x0000000000408138      0x264 /home/notlean/openwrt-uboost/tmp/cc0dSt9z.ltrans0.ltrans.o
 .text.spawn    0x000000000040839c       0x7c /home/notlean/openwrt-uboost/tmp/cc0dSt9z.ltrans0.ltrans.o
 .text.spawn_and_wait
                0x0000000000408418       0xc8 /home/notlean/openwrt-uboost/tmp/cc0dSt9z.ltrans0.ltrans.o
                0x0000000000408418                spawn_and_wait
 .text.alarm_handler
                0x00000000004084e0       0x3c /home/notlean/openwrt-uboost/tmp/cc0dSt9z.ltrans0.ltrans.o
 .text.set_tty_cooked
                0x000000000040851c       0x24 /home/notlean/openwrt-uboost/tmp/cc0dSt9z.ltrans0.ltrans.o
 .text.restore_tty
                0x0000000000408540       0x28 /home/notlean/openwrt-uboost/tmp/cc0dSt9z.ltrans0.ltrans.o
 .text.less_exit
                0x0000000000408568       0x10 /home/notlean/openwrt-uboost/tmp/cc0dSt9z.ltrans0.ltrans.o
 .text.buffer_print
                0x0000000000408578      0x21c /home/notlean/openwrt-uboost/tmp/cc0dSt9z.ltrans0.ltrans.o
 .text.buffer_fill_and_print
                0x0000000000408794       0x60 /home/notlean/openwrt-uboost/tmp/cc0dSt9z.ltrans0.ltrans.o
 .text.file_is_executable
                0x00000000004087f4       0x44 /home/notlean/openwrt-uboost/tmp/cc0dSt9z.ltrans0.ltrans.o
                0x00000000004087f4                file_is_executable
 .text.llist_pop
                0x0000000000408838       0x2c /home/notlean/openwrt-uboost/tmp/cc0dSt9z.ltrans0.ltrans.o
                0x0000000000408838                llist_pop
 .text.safe_read
                0x0000000000408864       0x58 /home/notlean/openwrt-uboost/tmp/cc0dSt9z.ltrans0.ltrans.o
                0x0000000000408864                safe_read
 .text.full_read
                0x00000000004088bc       0x68 /home/notlean/openwrt-uboost/tmp/cc0dSt9z.ltrans0.ltrans.o
                0x00000000004088bc                full_read
 .text.open_read_close
                0x0000000000408924       0x50 /home/notlean/openwrt-uboost/tmp/cc0dSt9z.ltrans0.ltrans.o
                0x0000000000408924                open_read_close
 .text.read_file
                0x0000000000408974       0x5c /home/notlean/openwrt-uboost/tmp/cc0dSt9z.ltrans0.ltrans.o
 .text.show_bridge
                0x00000000004089d0      0x1d4 /home/notlean/openwrt-uboost/tmp/cc0dSt9z.ltrans0.ltrans.o
 .text.safe_strncpy
                0x0000000000408ba4       0x14 /home/notlean/openwrt-uboost/tmp/cc0dSt9z.ltrans0.ltrans.o
                0x0000000000408ba4                safe_strncpy
 .text.overlapping_strcpy
                0x0000000000408bb8       0x20 /home/notlean/openwrt-uboost/tmp/cc0dSt9z.ltrans0.ltrans.o
                0x0000000000408bb8                overlapping_strcpy
 .text.safe_write
                0x0000000000408bd8       0x58 /home/notlean/openwrt-uboost/tmp/cc0dSt9z.ltrans0.ltrans.o
                0x0000000000408bd8                safe_write
 .text.full_write
                0x0000000000408c30       0x60 /home/notlean/openwrt-uboost/tmp/cc0dSt9z.ltrans0.ltrans.o
                0x0000000000408c30                full_write
 .text.bb_signals
                0x0000000000408c90       0x54 /home/notlean/openwrt-uboost/tmp/cc0dSt9z.ltrans0.ltrans.o
                0x0000000000408c90                bb_signals
 .text.kill_myself_with_sig
                0x0000000000408ce4       0x44 /home/notlean/openwrt-uboost/tmp/cc0dSt9z.ltrans0.ltrans.o
                0x0000000000408ce4                kill_myself_with_sig
 .text.sig_catcher
                0x0000000000408d28       0x14 /home/notlean/openwrt-uboost/tmp/cc0dSt9z.ltrans0.ltrans.o
 .text.strftime_fmt.lto_priv.0
                0x0000000000408d3c       0x54 /home/notlean/openwrt-uboost/tmp/cc0dSt9z.ltrans0.ltrans.o
                0x0000000000408d3c                strftime_fmt.lto_priv.0
 .text.bb_verror_msg
                0x0000000000408d90      0x244 /home/notlean/openwrt-uboost/tmp/cc0dSt9z.ltrans0.ltrans.o
                0x0000000000408d90                bb_verror_msg
 .text.ioctl_or_perror_and_die
                0x0000000000408fd4       0x8c /home/notlean/openwrt-uboost/tmp/cc0dSt9z.ltrans0.ltrans.o
 .text.bb_perror_msg
                0x0000000000409060       0x94 /home/notlean/openwrt-uboost/tmp/cc0dSt9z.ltrans0.ltrans.o
                0x0000000000409060                bb_perror_msg
 .text.open3_or_warn
                0x00000000004090f4       0x38 /home/notlean/openwrt-uboost/tmp/cc0dSt9z.ltrans0.ltrans.o
                0x00000000004090f4                open3_or_warn
 .text.chdir_or_warn
                0x000000000040912c       0x38 /home/notlean/openwrt-uboost/tmp/cc0dSt9z.ltrans0.ltrans.o
                0x000000000040912c                chdir_or_warn
 .text.xchdir   0x0000000000409164       0x18 /home/notlean/openwrt-uboost/tmp/cc0dSt9z.ltrans0.ltrans.o
                0x0000000000409164                xchdir
 .text.bb_simple_perror_msg
                0x000000000040917c       0x10 /home/notlean/openwrt-uboost/tmp/cc0dSt9z.ltrans0.ltrans.o
                0x000000000040917c                bb_simple_perror_msg
 .text.bb_full_fd_action.lto_priv.0
                0x000000000040918c      0x140 /home/notlean/openwrt-uboost/tmp/cc0dSt9z.ltrans0.ltrans.o
                0x000000000040918c                bb_full_fd_action.lto_priv.0
 .text.bb_copyfd_eof
                0x00000000004092cc        0x8 /home/notlean/openwrt-uboost/tmp/cc0dSt9z.ltrans0.ltrans.o
                0x00000000004092cc                bb_copyfd_eof
 .text.bb_perror_msg_and_die
                0x00000000004092d4       0x90 /home/notlean/openwrt-uboost/tmp/cc0dSt9z.ltrans0.ltrans.o
                0x00000000004092d4                bb_perror_msg_and_die
 .text.xfopen   0x0000000000409364       0x28 /home/notlean/openwrt-uboost/tmp/cc0dSt9z.ltrans0.ltrans.o
                0x0000000000409364                xfopen
 .text.xopen3   0x000000000040938c       0x28 /home/notlean/openwrt-uboost/tmp/cc0dSt9z.ltrans0.ltrans.o
                0x000000000040938c                xopen3
 .text.xopen    0x00000000004093b4        0x8 /home/notlean/openwrt-uboost/tmp/cc0dSt9z.ltrans0.ltrans.o
                0x00000000004093b4                xopen
 .text.xrename  0x00000000004093bc       0x38 /home/notlean/openwrt-uboost/tmp/cc0dSt9z.ltrans0.ltrans.o
                0x00000000004093bc                xrename
 .text.xlseek   0x00000000004093f4       0x3c /home/notlean/openwrt-uboost/tmp/cc0dSt9z.ltrans0.ltrans.o
                0x00000000004093f4                xlseek
 .text.xchroot  0x0000000000409430       0x30 /home/notlean/openwrt-uboost/tmp/cc0dSt9z.ltrans0.ltrans.o
                0x0000000000409430                xchroot
 .text.xopendir
                0x0000000000409460       0x28 /home/notlean/openwrt-uboost/tmp/cc0dSt9z.ltrans0.ltrans.o
                0x0000000000409460                xopendir
 .text.xsocket  0x0000000000409488       0x7c /home/notlean/openwrt-uboost/tmp/cc0dSt9z.ltrans0.ltrans.o
                0x0000000000409488                xsocket
 .text.xstat    0x0000000000409504       0x28 /home/notlean/openwrt-uboost/tmp/cc0dSt9z.ltrans0.ltrans.o
                0x0000000000409504                xstat
 .text.BB_EXECVP_or_die
                0x000000000040952c       0x44 /home/notlean/openwrt-uboost/tmp/cc0dSt9z.ltrans0.ltrans.o
                0x000000000040952c                BB_EXECVP_or_die
 .text.bb_simple_perror_msg_and_die
                0x0000000000409570       0x14 /home/notlean/openwrt-uboost/tmp/cc0dSt9z.ltrans0.ltrans.o
                0x0000000000409570                bb_simple_perror_msg_and_die
 .text.xpipe    0x0000000000409584       0x20 /home/notlean/openwrt-uboost/tmp/cc0dSt9z.ltrans0.ltrans.o
                0x0000000000409584                xpipe
 .text.xdup2    0x00000000004095a4       0x28 /home/notlean/openwrt-uboost/tmp/cc0dSt9z.ltrans0.ltrans.o
                0x00000000004095a4                xdup2
 .text.bb_daemonize_or_rexec
                0x00000000004095cc       0xec /home/notlean/openwrt-uboost/tmp/cc0dSt9z.ltrans0.ltrans.o
                0x00000000004095cc                bb_daemonize_or_rexec
 .text.xmove_fd
                0x00000000004096b8       0x24 /home/notlean/openwrt-uboost/tmp/cc0dSt9z.ltrans0.ltrans.o
                0x00000000004096b8                xmove_fd
 .text.reopen_logfile_to_stderr
                0x00000000004096dc       0x38 /home/notlean/openwrt-uboost/tmp/cc0dSt9z.ltrans0.ltrans.o
 .text.xwrite   0x0000000000409714       0x40 /home/notlean/openwrt-uboost/tmp/cc0dSt9z.ltrans0.ltrans.o
                0x0000000000409714                xwrite
 .text.xclose   0x0000000000409754       0x20 /home/notlean/openwrt-uboost/tmp/cc0dSt9z.ltrans0.ltrans.o
                0x0000000000409754                xclose
 .text.xsetgid  0x0000000000409774       0x20 /home/notlean/openwrt-uboost/tmp/cc0dSt9z.ltrans0.ltrans.o
                0x0000000000409774                xsetgid
 .text.xsetuid  0x0000000000409794       0x20 /home/notlean/openwrt-uboost/tmp/cc0dSt9z.ltrans0.ltrans.o
                0x0000000000409794                xsetuid
 .text.xbind    0x00000000004097b4       0x20 /home/notlean/openwrt-uboost/tmp/cc0dSt9z.ltrans0.ltrans.o
                0x00000000004097b4                xbind
 .text.xsendto  0x00000000004097d4       0x2c /home/notlean/openwrt-uboost/tmp/cc0dSt9z.ltrans0.ltrans.o
                0x00000000004097d4                xsendto
 .text.xsettimeofday
                0x0000000000409800       0x24 /home/notlean/openwrt-uboost/tmp/cc0dSt9z.ltrans0.ltrans.o
                0x0000000000409800                xsettimeofday
 .text.write_uint
                0x0000000000409824       0x98 /home/notlean/openwrt-uboost/tmp/cc0dSt9z.ltrans0.ltrans.o
 .text.edit_file
                0x00000000004098bc       0xc4 /home/notlean/openwrt-uboost/tmp/cc0dSt9z.ltrans0.ltrans.o
 .text.log8     0x0000000000409980       0x8c /home/notlean/openwrt-uboost/tmp/cc0dSt9z.ltrans0.ltrans.o
 .text.log5     0x0000000000409a0c       0x8c /home/notlean/openwrt-uboost/tmp/cc0dSt9z.ltrans0.ltrans.o
 .text.bb_error_msg_and_die
                0x0000000000409a98       0x70 /home/notlean/openwrt-uboost/tmp/cc0dSt9z.ltrans0.ltrans.o
                0x0000000000409a98                bb_error_msg_and_die
 .text.die_if_ferror
                0x0000000000409b08       0x28 /home/notlean/openwrt-uboost/tmp/cc0dSt9z.ltrans0.ltrans.o
                0x0000000000409b08                die_if_ferror
 .text.parse_datestr
                0x0000000000409b30      0x48c /home/notlean/openwrt-uboost/tmp/cc0dSt9z.ltrans0.ltrans.o
                0x0000000000409b30                parse_datestr
 .text.bb_error_msg
                0x0000000000409fbc       0x78 /home/notlean/openwrt-uboost/tmp/cc0dSt9z.ltrans0.ltrans.o
                0x0000000000409fbc                bb_error_msg
 .text.ParseField
                0x000000000040a034      0x258 /home/notlean/openwrt-uboost/tmp/cc0dSt9z.ltrans0.ltrans.o
 .text.bb_simple_error_msg
                0x000000000040a28c       0x10 /home/notlean/openwrt-uboost/tmp/cc0dSt9z.ltrans0.ltrans.o
                0x000000000040a28c                bb_simple_error_msg
 .text.bb_simple_error_msg_and_die
                0x000000000040a29c       0x14 /home/notlean/openwrt-uboost/tmp/cc0dSt9z.ltrans0.ltrans.o
                0x000000000040a29c                bb_simple_error_msg_and_die
 .text.bb_die_memory_exhausted
                0x000000000040a2b0       0x10 /home/notlean/openwrt-uboost/tmp/cc0dSt9z.ltrans0.ltrans.o
                0x000000000040a2b0                bb_die_memory_exhausted
 .text.xmalloc  0x000000000040a2c0       0x24 /home/notlean/openwrt-uboost/tmp/cc0dSt9z.ltrans0.ltrans.o
                0x000000000040a2c0                xmalloc
 .text.xzalloc  0x000000000040a2e4       0x30 /home/notlean/openwrt-uboost/tmp/cc0dSt9z.ltrans0.ltrans.o
                0x000000000040a2e4                xzalloc
 .text.llist_add_to_end
                0x000000000040a314       0x3c /home/notlean/openwrt-uboost/tmp/cc0dSt9z.ltrans0.ltrans.o
                0x000000000040a314                llist_add_to_end
 .text.xmemdup  0x000000000040a350       0x54 /home/notlean/openwrt-uboost/tmp/cc0dSt9z.ltrans0.ltrans.o
                0x000000000040a350                xmemdup
 .text.llist_add_to
                0x000000000040a3a4       0x30 /home/notlean/openwrt-uboost/tmp/cc0dSt9z.ltrans0.ltrans.o
                0x000000000040a3a4                llist_add_to
 .text.UNSPEC_print
                0x000000000040a3d4       0x64 /home/notlean/openwrt-uboost/tmp/cc0dSt9z.ltrans0.ltrans.o
 .text.UNSPEC_sprint
                0x000000000040a438       0x28 /home/notlean/openwrt-uboost/tmp/cc0dSt9z.ltrans0.ltrans.o
 .text.xrealloc
                0x000000000040a460       0x24 /home/notlean/openwrt-uboost/tmp/cc0dSt9z.ltrans0.ltrans.o
                0x000000000040a460                xrealloc
 .text.read_lines
                0x000000000040a484      0x328 /home/notlean/openwrt-uboost/tmp/cc0dSt9z.ltrans0.ltrans.o
 .text.buffer_down
                0x000000000040a7ac       0x28 /home/notlean/openwrt-uboost/tmp/cc0dSt9z.ltrans0.ltrans.o
 .text.buffer_up
                0x000000000040a7d4       0x28 /home/notlean/openwrt-uboost/tmp/cc0dSt9z.ltrans0.ltrans.o
 .text.buffer_to_line
                0x000000000040a7fc       0xc0 /home/notlean/openwrt-uboost/tmp/cc0dSt9z.ltrans0.ltrans.o
 .text.getch_nowait
                0x000000000040a8bc      0x11c /home/notlean/openwrt-uboost/tmp/cc0dSt9z.ltrans0.ltrans.o
 .text.less_getch
                0x000000000040a9d8       0x4c /home/notlean/openwrt-uboost/tmp/cc0dSt9z.ltrans0.ltrans.o
 .text.less_gets
                0x000000000040aa24       0xd8 /home/notlean/openwrt-uboost/tmp/cc0dSt9z.ltrans0.ltrans.o
 .text.do_info  0x000000000040aafc      0x174 /home/notlean/openwrt-uboost/tmp/cc0dSt9z.ltrans0.ltrans.o
 .text.xstrdup  0x000000000040ac70       0x20 /home/notlean/openwrt-uboost/tmp/cc0dSt9z.ltrans0.ltrans.o
                0x000000000040ac70                xstrdup
 .text.xmalloc_ttyname
                0x000000000040ac90       0x2c /home/notlean/openwrt-uboost/tmp/cc0dSt9z.ltrans0.ltrans.o
 .text.load_crontab
                0x000000000040acbc      0x348 /home/notlean/openwrt-uboost/tmp/cc0dSt9z.ltrans0.ltrans.o
 .text.rescan_crontab_dir
                0x000000000040b004       0xa4 /home/notlean/openwrt-uboost/tmp/cc0dSt9z.ltrans0.ltrans.o
 .text.reinitialize
                0x000000000040b0a8       0xa4 /home/notlean/openwrt-uboost/tmp/cc0dSt9z.ltrans0.ltrans.o
 .text.examine_file
                0x000000000040b14c       0x88 /home/notlean/openwrt-uboost/tmp/cc0dSt9z.ltrans0.ltrans.o
 .text.change_file
                0x000000000040b1d4       0x80 /home/notlean/openwrt-uboost/tmp/cc0dSt9z.ltrans0.ltrans.o
 .text.INET6_sprint
                0x000000000040b254       0xac /home/notlean/openwrt-uboost/tmp/cc0dSt9z.ltrans0.ltrans.o
 .text.do_if_print
                0x000000000040b300      0x884 /home/notlean/openwrt-uboost/tmp/cc0dSt9z.ltrans0.ltrans.o
 .text.parse_resolvconf
                0x000000000040bb84      0x164 /home/notlean/openwrt-uboost/tmp/cc0dSt9z.ltrans0.ltrans.o
 .text.xstrndup
                0x000000000040bce8       0x18 /home/notlean/openwrt-uboost/tmp/cc0dSt9z.ltrans0.ltrans.o
                0x000000000040bce8                xstrndup
 .text.bb_unsetenv
                0x000000000040bd00       0x80 /home/notlean/openwrt-uboost/tmp/cc0dSt9z.ltrans0.ltrans.o
                0x000000000040bd00                bb_unsetenv
 .text.xasprintf
                0x000000000040bd80       0x88 /home/notlean/openwrt-uboost/tmp/cc0dSt9z.ltrans0.ltrans.o
                0x000000000040bd80                xasprintf
 .text.safe_setenv
                0x000000000040be08       0x58 /home/notlean/openwrt-uboost/tmp/cc0dSt9z.ltrans0.ltrans.o
 .text.start_one_job
                0x000000000040be60      0x178 /home/notlean/openwrt-uboost/tmp/cc0dSt9z.ltrans0.ltrans.o
 .text.ether_print
                0x000000000040bfd8       0x30 /home/notlean/openwrt-uboost/tmp/cc0dSt9z.ltrans0.ltrans.o
 .text.ip_port_str
                0x000000000040c008       0xb4 /home/notlean/openwrt-uboost/tmp/cc0dSt9z.ltrans0.ltrans.o
 .text.print_inet_line
                0x000000000040c0bc      0x100 /home/notlean/openwrt-uboost/tmp/cc0dSt9z.ltrans0.ltrans.o
 .text.tcp_do_one
                0x000000000040c1bc       0x98 /home/notlean/openwrt-uboost/tmp/cc0dSt9z.ltrans0.ltrans.o
 .text.udp_do_one
                0x000000000040c254       0xf4 /home/notlean/openwrt-uboost/tmp/cc0dSt9z.ltrans0.ltrans.o
 .text.raw_do_one
                0x000000000040c348       0xb8 /home/notlean/openwrt-uboost/tmp/cc0dSt9z.ltrans0.ltrans.o
 .text.add_query_with_search
                0x000000000040c400       0xa8 /home/notlean/openwrt-uboost/tmp/cc0dSt9z.ltrans0.ltrans.o
 .text.xsetenv  0x000000000040c4a8       0x1c /home/notlean/openwrt-uboost/tmp/cc0dSt9z.ltrans0.ltrans.o
                0x000000000040c4a8                xsetenv
 .text.bb_copyfd_exact_size
                0x000000000040c4c4       0x44 /home/notlean/openwrt-uboost/tmp/cc0dSt9z.ltrans0.ltrans.o
                0x000000000040c4c4                bb_copyfd_exact_size
 .text.get_mono.lto_priv.0
                0x000000000040c508       0x28 /home/notlean/openwrt-uboost/tmp/cc0dSt9z.ltrans0.ltrans.o
                0x000000000040c508                get_mono.lto_priv.0
 .text.monotonic_us
                0x000000000040c530       0x2c /home/notlean/openwrt-uboost/tmp/cc0dSt9z.ltrans0.ltrans.o
                0x000000000040c530                monotonic_us
 .text.monotonic_ms
                0x000000000040c55c       0x2c /home/notlean/openwrt-uboost/tmp/cc0dSt9z.ltrans0.ltrans.o
                0x000000000040c55c                monotonic_ms
 .text.run_command
                0x000000000040c588       0xf4 /home/notlean/openwrt-uboost/tmp/cc0dSt9z.ltrans0.ltrans.o
 .text.send_queries
                0x000000000040c67c      0x380 /home/notlean/openwrt-uboost/tmp/cc0dSt9z.ltrans0.ltrans.o
 .text.xstrtoull_range_sfx
                0x000000000040c9fc      0x10c /home/notlean/openwrt-uboost/tmp/cc0dSt9z.ltrans0.ltrans.o
                0x000000000040c9fc                xstrtoull_range_sfx
 .text.show_bridge_timer
                0x000000000040cb08       0x44 /home/notlean/openwrt-uboost/tmp/cc0dSt9z.ltrans0.ltrans.o
 .text.xatoull_range
                0x000000000040cb4c       0x14 /home/notlean/openwrt-uboost/tmp/cc0dSt9z.ltrans0.ltrans.o
                0x000000000040cb4c                xatoull_range
 .text.xatoull_sfx
                0x000000000040cb60       0x14 /home/notlean/openwrt-uboost/tmp/cc0dSt9z.ltrans0.ltrans.o
                0x000000000040cb60                xatoull_sfx
 .text.xstrtou_range_sfx
                0x000000000040cb74      0x128 /home/notlean/openwrt-uboost/tmp/cc0dSt9z.ltrans0.ltrans.o
                0x000000000040cb74                xstrtou_range_sfx
 .text.printf_xstrtou
                0x000000000040cc9c       0x34 /home/notlean/openwrt-uboost/tmp/cc0dSt9z.ltrans0.ltrans.o
 .text.show_bridge_port
                0x000000000040ccd0      0x3b8 /home/notlean/openwrt-uboost/tmp/cc0dSt9z.ltrans0.ltrans.o
 .text.xatou_range
                0x000000000040d088       0x14 /home/notlean/openwrt-uboost/tmp/cc0dSt9z.ltrans0.ltrans.o
                0x000000000040d088                xatou_range
 .text.nslookup_main
                0x000000000040d09c      0x420 /home/notlean/openwrt-uboost/tmp/cc0dSt9z.ltrans0.ltrans.o
 .text.xatoi_positive
                0x000000000040d4bc        0xc /home/notlean/openwrt-uboost/tmp/cc0dSt9z.ltrans0.ltrans.o
                0x000000000040d4bc                xatoi_positive
 .text.vgetopt32
                0x000000000040d4c8      0x674 /home/notlean/openwrt-uboost/tmp/cc0dSt9z.ltrans0.ltrans.o
 .text.getopt32
                0x000000000040db3c       0x74 /home/notlean/openwrt-uboost/tmp/cc0dSt9z.ltrans0.ltrans.o
                0x000000000040db3c                getopt32
 .text.passwd_main
                0x000000000040dbb0      0x66c /home/notlean/openwrt-uboost/tmp/cc0dSt9z.ltrans0.ltrans.o
 .text.crond_main
                0x000000000040e21c      0x428 /home/notlean/openwrt-uboost/tmp/cc0dSt9z.ltrans0.ltrans.o
 .text.crontab_main
                0x000000000040e644      0x2fc /home/notlean/openwrt-uboost/tmp/cc0dSt9z.ltrans0.ltrans.o
 .text.strings_main
                0x000000000040e940      0x1d4 /home/notlean/openwrt-uboost/tmp/cc0dSt9z.ltrans0.ltrans.o
 .text.time_main
                0x000000000040eb14      0x460 /home/notlean/openwrt-uboost/tmp/cc0dSt9z.ltrans0.ltrans.o
 .text.netstat_main
                0x000000000040ef74      0x2c4 /home/notlean/openwrt-uboost/tmp/cc0dSt9z.ltrans0.ltrans.o
 .text.getopt32long
                0x000000000040f238       0x70 /home/notlean/openwrt-uboost/tmp/cc0dSt9z.ltrans0.ltrans.o
                0x000000000040f238                getopt32long
 .text.login_main
                0x000000000040f2a8      0x4e8 /home/notlean/openwrt-uboost/tmp/cc0dSt9z.ltrans0.ltrans.o
 .text.brctl_main
                0x000000000040f790      0x7ec /home/notlean/openwrt-uboost/tmp/cc0dSt9z.ltrans0.ltrans.o
 .text.bb_strtoull
                0x000000000040ff7c       0x74 /home/notlean/openwrt-uboost/tmp/cc0dSt9z.ltrans0.ltrans.o
                0x000000000040ff7c                bb_strtoull
 .text.add_to_prg_cache_if_socket
                0x000000000040fff0      0x118 /home/notlean/openwrt-uboost/tmp/cc0dSt9z.ltrans0.ltrans.o
 .text.bb_strtou
                0x0000000000410108       0x88 /home/notlean/openwrt-uboost/tmp/cc0dSt9z.ltrans0.ltrans.o
                0x0000000000410108                bb_strtou
 .text.less_main
                0x0000000000410190      0x68c /home/notlean/openwrt-uboost/tmp/cc0dSt9z.ltrans0.ltrans.o
 .text.nc_main  0x000000000041081c      0x1a4 /home/notlean/openwrt-uboost/tmp/cc0dSt9z.ltrans0.ltrans.o
 .text.bb_strtoi
                0x00000000004109c0       0xa0 /home/notlean/openwrt-uboost/tmp/cc0dSt9z.ltrans0.ltrans.o
                0x00000000004109c0                bb_strtoi
 .text.concat_path_file
                0x0000000000410a60       0x68 /home/notlean/openwrt-uboost/tmp/cc0dSt9z.ltrans0.ltrans.o
                0x0000000000410a60                concat_path_file
 .text.dir_act  0x0000000000410ac8      0x114 /home/notlean/openwrt-uboost/tmp/cc0dSt9z.ltrans0.ltrans.o
 .text.add_interface.lto_priv.0
                0x0000000000410bdc       0x94 /home/notlean/openwrt-uboost/tmp/cc0dSt9z.ltrans0.ltrans.o
                0x0000000000410bdc                add_interface.lto_priv.0
 .text.ifconfig_main
                0x0000000000410c70      0x5c4 /home/notlean/openwrt-uboost/tmp/cc0dSt9z.ltrans0.ltrans.o
 .text.gettime1900d.lto_priv.0
                0x0000000000411234       0x48 /home/notlean/openwrt-uboost/tmp/cc0dSt9z.ltrans0.ltrans.o
                0x0000000000411234                gettime1900d.lto_priv.0
 .text.lfp_to_d.lto_priv.0
                0x000000000041127c       0x2c /home/notlean/openwrt-uboost/tmp/cc0dSt9z.ltrans0.ltrans.o
                0x000000000041127c                lfp_to_d.lto_priv.0
 .text.sfp_to_d.lto_priv.0
                0x00000000004112a8       0x34 /home/notlean/openwrt-uboost/tmp/cc0dSt9z.ltrans0.ltrans.o
                0x00000000004112a8                sfp_to_d.lto_priv.0
 .text.d_to_lfp.lto_priv.0
                0x00000000004112dc       0x30 /home/notlean/openwrt-uboost/tmp/cc0dSt9z.ltrans0.ltrans.o
                0x00000000004112dc                d_to_lfp.lto_priv.0
 .text.d_to_sfp.lto_priv.0
                0x000000000041130c       0x38 /home/notlean/openwrt-uboost/tmp/cc0dSt9z.ltrans0.ltrans.o
                0x000000000041130c                d_to_sfp.lto_priv.0
 .text.set_next.lto_priv.0
                0x0000000000411344       0x1c /home/notlean/openwrt-uboost/tmp/cc0dSt9z.ltrans0.ltrans.o
                0x0000000000411344                set_next.lto_priv.0
 .text.filter_datapoints.lto_priv.0
                0x0000000000411360       0xd0 /home/notlean/openwrt-uboost/tmp/cc0dSt9z.ltrans0.ltrans.o
                0x0000000000411360                filter_datapoints.lto_priv.0
 .text.step_time
                0x0000000000411430      0x1e8 /home/notlean/openwrt-uboost/tmp/cc0dSt9z.ltrans0.ltrans.o
 .text.resolve_peer_hostname.lto_priv.0
                0x0000000000411618      0x150 /home/notlean/openwrt-uboost/tmp/cc0dSt9z.ltrans0.ltrans.o
                0x0000000000411618                resolve_peer_hostname.lto_priv.0
 .text.run_script.lto_priv.0
                0x0000000000411768      0x168 /home/notlean/openwrt-uboost/tmp/cc0dSt9z.ltrans0.ltrans.o
                0x0000000000411768                run_script.lto_priv.0
 .text.clamp_pollexp_and_set_MAXSTRAT.lto_priv.0
                0x00000000004118d0       0x3c /home/notlean/openwrt-uboost/tmp/cc0dSt9z.ltrans0.ltrans.o
                0x00000000004118d0                clamp_pollexp_and_set_MAXSTRAT.lto_priv.0
 .text.select_and_cluster.lto_priv.0
                0x000000000041190c      0x4e0 /home/notlean/openwrt-uboost/tmp/cc0dSt9z.ltrans0.ltrans.o
                0x000000000041190c                select_and_cluster.lto_priv.0
 .text.update_local_clock.lto_priv.0
                0x0000000000411dec      0x2dc /home/notlean/openwrt-uboost/tmp/cc0dSt9z.ltrans0.ltrans.o
                0x0000000000411dec                update_local_clock.lto_priv.0
 .text.adjust_poll
                0x00000000004120c8       0xa0 /home/notlean/openwrt-uboost/tmp/cc0dSt9z.ltrans1.ltrans.o
 .text.set_flags
                0x0000000000412168       0x3c /home/notlean/openwrt-uboost/tmp/cc0dSt9z.ltrans1.ltrans.o
 .text.find_by_index
                0x00000000004121a4       0x34 /home/notlean/openwrt-uboost/tmp/cc0dSt9z.ltrans1.ltrans.o
 .text.poll_interval
                0x00000000004121d8       0x3c /home/notlean/openwrt-uboost/tmp/cc0dSt9z.ltrans1.ltrans.o
 .text.recv_and_process_peer_pkt
                0x0000000000412214      0x3c4 /home/notlean/openwrt-uboost/tmp/cc0dSt9z.ltrans1.ltrans.o
 .text.iproute_reset_filter
                0x00000000004125d8       0x30 /home/notlean/openwrt-uboost/tmp/cc0dSt9z.ltrans1.ltrans.o
 .text.parse_rtattr
                0x0000000000412608       0xa4 /home/notlean/openwrt-uboost/tmp/cc0dSt9z.ltrans1.ltrans.o
 .text.recv_and_process_client_pkt
                0x00000000004126ac      0x2f0 /home/notlean/openwrt-uboost/tmp/cc0dSt9z.ltrans1.ltrans.o
 .text.kw_lookup
                0x000000000041299c       0x84 /home/notlean/openwrt-uboost/tmp/cc0dSt9z.ltrans1.ltrans.o
 .text.ntp_init
                0x0000000000412a20      0x340 /home/notlean/openwrt-uboost/tmp/cc0dSt9z.ltrans1.ltrans.o
 .text.ntpd_main
                0x0000000000412d60      0x4e8 /home/notlean/openwrt-uboost/tmp/cc0dSt9z.ltrans1.ltrans.o
                0x0000000000412d60                ntpd_main
 .text.print_stats_and_exit.lto_priv.0
                0x0000000000413248       0xd8 /home/notlean/openwrt-uboost/tmp/cc0dSt9z.ltrans1.ltrans.o
                0x0000000000413248                print_stats_and_exit.lto_priv.0
 .text.sendping4.lto_priv.0
                0x0000000000413320       0x7c /home/notlean/openwrt-uboost/tmp/cc0dSt9z.ltrans1.ltrans.o
                0x0000000000413320                sendping4.lto_priv.0
 .text.sendping6.lto_priv.0
                0x000000000041339c       0x64 /home/notlean/openwrt-uboost/tmp/cc0dSt9z.ltrans1.ltrans.o
                0x000000000041339c                sendping6.lto_priv.0
 .text.ping_main
                0x0000000000413400        0xc /home/notlean/openwrt-uboost/tmp/cc0dSt9z.ltrans1.ltrans.o
                0x0000000000413400                ping_main
 .text.ping6_main
                0x000000000041340c        0xc /home/notlean/openwrt-uboost/tmp/cc0dSt9z.ltrans1.ltrans.o
                0x000000000041340c                ping6_main
 .text.next_arg
                0x0000000000413418       0x20 /home/notlean/openwrt-uboost/tmp/cc0dSt9z.ltrans1.ltrans.o
 .text.duparg   0x0000000000413438       0x18 /home/notlean/openwrt-uboost/tmp/cc0dSt9z.ltrans1.ltrans.o
 .text.INET_setroute
                0x0000000000413450      0x398 /home/notlean/openwrt-uboost/tmp/cc0dSt9z.ltrans1.ltrans.o
 .text.INET6_setroute
                0x00000000004137e8      0x2c4 /home/notlean/openwrt-uboost/tmp/cc0dSt9z.ltrans1.ltrans.o
 .text.get_hz   0x0000000000413aac       0x8c /home/notlean/openwrt-uboost/tmp/cc0dSt9z.ltrans1.ltrans.o
 .text.INET6_displayroutes
                0x0000000000413b38      0x22c /home/notlean/openwrt-uboost/tmp/cc0dSt9z.ltrans1.ltrans.o
 .text.hexdump_if_verbose
                0x0000000000413d64      0x140 /home/notlean/openwrt-uboost/tmp/cc0dSt9z.ltrans1.ltrans.o
 .text.traceroute_init
                0x0000000000413ea4      0x470 /home/notlean/openwrt-uboost/tmp/cc0dSt9z.ltrans1.ltrans.o
 .text.inet_addr_match
                0x0000000000414314       0x80 /home/notlean/openwrt-uboost/tmp/cc0dSt9z.ltrans1.ltrans.o
 .text.common_traceroute_main
                0x0000000000414394      0x6c8 /home/notlean/openwrt-uboost/tmp/cc0dSt9z.ltrans1.ltrans.o
 .text.traceroute_main
                0x0000000000414a5c        0x8 /home/notlean/openwrt-uboost/tmp/cc0dSt9z.ltrans1.ltrans.o
                0x0000000000414a5c                traceroute_main
 .text.traceroute6_main
                0x0000000000414a64        0x8 /home/notlean/openwrt-uboost/tmp/cc0dSt9z.ltrans1.ltrans.o
                0x0000000000414a64                traceroute6_main
 .text.get_ctl_fd
                0x0000000000414a6c       0x48 /home/notlean/openwrt-uboost/tmp/cc0dSt9z.ltrans1.ltrans.o
 .text.rtnl_rtntype_n2a
                0x0000000000414ab4       0xb8 /home/notlean/openwrt-uboost/tmp/cc0dSt9z.ltrans1.ltrans.o
 .text.rtnl_rtntype_a2n
                0x0000000000414b6c       0x8c /home/notlean/openwrt-uboost/tmp/cc0dSt9z.ltrans1.ltrans.o
 .text.rtnl_send_check
                0x0000000000414bf8       0xd4 /home/notlean/openwrt-uboost/tmp/cc0dSt9z.ltrans1.ltrans.o
 .text.flush_update.lto_priv.0
                0x0000000000414ccc       0x40 /home/notlean/openwrt-uboost/tmp/cc0dSt9z.ltrans1.ltrans.o
 .text.flush_update.lto_priv.1
                0x0000000000414d0c       0x44 /home/notlean/openwrt-uboost/tmp/cc0dSt9z.ltrans1.ltrans.o
 .text.flush_update.lto_priv.2
                0x0000000000414d50       0x44 /home/notlean/openwrt-uboost/tmp/cc0dSt9z.ltrans1.ltrans.o
 .text.xrtnl_open
                0x0000000000414d94       0x74 /home/notlean/openwrt-uboost/tmp/cc0dSt9z.ltrans1.ltrans.o
 .text.rtnl_talk
                0x0000000000414e08      0x2a0 /home/notlean/openwrt-uboost/tmp/cc0dSt9z.ltrans1.ltrans.o
 .text.ll_remember_index
                0x00000000004150a8      0x154 /home/notlean/openwrt-uboost/tmp/cc0dSt9z.ltrans1.ltrans.o
                0x00000000004150a8                ll_remember_index
 .text.store_nlmsg
                0x00000000004151fc       0x98 /home/notlean/openwrt-uboost/tmp/cc0dSt9z.ltrans1.ltrans.o
 .text.ll_idx_n2a
                0x0000000000415294       0x44 /home/notlean/openwrt-uboost/tmp/cc0dSt9z.ltrans1.ltrans.o
 .text.print_linkinfo
                0x00000000004152d8      0x458 /home/notlean/openwrt-uboost/tmp/cc0dSt9z.ltrans1.ltrans.o
 .text.xll_name_to_index
                0x0000000000415730       0x2c /home/notlean/openwrt-uboost/tmp/cc0dSt9z.ltrans1.ltrans.o
 .text.set_master
                0x000000000041575c       0x8c /home/notlean/openwrt-uboost/tmp/cc0dSt9z.ltrans1.ltrans.o
 .text.set_netns
                0x00000000004157e8       0x8c /home/notlean/openwrt-uboost/tmp/cc0dSt9z.ltrans1.ltrans.o
 .text.rtnl_a2n
                0x0000000000415874       0xb0 /home/notlean/openwrt-uboost/tmp/cc0dSt9z.ltrans1.ltrans.o
 .text.rtnl_tab_initialize
                0x0000000000415924       0xdc /home/notlean/openwrt-uboost/tmp/cc0dSt9z.ltrans1.ltrans.o
 .text.rtnl_rtprot_initialize
                0x0000000000415a00       0x80 /home/notlean/openwrt-uboost/tmp/cc0dSt9z.ltrans1.ltrans.o
 .text.rtnl_rtscope_initialize
                0x0000000000415a80       0x74 /home/notlean/openwrt-uboost/tmp/cc0dSt9z.ltrans1.ltrans.o
 .text.rtnl_rtscope_a2n
                0x0000000000415af4       0x34 /home/notlean/openwrt-uboost/tmp/cc0dSt9z.ltrans1.ltrans.o
 .text.rtnl_rtrealm_initialize
                0x0000000000415b28       0x44 /home/notlean/openwrt-uboost/tmp/cc0dSt9z.ltrans1.ltrans.o
 .text.rtnl_rtrealm_n2a
                0x0000000000415b6c       0x40 /home/notlean/openwrt-uboost/tmp/cc0dSt9z.ltrans1.ltrans.o
 .text.rtnl_rtdsfield_initialize
                0x0000000000415bac       0x44 /home/notlean/openwrt-uboost/tmp/cc0dSt9z.ltrans1.ltrans.o
 .text.rtnl_rttable_initialize
                0x0000000000415bf0       0x68 /home/notlean/openwrt-uboost/tmp/cc0dSt9z.ltrans1.ltrans.o
 .text.rtnl_rttable_n2a
                0x0000000000415c58       0x40 /home/notlean/openwrt-uboost/tmp/cc0dSt9z.ltrans1.ltrans.o
 .text.rtnl_rttable_a2n
                0x0000000000415c98       0x34 /home/notlean/openwrt-uboost/tmp/cc0dSt9z.ltrans1.ltrans.o
 .text.rt_addr_n2a
                0x0000000000415ccc       0x58 /home/notlean/openwrt-uboost/tmp/cc0dSt9z.ltrans1.ltrans.o
 .text.print_addrinfo
                0x0000000000415d24      0x528 /home/notlean/openwrt-uboost/tmp/cc0dSt9z.ltrans1.ltrans.o
 .text.print_neigh
                0x000000000041624c      0x410 /home/notlean/openwrt-uboost/tmp/cc0dSt9z.ltrans1.ltrans.o
 .text.print_route
                0x000000000041665c      0x758 /home/notlean/openwrt-uboost/tmp/cc0dSt9z.ltrans1.ltrans.o
 .text.print_rule
                0x0000000000416db4      0x318 /home/notlean/openwrt-uboost/tmp/cc0dSt9z.ltrans1.ltrans.o
 .text.unpack_tail.lto_priv.0
                0x00000000004170cc      0x138 /home/notlean/openwrt-uboost/tmp/cc0dSt9z.ltrans1.ltrans.o
                0x00000000004170cc                unpack_tail.lto_priv.0
 .text.bb_displayroutes
                0x0000000000417204      0x214 /home/notlean/openwrt-uboost/tmp/cc0dSt9z.ltrans1.ltrans.o
                0x0000000000417204                bb_displayroutes
 .text.route_main
                0x0000000000417418      0x138 /home/notlean/openwrt-uboost/tmp/cc0dSt9z.ltrans1.ltrans.o
                0x0000000000417418                route_main
 .text.xrtnl_wilddump_request
                0x0000000000417550       0x44 /home/notlean/openwrt-uboost/tmp/cc0dSt9z.ltrans1.ltrans.o
                0x0000000000417550                xrtnl_wilddump_request
 .text.xrtnl_dump_filter
                0x0000000000417594      0x204 /home/notlean/openwrt-uboost/tmp/cc0dSt9z.ltrans1.ltrans.o
                0x0000000000417594                xrtnl_dump_filter
 .text.get_addr_1
                0x0000000000417798      0x14c /home/notlean/openwrt-uboost/tmp/cc0dSt9z.ltrans1.ltrans.o
                0x0000000000417798                get_addr_1
 .text.ll_addr_a2n
                0x00000000004178e4      0x11c /home/notlean/openwrt-uboost/tmp/cc0dSt9z.ltrans1.ltrans.o
 .text.get_prefix
                0x0000000000417a00      0x1c4 /home/notlean/openwrt-uboost/tmp/cc0dSt9z.ltrans1.ltrans.o
 .text.ipneigh_list_or_flush
                0x0000000000417bc4      0x39c /home/notlean/openwrt-uboost/tmp/cc0dSt9z.ltrans1.ltrans.o
 .text.iproute_get
                0x0000000000417f60      0x338 /home/notlean/openwrt-uboost/tmp/cc0dSt9z.ltrans1.ltrans.o
 .text.invarg_1_to_2
                0x0000000000418298       0x18 /home/notlean/openwrt-uboost/tmp/cc0dSt9z.ltrans1.ltrans.o
                0x0000000000418298                invarg_1_to_2
 .text.ipaddr_list_or_flush
                0x00000000004182b0      0x4e0 /home/notlean/openwrt-uboost/tmp/cc0dSt9z.ltrans1.ltrans.o
 .text.do_ipneigh
                0x0000000000418790       0x50 /home/notlean/openwrt-uboost/tmp/cc0dSt9z.ltrans1.ltrans.o
                0x0000000000418790                do_ipneigh
 .text.iproute_list_or_flush
                0x00000000004187e0      0x558 /home/notlean/openwrt-uboost/tmp/cc0dSt9z.ltrans1.ltrans.o
 .text.get_unsigned
                0x0000000000418d38       0x54 /home/notlean/openwrt-uboost/tmp/cc0dSt9z.ltrans1.ltrans.o
 .text.ipaddr_modify
                0x0000000000418d8c      0x640 /home/notlean/openwrt-uboost/tmp/cc0dSt9z.ltrans1.ltrans.o
 .text.do_ipaddr
                0x00000000004193cc       0x94 /home/notlean/openwrt-uboost/tmp/cc0dSt9z.ltrans1.ltrans.o
                0x00000000004193cc                do_ipaddr
 .text.do_add_or_delete
                0x0000000000419460      0x5d4 /home/notlean/openwrt-uboost/tmp/cc0dSt9z.ltrans1.ltrans.o
 .text.iprule_modify
                0x0000000000419a34      0x4bc /home/notlean/openwrt-uboost/tmp/cc0dSt9z.ltrans1.ltrans.o
 .text.do_iprule
                0x0000000000419ef0       0xb8 /home/notlean/openwrt-uboost/tmp/cc0dSt9z.ltrans1.ltrans.o
                0x0000000000419ef0                do_iprule
 .text.do_iplink
                0x0000000000419fa8      0x65c /home/notlean/openwrt-uboost/tmp/cc0dSt9z.ltrans1.ltrans.o
                0x0000000000419fa8                do_iplink
 .text.iproute_modify
                0x000000000041a604      0x4e8 /home/notlean/openwrt-uboost/tmp/cc0dSt9z.ltrans1.ltrans.o
 .text.do_iproute
                0x000000000041aaec       0xd4 /home/notlean/openwrt-uboost/tmp/cc0dSt9z.ltrans1.ltrans.o
                0x000000000041aaec                do_iproute
 .text.mem_sort
                0x000000000041abc0       0x18 /home/notlean/openwrt-uboost/tmp/cc0dSt9z.ltrans2.ltrans.o
 .text.pcpu_sort
                0x000000000041abd8       0x10 /home/notlean/openwrt-uboost/tmp/cc0dSt9z.ltrans2.ltrans.o
 .text.time_sort
                0x000000000041abe8       0x18 /home/notlean/openwrt-uboost/tmp/cc0dSt9z.ltrans2.ltrans.o
 .text.mult_lvl_cmp
                0x000000000041ac00       0x64 /home/notlean/openwrt-uboost/tmp/cc0dSt9z.ltrans2.ltrans.o
 .text.prefix.lto_priv.0
                0x000000000041ac64       0x30 /home/notlean/openwrt-uboost/tmp/cc0dSt9z.ltrans2.ltrans.o
                0x000000000041ac64                prefix.lto_priv.0
 .text.set_curjob
                0x000000000041ac94       0x6c /home/notlean/openwrt-uboost/tmp/cc0dSt9z.ltrans2.ltrans.o
 .text.getstatus
                0x000000000041ad00       0x8c /home/notlean/openwrt-uboost/tmp/cc0dSt9z.ltrans2.ltrans.o
 .text.skiploop
                0x000000000041ad8c       0x3c /home/notlean/openwrt-uboost/tmp/cc0dSt9z.ltrans2.ltrans.o
 .text.clearmems
                0x000000000041adc8       0x50 /home/notlean/openwrt-uboost/tmp/cc0dSt9z.ltrans2.ltrans.o
 .text.freealias
                0x000000000041ae18       0x4c /home/notlean/openwrt-uboost/tmp/cc0dSt9z.ltrans2.ltrans.o
 .text.optitem_unset_env_and_free
                0x000000000041ae64       0x40 /home/notlean/openwrt-uboost/tmp/cc0dSt9z.ltrans2.ltrans.o
 .text.putenvp  0x000000000041aea4       0x30 /home/notlean/openwrt-uboost/tmp/cc0dSt9z.ltrans2.ltrans.o
 .text.udhcp_scan_options
                0x000000000041aed4      0x10c /home/notlean/openwrt-uboost/tmp/cc0dSt9z.ltrans2.ltrans.o
 .text.udhcp_get_option
                0x000000000041afe0       0x4c /home/notlean/openwrt-uboost/tmp/cc0dSt9z.ltrans2.ltrans.o
 .text.udhcp_get_option32
                0x000000000041b02c       0x20 /home/notlean/openwrt-uboost/tmp/cc0dSt9z.ltrans2.ltrans.o
 .text.d4_recv_raw_packet
                0x000000000041b04c      0x240 /home/notlean/openwrt-uboost/tmp/cc0dSt9z.ltrans2.ltrans.o
 .text.change_listen_mode
                0x000000000041b28c      0x170 /home/notlean/openwrt-uboost/tmp/cc0dSt9z.ltrans2.ltrans.o
 .text.calcsize
                0x000000000041b3fc      0x130 /home/notlean/openwrt-uboost/tmp/cc0dSt9z.ltrans2.ltrans.o
 .text.nodeckstrdup
                0x000000000041b52c       0x44 /home/notlean/openwrt-uboost/tmp/cc0dSt9z.ltrans2.ltrans.o
 .text.copynode
                0x000000000041b570      0x138 /home/notlean/openwrt-uboost/tmp/cc0dSt9z.ltrans2.ltrans.o
 .text.copynodelist
                0x000000000041b6a8       0x5c /home/notlean/openwrt-uboost/tmp/cc0dSt9z.ltrans2.ltrans.o
 .text.client_background
                0x000000000041b704       0x2c /home/notlean/openwrt-uboost/tmp/cc0dSt9z.ltrans2.ltrans.o
 .text.signal_handler.lto_priv.0
                0x000000000041b730       0x4c /home/notlean/openwrt-uboost/tmp/cc0dSt9z.ltrans2.ltrans.o
 .text.udhcp_str2nip
                0x000000000041b77c       0x6c /home/notlean/openwrt-uboost/tmp/cc0dSt9z.ltrans2.ltrans.o
 .text.read_cpu_jiffy
                0x000000000041b7e8       0xdc /home/notlean/openwrt-uboost/tmp/cc0dSt9z.ltrans2.ltrans.o
 .text.parse_meminfo.lto_priv.0
                0x000000000041b8c4       0xdc /home/notlean/openwrt-uboost/tmp/cc0dSt9z.ltrans2.ltrans.o
 .text.free_main
                0x000000000041b9a0      0x1e0 /home/notlean/openwrt-uboost/tmp/cc0dSt9z.ltrans2.ltrans.o
                0x000000000041b9a0                free_main
 .text.kill_main
                0x000000000041bb80      0x3b0 /home/notlean/openwrt-uboost/tmp/cc0dSt9z.ltrans2.ltrans.o
                0x000000000041bb80                kill_main
 .text.pgrep_main
                0x000000000041bf30      0x318 /home/notlean/openwrt-uboost/tmp/cc0dSt9z.ltrans2.ltrans.o
                0x000000000041bf30                pgrep_main
 .text.pidof_main
                0x000000000041c248       0xe8 /home/notlean/openwrt-uboost/tmp/cc0dSt9z.ltrans2.ltrans.o
                0x000000000041c248                pidof_main
 .text.ps_main  0x000000000041c330      0x16c /home/notlean/openwrt-uboost/tmp/cc0dSt9z.ltrans2.ltrans.o
                0x000000000041c330                ps_main
 .text.sysctl_dots_to_slashes
                0x000000000041c49c       0xf4 /home/notlean/openwrt-uboost/tmp/cc0dSt9z.ltrans2.ltrans.o
 .text.sysctl_act_on_setting
                0x000000000041c590      0x248 /home/notlean/openwrt-uboost/tmp/cc0dSt9z.ltrans2.ltrans.o
 .text.sysctl_act_recursive
                0x000000000041c7d8       0xf0 /home/notlean/openwrt-uboost/tmp/cc0dSt9z.ltrans2.ltrans.o
 .text.sysctl_main
                0x000000000041c8c8      0x1b0 /home/notlean/openwrt-uboost/tmp/cc0dSt9z.ltrans2.ltrans.o
                0x000000000041c8c8                sysctl_main
 .text.do_stats
                0x000000000041ca78      0x130 /home/notlean/openwrt-uboost/tmp/cc0dSt9z.ltrans2.ltrans.o
 .text.display_process_list
                0x000000000041cba8      0x4f4 /home/notlean/openwrt-uboost/tmp/cc0dSt9z.ltrans2.ltrans.o
 .text.top_main
                0x000000000041d09c      0x2d0 /home/notlean/openwrt-uboost/tmp/cc0dSt9z.ltrans2.ltrans.o
                0x000000000041d09c                top_main
 .text.uptime_main
                0x000000000041d36c      0x160 /home/notlean/openwrt-uboost/tmp/cc0dSt9z.ltrans2.ltrans.o
                0x000000000041d36c                uptime_main
 .text.ignoresig
                0x000000000041d4cc       0x50 /home/notlean/openwrt-uboost/tmp/cc0dSt9z.ltrans2.ltrans.o
 .text.msort    0x000000000041d51c       0xc4 /home/notlean/openwrt-uboost/tmp/cc0dSt9z.ltrans2.ltrans.o
 .text.pstrcmp  0x000000000041d5e0        0x8 /home/notlean/openwrt-uboost/tmp/cc0dSt9z.ltrans2.ltrans.o
 .text.dup_CLOEXEC
                0x000000000041d5e8       0x4c /home/notlean/openwrt-uboost/tmp/cc0dSt9z.ltrans2.ltrans.o
 .text.scanleft
                0x000000000041d634       0x8c /home/notlean/openwrt-uboost/tmp/cc0dSt9z.ltrans2.ltrans.o
 .text.scanright
                0x000000000041d6c0      0x138 /home/notlean/openwrt-uboost/tmp/cc0dSt9z.ltrans2.ltrans.o
 .text.tryexec  0x000000000041d7f8       0x7c /home/notlean/openwrt-uboost/tmp/cc0dSt9z.ltrans2.ltrans.o
 .text.dotrap   0x000000000041d874       0xf0 /home/notlean/openwrt-uboost/tmp/cc0dSt9z.ltrans2.ltrans.o
 .text.sprint_nip.lto_priv.0
                0x000000000041d964       0x20 /home/notlean/openwrt-uboost/tmp/cc0dSt9z.ltrans2.ltrans.o
                0x000000000041d964                sprint_nip.lto_priv.0
 .text.d4_run_script
                0x000000000041d984      0x378 /home/notlean/openwrt-uboost/tmp/cc0dSt9z.ltrans2.ltrans.o
 .text.d4_run_script_deconfig
                0x000000000041dcfc       0x10 /home/notlean/openwrt-uboost/tmp/cc0dSt9z.ltrans2.ltrans.o
 .text.raw_bcast_from_client_data_ifindex.lto_priv.0
                0x000000000041dd0c        0xc /home/notlean/openwrt-uboost/tmp/cc0dSt9z.ltrans2.ltrans.o
                0x000000000041dd0c                raw_bcast_from_client_data_ifindex.lto_priv.0
 .text.dname_dec
                0x000000000041dd18      0x15c /home/notlean/openwrt-uboost/tmp/cc0dSt9z.ltrans2.ltrans.o
                0x000000000041dd18                dname_dec
 .text.udhcp_end_option
                0x000000000041de74       0x38 /home/notlean/openwrt-uboost/tmp/cc0dSt9z.ltrans2.ltrans.o
                0x000000000041de74                udhcp_end_option
 .text.bcast_or_ucast
                0x000000000041deac      0x1c4 /home/notlean/openwrt-uboost/tmp/cc0dSt9z.ltrans2.ltrans.o
 .text.udhcp_add_binary_option
                0x000000000041e070       0x94 /home/notlean/openwrt-uboost/tmp/cc0dSt9z.ltrans2.ltrans.o
 .text.udhcp_add_simple_option
                0x000000000041e104       0x94 /home/notlean/openwrt-uboost/tmp/cc0dSt9z.ltrans2.ltrans.o
                0x000000000041e104                udhcp_add_simple_option
 .text.init_packet.lto_priv.0
                0x000000000041e198      0x108 /home/notlean/openwrt-uboost/tmp/cc0dSt9z.ltrans2.ltrans.o
                0x000000000041e198                init_packet.lto_priv.0
 .text.add_client_options.lto_priv.0
                0x000000000041e2a0       0xe0 /home/notlean/openwrt-uboost/tmp/cc0dSt9z.ltrans2.ltrans.o
                0x000000000041e2a0                add_client_options.lto_priv.0
 .text.send_renew
                0x000000000041e380       0xa4 /home/notlean/openwrt-uboost/tmp/cc0dSt9z.ltrans2.ltrans.o
 .text.udhcp_find_option
                0x000000000041e424       0x28 /home/notlean/openwrt-uboost/tmp/cc0dSt9z.ltrans2.ltrans.o
                0x000000000041e424                udhcp_find_option
 .text.perform_release
                0x000000000041e44c      0x140 /home/notlean/openwrt-uboost/tmp/cc0dSt9z.ltrans2.ltrans.o
 .text.udhcpc_main
                0x000000000041e58c      0xdc0 /home/notlean/openwrt-uboost/tmp/cc0dSt9z.ltrans2.ltrans.o
                0x000000000041e58c                udhcpc_main
 .text.isdigit_str9.lto_priv.0
                0x000000000041f34c       0x34 /home/notlean/openwrt-uboost/tmp/cc0dSt9z.ltrans2.ltrans.o
                0x000000000041f34c                isdigit_str9.lto_priv.0
 .text.raise_exception.lto_priv.0
                0x000000000041f380       0x2c /home/notlean/openwrt-uboost/tmp/cc0dSt9z.ltrans2.ltrans.o
                0x000000000041f380                raise_exception.lto_priv.0
 .text.raise_interrupt.lto_priv.0
                0x000000000041f3ac       0x5c /home/notlean/openwrt-uboost/tmp/cc0dSt9z.ltrans2.ltrans.o
                0x000000000041f3ac                raise_interrupt.lto_priv.0
 .text.signal_handler.lto_priv.1
                0x000000000041f408       0x80 /home/notlean/openwrt-uboost/tmp/cc0dSt9z.ltrans2.ltrans.o
 .text.int_on.lto_priv.0
                0x000000000041f488       0x2c /home/notlean/openwrt-uboost/tmp/cc0dSt9z.ltrans2.ltrans.o
                0x000000000041f488                int_on.lto_priv.0
 .text.fmtstr   0x000000000041f4b4       0x9c /home/notlean/openwrt-uboost/tmp/cc0dSt9z.ltrans2.ltrans.o
 .text.sprint_status48
                0x000000000041f550       0xd4 /home/notlean/openwrt-uboost/tmp/cc0dSt9z.ltrans2.ltrans.o
 .text.out1str  0x000000000041f624       0x2c /home/notlean/openwrt-uboost/tmp/cc0dSt9z.ltrans2.ltrans.o
 .text.freejob  0x000000000041f650       0x8c /home/notlean/openwrt-uboost/tmp/cc0dSt9z.ltrans2.ltrans.o
 .text.recordregion
                0x000000000041f6dc       0x78 /home/notlean/openwrt-uboost/tmp/cc0dSt9z.ltrans2.ltrans.o
 .text.removerecordregions
                0x000000000041f754      0x110 /home/notlean/openwrt-uboost/tmp/cc0dSt9z.ltrans2.ltrans.o
 .text.clearcmdentry
                0x000000000041f864       0xa4 /home/notlean/openwrt-uboost/tmp/cc0dSt9z.ltrans2.ltrans.o
 .text.changepath.lto_priv.0
                0x000000000041f908       0x68 /home/notlean/openwrt-uboost/tmp/cc0dSt9z.ltrans2.ltrans.o
                0x000000000041f908                changepath.lto_priv.0
 .text.force_int_on.lto_priv.0
                0x000000000041f970       0x20 /home/notlean/openwrt-uboost/tmp/cc0dSt9z.ltrans2.ltrans.o
                0x000000000041f970                force_int_on.lto_priv.0
 .text.flush_stdout_stderr.lto_priv.0
                0x000000000041f990       0x24 /home/notlean/openwrt-uboost/tmp/cc0dSt9z.ltrans2.ltrans.o
                0x000000000041f990                flush_stdout_stderr.lto_priv.0
 .text.newline_and_flush.lto_priv.0
                0x000000000041f9b4       0x38 /home/notlean/openwrt-uboost/tmp/cc0dSt9z.ltrans2.ltrans.o
                0x000000000041f9b4                newline_and_flush.lto_priv.0
 .text.showjob  0x000000000041f9ec      0x238 /home/notlean/openwrt-uboost/tmp/cc0dSt9z.ltrans2.ltrans.o
 .text.out1fmt.lto_priv.0
                0x000000000041fc24       0x8c /home/notlean/openwrt-uboost/tmp/cc0dSt9z.ltrans2.ltrans.o
                0x000000000041fc24                out1fmt.lto_priv.0
 .text.out2str.lto_priv.0
                0x000000000041fcb0       0x30 /home/notlean/openwrt-uboost/tmp/cc0dSt9z.ltrans2.ltrans.o
                0x000000000041fcb0                out2str.lto_priv.0
 .text.dowait   0x000000000041fce0      0x2c0 /home/notlean/openwrt-uboost/tmp/cc0dSt9z.ltrans2.ltrans.o
 .text.freefunc.lto_priv.0
                0x000000000041ffa0       0x1c /home/notlean/openwrt-uboost/tmp/cc0dSt9z.ltrans2.ltrans.o
                0x000000000041ffa0                freefunc.lto_priv.0
 .text.ash_vmsg.lto_priv.0
                0x000000000041ffbc       0xcc /home/notlean/openwrt-uboost/tmp/cc0dSt9z.ltrans2.ltrans.o
                0x000000000041ffbc                ash_vmsg.lto_priv.0
 .text.ash_msg_and_raise_error.lto_priv.0
                0x0000000000420088       0x88 /home/notlean/openwrt-uboost/tmp/cc0dSt9z.ltrans2.ltrans.o
                0x0000000000420088                ash_msg_and_raise_error.lto_priv.0
 .text.xtcsetpgrp
                0x0000000000420110       0x20 /home/notlean/openwrt-uboost/tmp/cc0dSt9z.ltrans2.ltrans.o
 .text.xdup_CLOEXEC_and_close
                0x0000000000420130       0x80 /home/notlean/openwrt-uboost/tmp/cc0dSt9z.ltrans2.ltrans.o
 .text.raise_error_syntax.lto_priv.0
                0x00000000004201b0       0x2c /home/notlean/openwrt-uboost/tmp/cc0dSt9z.ltrans2.ltrans.o
                0x00000000004201b0                raise_error_syntax.lto_priv.0
 .text.ash_msg.lto_priv.0
                0x00000000004201dc       0x74 /home/notlean/openwrt-uboost/tmp/cc0dSt9z.ltrans2.ltrans.o
                0x00000000004201dc                ash_msg.lto_priv.0
 .text.errmsg.lto_priv.0
                0x0000000000420250       0x18 /home/notlean/openwrt-uboost/tmp/cc0dSt9z.ltrans2.ltrans.o
                0x0000000000420250                errmsg.lto_priv.0
 .text.stalloc.lto_priv.0
                0x0000000000420268       0xb4 /home/notlean/openwrt-uboost/tmp/cc0dSt9z.ltrans2.ltrans.o
                0x0000000000420268                stalloc.lto_priv.0
 .text.pushstackmark
                0x000000000042031c       0x2c /home/notlean/openwrt-uboost/tmp/cc0dSt9z.ltrans2.ltrans.o
 .text.growstackblock
                0x0000000000420348      0x114 /home/notlean/openwrt-uboost/tmp/cc0dSt9z.ltrans2.ltrans.o
 .text.stzalloc.lto_priv.0
                0x000000000042045c       0x1c /home/notlean/openwrt-uboost/tmp/cc0dSt9z.ltrans2.ltrans.o
                0x000000000042045c                stzalloc.lto_priv.0
 .text.sstrdup.lto_priv.0
                0x0000000000420478       0x58 /home/notlean/openwrt-uboost/tmp/cc0dSt9z.ltrans2.ltrans.o
                0x0000000000420478                sstrdup.lto_priv.0
 .text.addfname
                0x00000000004204d0       0x44 /home/notlean/openwrt-uboost/tmp/cc0dSt9z.ltrans2.ltrans.o
 .text.expmeta  0x0000000000420514      0x304 /home/notlean/openwrt-uboost/tmp/cc0dSt9z.ltrans2.ltrans.o
 .text.setstackmark.lto_priv.0
                0x0000000000420818       0x30 /home/notlean/openwrt-uboost/tmp/cc0dSt9z.ltrans2.ltrans.o
                0x0000000000420818                setstackmark.lto_priv.0
 .text.popstackmark.lto_priv.0
                0x0000000000420848       0x7c /home/notlean/openwrt-uboost/tmp/cc0dSt9z.ltrans2.ltrans.o
                0x0000000000420848                popstackmark.lto_priv.0
 .text.growstackstr.lto_priv.0
                0x00000000004208c4       0x30 /home/notlean/openwrt-uboost/tmp/cc0dSt9z.ltrans2.ltrans.o
                0x00000000004208c4                growstackstr.lto_priv.0
 .text.growstackto.lto_priv.0
                0x00000000004208f4       0x28 /home/notlean/openwrt-uboost/tmp/cc0dSt9z.ltrans2.ltrans.o
                0x00000000004208f4                growstackto.lto_priv.0
 .text.makestrspace.lto_priv.0
                0x000000000042091c       0x28 /home/notlean/openwrt-uboost/tmp/cc0dSt9z.ltrans2.ltrans.o
                0x000000000042091c                makestrspace.lto_priv.0
 .text.cmdputs  0x0000000000420944      0x1f0 /home/notlean/openwrt-uboost/tmp/cc0dSt9z.ltrans2.ltrans.o
 .text.cmdtxt   0x0000000000420b34      0x35c /home/notlean/openwrt-uboost/tmp/cc0dSt9z.ltrans2.ltrans.o
 .text.memtodest
                0x0000000000420e90       0xc8 /home/notlean/openwrt-uboost/tmp/cc0dSt9z.ltrans2.ltrans.o
 .text.strtodest
                0x0000000000420f58       0x38 /home/notlean/openwrt-uboost/tmp/cc0dSt9z.ltrans2.ltrans.o
 .text.cvtnum   0x0000000000420f90       0x38 /home/notlean/openwrt-uboost/tmp/cc0dSt9z.ltrans2.ltrans.o
 .text.stack_putstr.lto_priv.0
                0x0000000000420fc8       0x34 /home/notlean/openwrt-uboost/tmp/cc0dSt9z.ltrans2.ltrans.o
                0x0000000000420fc8                stack_putstr.lto_priv.0
 .text._STPUTC.lto_priv.0
                0x0000000000420ffc       0x30 /home/notlean/openwrt-uboost/tmp/cc0dSt9z.ltrans2.ltrans.o
                0x0000000000420ffc                _STPUTC.lto_priv.0
 .text.is_number.lto_priv.0
                0x000000000042102c       0x2c /home/notlean/openwrt-uboost/tmp/cc0dSt9z.ltrans2.ltrans.o
                0x000000000042102c                is_number.lto_priv.0
 .text.getjob   0x0000000000421058      0x174 /home/notlean/openwrt-uboost/tmp/cc0dSt9z.ltrans2.ltrans.o
 .text.killcmd.lto_priv.0
                0x00000000004211cc      0x14c /home/notlean/openwrt-uboost/tmp/cc0dSt9z.ltrans2.ltrans.o
                0x00000000004211cc                killcmd.lto_priv.0
 .text.number.lto_priv.0
                0x0000000000421318       0x2c /home/notlean/openwrt-uboost/tmp/cc0dSt9z.ltrans2.ltrans.o
                0x0000000000421318                number.lto_priv.0
 .text.getoptsreset.lto_priv.0
                0x0000000000421344       0x4c /home/notlean/openwrt-uboost/tmp/cc0dSt9z.ltrans2.ltrans.o
                0x0000000000421344                getoptsreset.lto_priv.0
 .text.single_quote.lto_priv.0
                0x0000000000421390       0xdc /home/notlean/openwrt-uboost/tmp/cc0dSt9z.ltrans2.ltrans.o
                0x0000000000421390                single_quote.lto_priv.0
 .text.printalias
                0x000000000042146c       0x24 /home/notlean/openwrt-uboost/tmp/cc0dSt9z.ltrans2.ltrans.o
 .text.maybe_single_quote.lto_priv.0
                0x0000000000421490       0x4c /home/notlean/openwrt-uboost/tmp/cc0dSt9z.ltrans2.ltrans.o
                0x0000000000421490                maybe_single_quote.lto_priv.0
 .text.nextopt.lto_priv.0
                0x00000000004214dc       0xf4 /home/notlean/openwrt-uboost/tmp/cc0dSt9z.ltrans2.ltrans.o
                0x00000000004214dc                nextopt.lto_priv.0
 .text.cdopt    0x00000000004215d0       0x48 /home/notlean/openwrt-uboost/tmp/cc0dSt9z.ltrans2.ltrans.o
 .text.waitcmd.lto_priv.0
                0x0000000000421618      0x1a0 /home/notlean/openwrt-uboost/tmp/cc0dSt9z.ltrans2.ltrans.o
                0x0000000000421618                waitcmd.lto_priv.0
 .text.freeparam.lto_priv.0
                0x00000000004217b8       0x44 /home/notlean/openwrt-uboost/tmp/cc0dSt9z.ltrans2.ltrans.o
                0x00000000004217b8                freeparam.lto_priv.0
 .text.varcmp.lto_priv.0
                0x00000000004217fc       0x40 /home/notlean/openwrt-uboost/tmp/cc0dSt9z.ltrans2.ltrans.o
                0x00000000004217fc                varcmp.lto_priv.0
 .text.vpcmp.lto_priv.0
                0x000000000042183c        0xc /home/notlean/openwrt-uboost/tmp/cc0dSt9z.ltrans2.ltrans.o
                0x000000000042183c                vpcmp.lto_priv.0
 .text.hashvar.lto_priv.0
                0x0000000000421848       0x44 /home/notlean/openwrt-uboost/tmp/cc0dSt9z.ltrans2.ltrans.o
                0x0000000000421848                hashvar.lto_priv.0
 .text.findvar.lto_priv.0
                0x000000000042188c       0x38 /home/notlean/openwrt-uboost/tmp/cc0dSt9z.ltrans2.ltrans.o
                0x000000000042188c                findvar.lto_priv.0
 .text.lookupvar.lto_priv.0
                0x00000000004218c4       0xbc /home/notlean/openwrt-uboost/tmp/cc0dSt9z.ltrans2.ltrans.o
                0x00000000004218c4                lookupvar.lto_priv.0
 .text.setvareq.lto_priv.0
                0x0000000000421980      0x198 /home/notlean/openwrt-uboost/tmp/cc0dSt9z.ltrans2.ltrans.o
                0x0000000000421980                setvareq.lto_priv.0
 .text.setvar.lto_priv.0
                0x0000000000421b18      0x104 /home/notlean/openwrt-uboost/tmp/cc0dSt9z.ltrans2.ltrans.o
                0x0000000000421b18                setvar.lto_priv.0
 .text.setvar0.lto_priv.0
                0x0000000000421c1c        0x8 /home/notlean/openwrt-uboost/tmp/cc0dSt9z.ltrans2.ltrans.o
                0x0000000000421c1c                setvar0.lto_priv.0
 .text.unsetvar.lto_priv.0
                0x0000000000421c24        0xc /home/notlean/openwrt-uboost/tmp/cc0dSt9z.ltrans2.ltrans.o
                0x0000000000421c24                unsetvar.lto_priv.0
 .text.padvance.lto_priv.0
                0x0000000000421c30      0x148 /home/notlean/openwrt-uboost/tmp/cc0dSt9z.ltrans2.ltrans.o
                0x0000000000421c30                padvance.lto_priv.0
 .text.setprompt_if.lto_priv.0
                0x0000000000421d78       0xa8 /home/notlean/openwrt-uboost/tmp/cc0dSt9z.ltrans2.ltrans.o
                0x0000000000421d78                setprompt_if.lto_priv.0
 .text.setpwd.lto_priv.0
                0x0000000000421e20       0xf0 /home/notlean/openwrt-uboost/tmp/cc0dSt9z.ltrans2.ltrans.o
                0x0000000000421e20                setpwd.lto_priv.0
 .text.cdcmd.lto_priv.0
                0x0000000000421f10      0x3bc /home/notlean/openwrt-uboost/tmp/cc0dSt9z.ltrans2.ltrans.o
                0x0000000000421f10                cdcmd.lto_priv.0
 .text.pwdcmd.lto_priv.0
                0x00000000004222cc       0x5c /home/notlean/openwrt-uboost/tmp/cc0dSt9z.ltrans2.ltrans.o
                0x00000000004222cc                pwdcmd.lto_priv.0
 .text.__lookupalias.lto_priv.0
                0x0000000000422328       0x70 /home/notlean/openwrt-uboost/tmp/cc0dSt9z.ltrans2.ltrans.o
                0x0000000000422328                __lookupalias.lto_priv.0
 .text.aliascmd.lto_priv.0
                0x0000000000422398      0x164 /home/notlean/openwrt-uboost/tmp/cc0dSt9z.ltrans2.ltrans.o
                0x0000000000422398                aliascmd.lto_priv.0
 .text.unalias.lto_priv.0
                0x00000000004224fc       0x4c /home/notlean/openwrt-uboost/tmp/cc0dSt9z.ltrans2.ltrans.o
                0x00000000004224fc                unalias.lto_priv.0
 .text.unaliascmd.lto_priv.0
                0x0000000000422548       0xe8 /home/notlean/openwrt-uboost/tmp/cc0dSt9z.ltrans2.ltrans.o
                0x0000000000422548                unaliascmd.lto_priv.0
 .text.setsignal.lto_priv.0
                0x0000000000422630      0x1c0 /home/notlean/openwrt-uboost/tmp/cc0dSt9z.ltrans2.ltrans.o
                0x0000000000422630                setsignal.lto_priv.0
 .text.forkchild
                0x00000000004227f0      0x298 /home/notlean/openwrt-uboost/tmp/cc0dSt9z.ltrans2.ltrans.o
 .text.setjobctl.lto_priv.0
                0x0000000000422a88      0x1a0 /home/notlean/openwrt-uboost/tmp/cc0dSt9z.ltrans2.ltrans.o
                0x0000000000422a88                setjobctl.lto_priv.0
 .text.showjobs.lto_priv.0
                0x0000000000422c28       0x54 /home/notlean/openwrt-uboost/tmp/cc0dSt9z.ltrans2.ltrans.o
                0x0000000000422c28                showjobs.lto_priv.0
 .text.jobscmd.lto_priv.0
                0x0000000000422c7c       0x7c /home/notlean/openwrt-uboost/tmp/cc0dSt9z.ltrans2.ltrans.o
                0x0000000000422c7c                jobscmd.lto_priv.0
 .text.makejob.lto_priv.0
                0x0000000000422cf8      0x194 /home/notlean/openwrt-uboost/tmp/cc0dSt9z.ltrans2.ltrans.o
                0x0000000000422cf8                makejob.lto_priv.0
 .text.forkshell.lto_priv.0
                0x0000000000422e8c      0x130 /home/notlean/openwrt-uboost/tmp/cc0dSt9z.ltrans2.ltrans.o
                0x0000000000422e8c                forkshell.lto_priv.0
 .text.waitforjob.lto_priv.0
                0x0000000000422fbc       0x90 /home/notlean/openwrt-uboost/tmp/cc0dSt9z.ltrans2.ltrans.o
                0x0000000000422fbc                waitforjob.lto_priv.0
 .text.fg_bgcmd.lto_priv.0
                0x000000000042304c      0x194 /home/notlean/openwrt-uboost/tmp/cc0dSt9z.ltrans2.ltrans.o
                0x000000000042304c                fg_bgcmd.lto_priv.0
 .text.stoppedjobs.lto_priv.0
                0x00000000004231e0       0x68 /home/notlean/openwrt-uboost/tmp/cc0dSt9z.ltrans2.ltrans.o
                0x00000000004231e0                stoppedjobs.lto_priv.0
 .text.popredir.lto_priv.0
                0x0000000000423248       0xcc /home/notlean/openwrt-uboost/tmp/cc0dSt9z.ltrans2.ltrans.o
                0x0000000000423248                popredir.lto_priv.0
 .text.ash_arith.lto_priv.0
                0x0000000000423314       0x64 /home/notlean/openwrt-uboost/tmp/cc0dSt9z.ltrans2.ltrans.o
                0x0000000000423314                ash_arith.lto_priv.0
 .text.ifsfree.lto_priv.0
                0x0000000000423378       0x54 /home/notlean/openwrt-uboost/tmp/cc0dSt9z.ltrans2.ltrans.o
                0x0000000000423378                ifsfree.lto_priv.0
 .text.varvalue
                0x00000000004233cc      0x290 /home/notlean/openwrt-uboost/tmp/cc0dSt9z.ltrans2.ltrans.o
 .text.rmescapes.lto_priv.0
                0x000000000042365c      0x1d0 /home/notlean/openwrt-uboost/tmp/cc0dSt9z.ltrans2.ltrans.o
                0x000000000042365c                rmescapes.lto_priv.0
 .text.shellexec.lto_priv.0
                0x000000000042382c      0x128 /home/notlean/openwrt-uboost/tmp/cc0dSt9z.ltrans2.ltrans.o
                0x000000000042382c                shellexec.lto_priv.0
 .text.cmdlookup.lto_priv.0
                0x0000000000423954       0xc8 /home/notlean/openwrt-uboost/tmp/cc0dSt9z.ltrans2.ltrans.o
                0x0000000000423954                cmdlookup.lto_priv.0
 .text.delete_cmd_entry.lto_priv.0
                0x0000000000423a1c       0x50 /home/notlean/openwrt-uboost/tmp/cc0dSt9z.ltrans2.ltrans.o
                0x0000000000423a1c                delete_cmd_entry.lto_priv.0
 .text.hashcmd.lto_priv.0
                0x0000000000423a6c      0x198 /home/notlean/openwrt-uboost/tmp/cc0dSt9z.ltrans2.ltrans.o
                0x0000000000423a6c                hashcmd.lto_priv.0
 .text.findkwd.lto_priv.0
                0x0000000000423c04       0x1c /home/notlean/openwrt-uboost/tmp/cc0dSt9z.ltrans2.ltrans.o
                0x0000000000423c04                findkwd.lto_priv.0
 .text.describe_command
                0x0000000000423c20      0x1a4 /home/notlean/openwrt-uboost/tmp/cc0dSt9z.ltrans2.ltrans.o
 .text.typecmd.lto_priv.0
                0x0000000000423dc4       0x70 /home/notlean/openwrt-uboost/tmp/cc0dSt9z.ltrans2.ltrans.o
                0x0000000000423dc4                typecmd.lto_priv.0
 .text.commandcmd.lto_priv.0
                0x0000000000423e34       0x8c /home/notlean/openwrt-uboost/tmp/cc0dSt9z.ltrans2.ltrans.o
                0x0000000000423e34                commandcmd.lto_priv.0
 .text.expredir.lto_priv.0
                0x0000000000423ec0      0x124 /home/notlean/openwrt-uboost/tmp/cc0dSt9z.ltrans2.ltrans.o
                0x0000000000423ec0                expredir.lto_priv.0
 .text.evaltree.lto_priv.0
                0x0000000000423fe4      0x35c /home/notlean/openwrt-uboost/tmp/cc0dSt9z.ltrans2.ltrans.o
                0x0000000000423fe4                evaltree.lto_priv.0
 .text.argstr   0x0000000000424340      0x694 /home/notlean/openwrt-uboost/tmp/cc0dSt9z.ltrans2.ltrans.o
 .text.subevalvar
                0x00000000004249d4      0x7ec /home/notlean/openwrt-uboost/tmp/cc0dSt9z.ltrans2.ltrans.o
 .text.evalvar  0x00000000004251c0      0x240 /home/notlean/openwrt-uboost/tmp/cc0dSt9z.ltrans2.ltrans.o
 .text.expandarg.lto_priv.0
                0x0000000000425400      0x43c /home/notlean/openwrt-uboost/tmp/cc0dSt9z.ltrans2.ltrans.o
                0x0000000000425400                expandarg.lto_priv.0
 .text.redirect.lto_priv.0
                0x000000000042583c      0x4ec /home/notlean/openwrt-uboost/tmp/cc0dSt9z.ltrans2.ltrans.o
                0x000000000042583c                redirect.lto_priv.0
 .text.fill_arglist.lto_priv.0
                0x0000000000425d28       0x54 /home/notlean/openwrt-uboost/tmp/cc0dSt9z.ltrans2.ltrans.o
                0x0000000000425d28                fill_arglist.lto_priv.0
 .text.evalpipe
                0x0000000000425d7c      0x19c /home/notlean/openwrt-uboost/tmp/cc0dSt9z.ltrans2.ltrans.o
 .text.evalfor  0x0000000000425f18       0xd0 /home/notlean/openwrt-uboost/tmp/cc0dSt9z.ltrans2.ltrans.o
 .text.evalloop
                0x0000000000425fe8       0xa4 /home/notlean/openwrt-uboost/tmp/cc0dSt9z.ltrans2.ltrans.o
 .text.evalcase
                0x000000000042608c      0x140 /home/notlean/openwrt-uboost/tmp/cc0dSt9z.ltrans2.ltrans.o
 .text.evalsubshell
                0x00000000004261cc       0xd8 /home/notlean/openwrt-uboost/tmp/cc0dSt9z.ltrans2.ltrans.o
 .text.optschanged.lto_priv.0
                0x00000000004262a4       0xdc /home/notlean/openwrt-uboost/tmp/cc0dSt9z.ltrans2.ltrans.o
                0x00000000004262a4                optschanged.lto_priv.0
 .text.unwindlocalvars.lto_priv.0
                0x0000000000426380      0x144 /home/notlean/openwrt-uboost/tmp/cc0dSt9z.ltrans2.ltrans.o
                0x0000000000426380                unwindlocalvars.lto_priv.0
 .text.falsecmd.lto_priv.0
                0x00000000004264c4        0x8 /home/notlean/openwrt-uboost/tmp/cc0dSt9z.ltrans3.ltrans.o
                0x00000000004264c4                falsecmd.lto_priv.0
 .text.truecmd.lto_priv.0
                0x00000000004264cc        0x8 /home/notlean/openwrt-uboost/tmp/cc0dSt9z.ltrans3.ltrans.o
                0x00000000004264cc                truecmd.lto_priv.0
 .text.get_builtin_name.lto_priv.0
                0x00000000004264d4       0x28 /home/notlean/openwrt-uboost/tmp/cc0dSt9z.ltrans3.ltrans.o
                0x00000000004264d4                get_builtin_name.lto_priv.0
 .text.bltincmd
                0x00000000004264fc       0x10 /home/notlean/openwrt-uboost/tmp/cc0dSt9z.ltrans3.ltrans.o
 .text.nlnoprompt
                0x000000000042650c       0x38 /home/notlean/openwrt-uboost/tmp/cc0dSt9z.ltrans3.ltrans.o
 .text.pungetc  0x0000000000426544       0x18 /home/notlean/openwrt-uboost/tmp/cc0dSt9z.ltrans3.ltrans.o
 .text.evalfun  0x000000000042655c      0x1c4 /home/notlean/openwrt-uboost/tmp/cc0dSt9z.ltrans3.ltrans.o
 .text.popstring
                0x0000000000426720       0xd8 /home/notlean/openwrt-uboost/tmp/cc0dSt9z.ltrans3.ltrans.o
 .text.pushfile
                0x00000000004267f8       0x2c /home/notlean/openwrt-uboost/tmp/cc0dSt9z.ltrans3.ltrans.o
 .text.mklocal  0x0000000000426824      0x190 /home/notlean/openwrt-uboost/tmp/cc0dSt9z.ltrans3.ltrans.o
 .text.localcmd
                0x00000000004269b4       0x44 /home/notlean/openwrt-uboost/tmp/cc0dSt9z.ltrans3.ltrans.o
 .text.execcmd  0x00000000004269f8       0x90 /home/notlean/openwrt-uboost/tmp/cc0dSt9z.ltrans3.ltrans.o
 .text.returncmd
                0x0000000000426a88       0x40 /home/notlean/openwrt-uboost/tmp/cc0dSt9z.ltrans3.ltrans.o
 .text.breakcmd
                0x0000000000426ac8       0x78 /home/notlean/openwrt-uboost/tmp/cc0dSt9z.ltrans3.ltrans.o
 .text.shiftcmd
                0x0000000000426b40       0xd0 /home/notlean/openwrt-uboost/tmp/cc0dSt9z.ltrans3.ltrans.o
 .text.echocmd  0x0000000000426c10        0x4 /home/notlean/openwrt-uboost/tmp/cc0dSt9z.ltrans3.ltrans.o
 .text.printfcmd
                0x0000000000426c14        0x4 /home/notlean/openwrt-uboost/tmp/cc0dSt9z.ltrans3.ltrans.o
 .text.testcmd  0x0000000000426c18        0x4 /home/notlean/openwrt-uboost/tmp/cc0dSt9z.ltrans3.ltrans.o
 .text.pstrcmp1
                0x0000000000426c1c        0xc /home/notlean/openwrt-uboost/tmp/cc0dSt9z.ltrans3.ltrans.o
 .text.set_discard_flag
                0x0000000000426c28       0x90 /home/notlean/openwrt-uboost/tmp/cc0dSt9z.ltrans3.ltrans.o
 .text.pushstring
                0x0000000000426cb8       0xf8 /home/notlean/openwrt-uboost/tmp/cc0dSt9z.ltrans3.ltrans.o
 .text.setinputstring
                0x0000000000426db0       0x60 /home/notlean/openwrt-uboost/tmp/cc0dSt9z.ltrans3.ltrans.o
 .text.nlprompt
                0x0000000000426e10       0x34 /home/notlean/openwrt-uboost/tmp/cc0dSt9z.ltrans3.ltrans.o
 .text.freestrings
                0x0000000000426e44       0x84 /home/notlean/openwrt-uboost/tmp/cc0dSt9z.ltrans3.ltrans.o
 .text.historycmd
                0x0000000000426ec8       0x64 /home/notlean/openwrt-uboost/tmp/cc0dSt9z.ltrans3.ltrans.o
 .text.__pgetc  0x0000000000426f2c      0x8f8 /home/notlean/openwrt-uboost/tmp/cc0dSt9z.ltrans3.ltrans.o
 .text.pgetc    0x0000000000427824       0x20 /home/notlean/openwrt-uboost/tmp/cc0dSt9z.ltrans3.ltrans.o
 .text.pgetc_eatbnl
                0x0000000000427844       0x38 /home/notlean/openwrt-uboost/tmp/cc0dSt9z.ltrans3.ltrans.o
 .text.setparam
                0x000000000042787c       0x8c /home/notlean/openwrt-uboost/tmp/cc0dSt9z.ltrans3.ltrans.o
 .text.popfile  0x0000000000427908       0x98 /home/notlean/openwrt-uboost/tmp/cc0dSt9z.ltrans3.ltrans.o
 .text.setinputfile
                0x00000000004279a0       0xfc /home/notlean/openwrt-uboost/tmp/cc0dSt9z.ltrans3.ltrans.o
 .text.options  0x0000000000427a9c      0x2d0 /home/notlean/openwrt-uboost/tmp/cc0dSt9z.ltrans3.ltrans.o
 .text.showvars
                0x0000000000427d6c       0xd4 /home/notlean/openwrt-uboost/tmp/cc0dSt9z.ltrans3.ltrans.o
 .text.setcmd   0x0000000000427e40       0x64 /home/notlean/openwrt-uboost/tmp/cc0dSt9z.ltrans3.ltrans.o
 .text.exportcmd
                0x0000000000427ea4       0xe4 /home/notlean/openwrt-uboost/tmp/cc0dSt9z.ltrans3.ltrans.o
 .text.change_random
                0x0000000000427f88      0x108 /home/notlean/openwrt-uboost/tmp/cc0dSt9z.ltrans3.ltrans.o
 .text.change_epoch
                0x0000000000428090       0x6c /home/notlean/openwrt-uboost/tmp/cc0dSt9z.ltrans3.ltrans.o
 .text.change_seconds
                0x00000000004280fc       0x18 /home/notlean/openwrt-uboost/tmp/cc0dSt9z.ltrans3.ltrans.o
 .text.change_realtime
                0x0000000000428114       0x18 /home/notlean/openwrt-uboost/tmp/cc0dSt9z.ltrans3.ltrans.o
 .text.getoptscmd
                0x000000000042812c      0x308 /home/notlean/openwrt-uboost/tmp/cc0dSt9z.ltrans3.ltrans.o
 .text.tokname  0x0000000000428434       0x3c /home/notlean/openwrt-uboost/tmp/cc0dSt9z.ltrans3.ltrans.o
 .text.raise_error_unexpected_syntax
                0x0000000000428470       0x84 /home/notlean/openwrt-uboost/tmp/cc0dSt9z.ltrans3.ltrans.o
 .text.makename
                0x00000000004284f4       0x34 /home/notlean/openwrt-uboost/tmp/cc0dSt9z.ltrans3.ltrans.o
 .text.set_priority_flag
                0x0000000000428528       0x60 /home/notlean/openwrt-uboost/tmp/cc0dSt9z.ltrans3.ltrans.o
 .text.readtoken
                0x0000000000428588       0xd8 /home/notlean/openwrt-uboost/tmp/cc0dSt9z.ltrans3.ltrans.o
 .text.parsefname
                0x0000000000428660      0x120 /home/notlean/openwrt-uboost/tmp/cc0dSt9z.ltrans3.ltrans.o
 .text.readtoken1
                0x0000000000428780     0x10b0 /home/notlean/openwrt-uboost/tmp/cc0dSt9z.ltrans3.ltrans.o
 .text.xxreadtoken
                0x0000000000429830      0x124 /home/notlean/openwrt-uboost/tmp/cc0dSt9z.ltrans3.ltrans.o
 .text.parseheredoc
                0x0000000000429954       0xb0 /home/notlean/openwrt-uboost/tmp/cc0dSt9z.ltrans3.ltrans.o
 .text.list     0x0000000000429a04      0x1ec /home/notlean/openwrt-uboost/tmp/cc0dSt9z.ltrans3.ltrans.o
 .text.parse_command
                0x0000000000429bf0      0x7a8 /home/notlean/openwrt-uboost/tmp/cc0dSt9z.ltrans3.ltrans.o
 .text.pipeline
                0x000000000042a398       0xf8 /home/notlean/openwrt-uboost/tmp/cc0dSt9z.ltrans3.ltrans.o
 .text.parsecmd
                0x000000000042a490       0x40 /home/notlean/openwrt-uboost/tmp/cc0dSt9z.ltrans3.ltrans.o
 .text.exitcmd  0x000000000042a4d0       0x3c /home/notlean/openwrt-uboost/tmp/cc0dSt9z.ltrans3.ltrans.o
 .text.cmdloop  0x000000000042a50c      0x114 /home/notlean/openwrt-uboost/tmp/cc0dSt9z.ltrans3.ltrans.o
 .text.dotcmd   0x000000000042a620      0x168 /home/notlean/openwrt-uboost/tmp/cc0dSt9z.ltrans3.ltrans.o
 .text.unsetcmd
                0x000000000042a788       0x80 /home/notlean/openwrt-uboost/tmp/cc0dSt9z.ltrans3.ltrans.o
 .text.trapcmd  0x000000000042a808      0x1dc /home/notlean/openwrt-uboost/tmp/cc0dSt9z.ltrans3.ltrans.o
 .text.timescmd
                0x000000000042a9e4       0x90 /home/notlean/openwrt-uboost/tmp/cc0dSt9z.ltrans3.ltrans.o
 .text.letcmd   0x000000000042aa74       0x3c /home/notlean/openwrt-uboost/tmp/cc0dSt9z.ltrans3.ltrans.o
 .text.readcmd  0x000000000042aab0      0x694 /home/notlean/openwrt-uboost/tmp/cc0dSt9z.ltrans3.ltrans.o
 .text.umaskcmd
                0x000000000042b144      0x154 /home/notlean/openwrt-uboost/tmp/cc0dSt9z.ltrans3.ltrans.o
 .text.printlim
                0x000000000042b298       0x34 /home/notlean/openwrt-uboost/tmp/cc0dSt9z.ltrans3.ltrans.o
 .text.ulimitcmd
                0x000000000042b2cc      0x2e4 /home/notlean/openwrt-uboost/tmp/cc0dSt9z.ltrans3.ltrans.o
 .text.exitreset
                0x000000000042b5b0       0x74 /home/notlean/openwrt-uboost/tmp/cc0dSt9z.ltrans3.ltrans.o
 .text.init     0x000000000042b624      0x1c4 /home/notlean/openwrt-uboost/tmp/cc0dSt9z.ltrans3.ltrans.o
 .text.decode   0x000000000042b7e8       0x64 /home/notlean/openwrt-uboost/tmp/cc0dSt9z.ltrans3.ltrans.o
 .text.logger_main
                0x000000000042b84c      0x1e8 /home/notlean/openwrt-uboost/tmp/cc0dSt9z.ltrans3.ltrans.o
                0x000000000042b84c                logger_main
 .text.dmesg_main
                0x000000000042ba34      0x164 /home/notlean/openwrt-uboost/tmp/cc0dSt9z.ltrans3.ltrans.o
                0x000000000042ba34                dmesg_main
 .text.flock_main
                0x000000000042bb98      0x1a4 /home/notlean/openwrt-uboost/tmp/cc0dSt9z.ltrans3.ltrans.o
                0x000000000042bb98                flock_main
 .text.hexdump_main
                0x000000000042bd3c      0x258 /home/notlean/openwrt-uboost/tmp/cc0dSt9z.ltrans3.ltrans.o
                0x000000000042bd3c                hexdump_main
 .text.read_rtc
                0x000000000042bf94       0xb4 /home/notlean/openwrt-uboost/tmp/cc0dSt9z.ltrans3.ltrans.o
 .text.set_kernel_tz
                0x000000000042c048       0x2c /home/notlean/openwrt-uboost/tmp/cc0dSt9z.ltrans3.ltrans.o
 .text.set_kernel_timezone_and_clock
                0x000000000042c074       0x58 /home/notlean/openwrt-uboost/tmp/cc0dSt9z.ltrans3.ltrans.o
 .text.hwclock_main
                0x000000000042c0cc      0x174 /home/notlean/openwrt-uboost/tmp/cc0dSt9z.ltrans3.ltrans.o
                0x000000000042c0cc                hwclock_main
 .text.mkswap_main
                0x000000000042c240      0x198 /home/notlean/openwrt-uboost/tmp/cc0dSt9z.ltrans3.ltrans.o
                0x000000000042c240                mkswap_main
 .text.append_mount_options
                0x000000000042c3d8       0xf0 /home/notlean/openwrt-uboost/tmp/cc0dSt9z.ltrans3.ltrans.o
 .text.parse_mount_options
                0x000000000042c4c8      0x170 /home/notlean/openwrt-uboost/tmp/cc0dSt9z.ltrans3.ltrans.o
 .text.mount_it_now
                0x000000000042c638      0x13c /home/notlean/openwrt-uboost/tmp/cc0dSt9z.ltrans3.ltrans.o
 .text.cut_out_ull_opt
                0x000000000042c774       0xd8 /home/notlean/openwrt-uboost/tmp/cc0dSt9z.ltrans3.ltrans.o
 .text.singlemount
                0x000000000042c84c      0x8d0 /home/notlean/openwrt-uboost/tmp/cc0dSt9z.ltrans3.ltrans.o
 .text.mount_main
                0x000000000042d11c      0x4b4 /home/notlean/openwrt-uboost/tmp/cc0dSt9z.ltrans3.ltrans.o
                0x000000000042d11c                mount_main
 .text.pivot_root_main
                0x000000000042d5d0       0x2c /home/notlean/openwrt-uboost/tmp/cc0dSt9z.ltrans3.ltrans.o
                0x000000000042d5d0                pivot_root_main
 .text.swap_enable_disable
                0x000000000042d5fc       0xfc /home/notlean/openwrt-uboost/tmp/cc0dSt9z.ltrans3.ltrans.o
 .text.swap_on_off_main
                0x000000000042d6f8      0x21c /home/notlean/openwrt-uboost/tmp/cc0dSt9z.ltrans3.ltrans.o
                0x000000000042d6f8                swap_on_off_main
 .text.unwindfiles.lto_priv.0
                0x000000000042d914       0x30 /home/notlean/openwrt-uboost/tmp/cc0dSt9z.ltrans3.ltrans.o
                0x000000000042d914                unwindfiles.lto_priv.0
 .text.expandstr.lto_priv.0
                0x000000000042d944      0x118 /home/notlean/openwrt-uboost/tmp/cc0dSt9z.ltrans3.ltrans.o
                0x000000000042d944                expandstr.lto_priv.0
 .text.read_profile
                0x000000000042da5c       0x30 /home/notlean/openwrt-uboost/tmp/cc0dSt9z.ltrans3.ltrans.o
 .text.evalstring.lto_priv.0
                0x000000000042da8c      0x12c /home/notlean/openwrt-uboost/tmp/cc0dSt9z.ltrans3.ltrans.o
                0x000000000042da8c                evalstring.lto_priv.0
 .text.evalbltin
                0x000000000042dbb8      0x174 /home/notlean/openwrt-uboost/tmp/cc0dSt9z.ltrans3.ltrans.o
 .text.exitshell
                0x000000000042dd2c       0x98 /home/notlean/openwrt-uboost/tmp/cc0dSt9z.ltrans3.ltrans.o
 .text.ash_main
                0x000000000042ddc4      0x46c /home/notlean/openwrt-uboost/tmp/cc0dSt9z.ltrans3.ltrans.o
                0x000000000042ddc4                ash_main
 .text.find_command.lto_priv.0
                0x000000000042e230      0x3b0 /home/notlean/openwrt-uboost/tmp/cc0dSt9z.ltrans3.ltrans.o
                0x000000000042e230                find_command.lto_priv.0
 .text.evalcommand.lto_priv.0
                0x000000000042e5e0      0x6c4 /home/notlean/openwrt-uboost/tmp/cc0dSt9z.ltrans3.ltrans.o
                0x000000000042e5e0                evalcommand.lto_priv.0
 .text.evaluate_string.lto_priv.0
                0x000000000042eca4      0x414 /home/notlean/openwrt-uboost/tmp/cc0dSt9z.ltrans3.ltrans.o
                0x000000000042eca4                evaluate_string.lto_priv.0
 .text.arith_lookup_val
                0x000000000042f0b8       0xa8 /home/notlean/openwrt-uboost/tmp/cc0dSt9z.ltrans3.ltrans.o
 .text.arith_apply
                0x000000000042f160      0x428 /home/notlean/openwrt-uboost/tmp/cc0dSt9z.ltrans3.ltrans.o
 .text.delete_contents.lto_priv.0
                0x000000000042f588       0x5c /home/notlean/openwrt-uboost/tmp/cc0dSt9z.ltrans3.ltrans.o
                0x000000000042f588                delete_contents.lto_priv.0
 .text.rmrf     0x000000000042f5e4       0x3c /home/notlean/openwrt-uboost/tmp/cc0dSt9z.ltrans3.ltrans.o
 .text.init_block
                0x000000000042f620       0x74 /home/notlean/openwrt-uboost/tmp/cc0dSt9z.ltrans4.ltrans.o
 .text.pqdownheap
                0x000000000042f694       0xdc /home/notlean/openwrt-uboost/tmp/cc0dSt9z.ltrans4.ltrans.o
 .text.gen_codes
                0x000000000042f770       0x94 /home/notlean/openwrt-uboost/tmp/cc0dSt9z.ltrans4.ltrans.o
 .text.build_tree
                0x000000000042f804      0x390 /home/notlean/openwrt-uboost/tmp/cc0dSt9z.ltrans4.ltrans.o
 .text.scan_tree
                0x000000000042fb94      0x128 /home/notlean/openwrt-uboost/tmp/cc0dSt9z.ltrans4.ltrans.o
 .text.ct_tally
                0x000000000042fcbc      0x174 /home/notlean/openwrt-uboost/tmp/cc0dSt9z.ltrans4.ltrans.o
 .text.header_skip
                0x000000000042fe30        0x4 /home/notlean/openwrt-uboost/tmp/cc0dSt9z.ltrans4.ltrans.o
 .text.data_skip
                0x000000000042fe34       0x18 /home/notlean/openwrt-uboost/tmp/cc0dSt9z.ltrans4.ltrans.o
 .text.filter_accept_all
                0x000000000042fe4c       0x14 /home/notlean/openwrt-uboost/tmp/cc0dSt9z.ltrans4.ltrans.o
 .text.calculate_gunzip_crc
                0x000000000042fe60       0x44 /home/notlean/openwrt-uboost/tmp/cc0dSt9z.ltrans4.ltrans.o
 .text.cmpfunc  0x000000000042fea4       0x10 /home/notlean/openwrt-uboost/tmp/cc0dSt9z.ltrans4.ltrans.o
 .text.null     0x000000000042feb4       0x3c /home/notlean/openwrt-uboost/tmp/cc0dSt9z.ltrans4.ltrans.o
 .text.false_main
                0x000000000042fef0        0x8 /home/notlean/openwrt-uboost/tmp/cc0dSt9z.ltrans4.ltrans.o
                0x000000000042fef0                false_main
 .text.switch_root_main
                0x000000000042fef8      0x18c /home/notlean/openwrt-uboost/tmp/cc0dSt9z.ltrans4.ltrans.o
                0x000000000042fef8                switch_root_main
 .text.buffer_read_le_u32
                0x0000000000430084       0x5c /home/notlean/openwrt-uboost/tmp/cc0dSt9z.ltrans4.ltrans.o
 .text.print_common
                0x00000000004300e0       0xac /home/notlean/openwrt-uboost/tmp/cc0dSt9z.ltrans4.ltrans.o
 .text.huft_build
                0x000000000043018c      0x4b4 /home/notlean/openwrt-uboost/tmp/cc0dSt9z.ltrans4.ltrans.o
 .text.int_value
                0x0000000000430640       0x1c /home/notlean/openwrt-uboost/tmp/cc0dSt9z.ltrans4.ltrans.o
 .text.process_pid_str
                0x000000000043065c      0x420 /home/notlean/openwrt-uboost/tmp/cc0dSt9z.ltrans4.ltrans.o
 .text.iter     0x0000000000430a7c       0x30 /home/notlean/openwrt-uboost/tmp/cc0dSt9z.ltrans4.ltrans.o
 .text.append_ext
                0x0000000000430aac       0x14 /home/notlean/openwrt-uboost/tmp/cc0dSt9z.ltrans4.ltrans.o
 .text.tostring
                0x0000000000430ac0       0x34 /home/notlean/openwrt-uboost/tmp/cc0dSt9z.ltrans4.ltrans.o
 .text.taskset_main
                0x0000000000430af4       0xc4 /home/notlean/openwrt-uboost/tmp/cc0dSt9z.ltrans4.ltrans.o
                0x0000000000430af4                taskset_main
 .text.huft_free
                0x0000000000430bb8       0x24 /home/notlean/openwrt-uboost/tmp/cc0dSt9z.ltrans4.ltrans.o
 .text.freev    0x0000000000430bdc       0x28 /home/notlean/openwrt-uboost/tmp/cc0dSt9z.ltrans4.ltrans.o
 .text.nextarg  0x0000000000430c04       0x48 /home/notlean/openwrt-uboost/tmp/cc0dSt9z.ltrans4.ltrans.o
 .text.str_value
                0x0000000000430c4c       0x3c /home/notlean/openwrt-uboost/tmp/cc0dSt9z.ltrans4.ltrans.o
 .text.umount_main
                0x0000000000430c88      0x290 /home/notlean/openwrt-uboost/tmp/cc0dSt9z.ltrans4.ltrans.o
                0x0000000000430c88                umount_main
 .text.fileAction.lto_priv.1
                0x0000000000430f18       0x5c /home/notlean/openwrt-uboost/tmp/cc0dSt9z.ltrans4.ltrans.o
 .text.make_new_name_gunzip
                0x0000000000430f74       0x84 /home/notlean/openwrt-uboost/tmp/cc0dSt9z.ltrans4.ltrans.o
 .text.flush_outbuf
                0x0000000000430ff8       0x34 /home/notlean/openwrt-uboost/tmp/cc0dSt9z.ltrans4.ltrans.o
 .text.put_16bit
                0x000000000043102c       0x90 /home/notlean/openwrt-uboost/tmp/cc0dSt9z.ltrans4.ltrans.o
 .text.put_32bit
                0x00000000004310bc       0x18 /home/notlean/openwrt-uboost/tmp/cc0dSt9z.ltrans4.ltrans.o
 .text.send_bits
                0x00000000004310d4       0x54 /home/notlean/openwrt-uboost/tmp/cc0dSt9z.ltrans4.ltrans.o
 .text.send_tree
                0x0000000000431128      0x190 /home/notlean/openwrt-uboost/tmp/cc0dSt9z.ltrans4.ltrans.o
 .text.compress_block
                0x00000000004312b8      0x174 /home/notlean/openwrt-uboost/tmp/cc0dSt9z.ltrans4.ltrans.o
 .text.bi_windup
                0x000000000043142c       0x60 /home/notlean/openwrt-uboost/tmp/cc0dSt9z.ltrans4.ltrans.o
 .text.flush_block
                0x000000000043148c      0x238 /home/notlean/openwrt-uboost/tmp/cc0dSt9z.ltrans4.ltrans.o
 .text.file_read
                0x00000000004316c4       0x78 /home/notlean/openwrt-uboost/tmp/cc0dSt9z.ltrans4.ltrans.o
 .text.fill_window_if_needed
                0x000000000043173c      0x140 /home/notlean/openwrt-uboost/tmp/cc0dSt9z.ltrans4.ltrans.o
 .text.deflate  0x000000000043187c      0x3ec /home/notlean/openwrt-uboost/tmp/cc0dSt9z.ltrans4.ltrans.o
 .text.pack_gzip
                0x0000000000431c68      0x374 /home/notlean/openwrt-uboost/tmp/cc0dSt9z.ltrans4.ltrans.o
 .text.putOctal
                0x0000000000431fdc       0x9c /home/notlean/openwrt-uboost/tmp/cc0dSt9z.ltrans4.ltrans.o
 .text.chksum_and_xwrite_tar_header
                0x0000000000432078       0x78 /home/notlean/openwrt-uboost/tmp/cc0dSt9z.ltrans4.ltrans.o
 .text.writeLongname
                0x00000000004320f0      0x114 /home/notlean/openwrt-uboost/tmp/cc0dSt9z.ltrans4.ltrans.o
 .text.dd_output_status
                0x0000000000432204       0x28 /home/notlean/openwrt-uboost/tmp/cc0dSt9z.ltrans4.ltrans.o
 .text.writeTarHeader
                0x000000000043222c      0x32c /home/notlean/openwrt-uboost/tmp/cc0dSt9z.ltrans4.ltrans.o
 .text.data_extract_to_stdout
                0x0000000000432558       0x14 /home/notlean/openwrt-uboost/tmp/cc0dSt9z.ltrans4.ltrans.o
 .text.seek_by_read
                0x000000000043256c       0x14 /home/notlean/openwrt-uboost/tmp/cc0dSt9z.ltrans4.ltrans.o
 .text.find_list_entry2
                0x0000000000432580       0xb4 /home/notlean/openwrt-uboost/tmp/cc0dSt9z.ltrans4.ltrans.o
 .text.filter_accept_reject_list
                0x0000000000432634       0x58 /home/notlean/openwrt-uboost/tmp/cc0dSt9z.ltrans4.ltrans.o
 .text.vfork_compressor
                0x000000000043268c       0xe4 /home/notlean/openwrt-uboost/tmp/cc0dSt9z.ltrans4.ltrans.o
 .text.writeTarFile
                0x0000000000432770      0x124 /home/notlean/openwrt-uboost/tmp/cc0dSt9z.ltrans4.ltrans.o
 .text.append_file_list_to_list
                0x0000000000432894       0x78 /home/notlean/openwrt-uboost/tmp/cc0dSt9z.ltrans4.ltrans.o
 .text.chmod_main
                0x000000000043290c       0xfc /home/notlean/openwrt-uboost/tmp/cc0dSt9z.ltrans4.ltrans.o
                0x000000000043290c                chmod_main
 .text.header_verbose_list
                0x0000000000432a08       0x94 /home/notlean/openwrt-uboost/tmp/cc0dSt9z.ltrans4.ltrans.o
 .text.header_list
                0x0000000000432a9c        0x8 /home/notlean/openwrt-uboost/tmp/cc0dSt9z.ltrans4.ltrans.o
 .text.seek_by_jump
                0x0000000000432aa4       0x68 /home/notlean/openwrt-uboost/tmp/cc0dSt9z.ltrans4.ltrans.o
 .text.data_extract_all
                0x0000000000432b0c      0x3a0 /home/notlean/openwrt-uboost/tmp/cc0dSt9z.ltrans4.ltrans.o
 .text.abort_unzip
                0x0000000000432eac       0x28 /home/notlean/openwrt-uboost/tmp/cc0dSt9z.ltrans4.ltrans.o
 .text.fill_bitbuffer
                0x0000000000432ed4       0xdc /home/notlean/openwrt-uboost/tmp/cc0dSt9z.ltrans4.ltrans.o
 .text.inflate_codes
                0x0000000000432fb0      0x354 /home/notlean/openwrt-uboost/tmp/cc0dSt9z.ltrans4.ltrans.o
 .text.inflate_block
                0x0000000000433304      0x560 /home/notlean/openwrt-uboost/tmp/cc0dSt9z.ltrans4.ltrans.o
 .text.inflate_unzip_internal
                0x0000000000433864      0x350 /home/notlean/openwrt-uboost/tmp/cc0dSt9z.ltrans4.ltrans.o
 .text.clear_main
                0x0000000000433bb4       0x34 /home/notlean/openwrt-uboost/tmp/cc0dSt9z.ltrans4.ltrans.o
                0x0000000000433bb4                clear_main
 .text.top_up   0x0000000000433be8       0x9c /home/notlean/openwrt-uboost/tmp/cc0dSt9z.ltrans4.ltrans.o
 .text.unpack_gz_stream
                0x0000000000433c84      0x324 /home/notlean/openwrt-uboost/tmp/cc0dSt9z.ltrans4.ltrans.o
                0x0000000000433c84                unpack_gz_stream
 .text.getOctal
                0x0000000000433fa8       0x6c /home/notlean/openwrt-uboost/tmp/cc0dSt9z.ltrans4.ltrans.o
 .text.strip_unsafe_prefix
                0x0000000000434014       0xac /home/notlean/openwrt-uboost/tmp/cc0dSt9z.ltrans4.ltrans.o
 .text.writeFileToTarball
                0x00000000004340c0      0x258 /home/notlean/openwrt-uboost/tmp/cc0dSt9z.ltrans4.ltrans.o
 .text.get_header_tar
                0x0000000000434318      0x610 /home/notlean/openwrt-uboost/tmp/cc0dSt9z.ltrans4.ltrans.o
 .text.fork_transformer
                0x0000000000434928       0xb8 /home/notlean/openwrt-uboost/tmp/cc0dSt9z.ltrans4.ltrans.o
 .text.bbunpack
                0x00000000004349e0      0x3b8 /home/notlean/openwrt-uboost/tmp/cc0dSt9z.ltrans4.ltrans.o
 .text.gunzip_main
                0x0000000000434d98       0x64 /home/notlean/openwrt-uboost/tmp/cc0dSt9z.ltrans4.ltrans.o
                0x0000000000434d98                gunzip_main
 .text.gzip_main
                0x0000000000434dfc       0xdc /home/notlean/openwrt-uboost/tmp/cc0dSt9z.ltrans4.ltrans.o
                0x0000000000434dfc                gzip_main
 .text.tar_main
                0x0000000000434ed8      0x488 /home/notlean/openwrt-uboost/tmp/cc0dSt9z.ltrans4.ltrans.o
                0x0000000000434ed8                tar_main
 .text.reset_main
                0x0000000000435360       0x40 /home/notlean/openwrt-uboost/tmp/cc0dSt9z.ltrans4.ltrans.o
                0x0000000000435360                reset_main
 .text.onintr   0x00000000004353a0       0x20 /home/notlean/openwrt-uboost/tmp/cc0dSt9z.ltrans4.ltrans.o
 .text.resize_main
                0x00000000004353c0      0x148 /home/notlean/openwrt-uboost/tmp/cc0dSt9z.ltrans4.ltrans.o
                0x00000000004353c0                resize_main
 .text.basename_main
                0x0000000000435508       0xf4 /home/notlean/openwrt-uboost/tmp/cc0dSt9z.ltrans4.ltrans.o
                0x0000000000435508                basename_main
 .text.cat_main
                0x00000000004355fc       0x44 /home/notlean/openwrt-uboost/tmp/cc0dSt9z.ltrans4.ltrans.o
                0x00000000004355fc                cat_main
 .text.fileAction.lto_priv.0
                0x0000000000435640       0x90 /home/notlean/openwrt-uboost/tmp/cc0dSt9z.ltrans4.ltrans.o
 .text.chown_main
                0x00000000004356d0       0xb8 /home/notlean/openwrt-uboost/tmp/cc0dSt9z.ltrans4.ltrans.o
                0x00000000004356d0                chown_main
 .text.chgrp_main
                0x0000000000435788       0x4c /home/notlean/openwrt-uboost/tmp/cc0dSt9z.ltrans4.ltrans.o
                0x0000000000435788                chgrp_main
 .text.chroot_main
                0x00000000004357d4       0x44 /home/notlean/openwrt-uboost/tmp/cc0dSt9z.ltrans4.ltrans.o
                0x00000000004357d4                chroot_main
 .text.cp_main  0x0000000000435818      0x174 /home/notlean/openwrt-uboost/tmp/cc0dSt9z.ltrans4.ltrans.o
                0x0000000000435818                cp_main
 .text.cut_main
                0x000000000043598c      0x4a4 /home/notlean/openwrt-uboost/tmp/cc0dSt9z.ltrans4.ltrans.o
                0x000000000043598c                cut_main
 .text.date_main
                0x0000000000435e30      0x2f0 /home/notlean/openwrt-uboost/tmp/cc0dSt9z.ltrans4.ltrans.o
                0x0000000000435e30                date_main
 .text.clear_O_DIRECT
                0x0000000000436120       0x54 /home/notlean/openwrt-uboost/tmp/cc0dSt9z.ltrans4.ltrans.o
 .text.dd_read  0x0000000000436174       0x70 /home/notlean/openwrt-uboost/tmp/cc0dSt9z.ltrans4.ltrans.o
 .text.write_and_stats
                0x00000000004361e4       0xbc /home/notlean/openwrt-uboost/tmp/cc0dSt9z.ltrans4.ltrans.o
 .text.parse_comma_flags
                0x00000000004362a0       0x94 /home/notlean/openwrt-uboost/tmp/cc0dSt9z.ltrans4.ltrans.o
 .text.alloc_buf
                0x0000000000436334       0x50 /home/notlean/openwrt-uboost/tmp/cc0dSt9z.ltrans4.ltrans.o
 .text.dd_main  0x0000000000436384      0x5e4 /home/notlean/openwrt-uboost/tmp/cc0dSt9z.ltrans4.ltrans.o
                0x0000000000436384                dd_main
 .text.print    0x0000000000436968       0x40 /home/notlean/openwrt-uboost/tmp/cc0dSt9z.ltrans4.ltrans.o
 .text.df_main  0x00000000004369a8      0x310 /home/notlean/openwrt-uboost/tmp/cc0dSt9z.ltrans4.ltrans.o
                0x00000000004369a8                df_main
 .text.dirname_main
                0x0000000000436cb8       0x48 /home/notlean/openwrt-uboost/tmp/cc0dSt9z.ltrans4.ltrans.o
                0x0000000000436cb8                dirname_main
 .text.du       0x0000000000436d00      0x1f0 /home/notlean/openwrt-uboost/tmp/cc0dSt9z.ltrans4.ltrans.o
 .text.du_main  0x0000000000436ef0      0x11c /home/notlean/openwrt-uboost/tmp/cc0dSt9z.ltrans4.ltrans.o
                0x0000000000436ef0                du_main
 .text.echo_main
                0x000000000043700c      0x1b4 /home/notlean/openwrt-uboost/tmp/cc0dSt9z.ltrans4.ltrans.o
                0x000000000043700c                echo_main
 .text.env_main
                0x00000000004371c0      0x104 /home/notlean/openwrt-uboost/tmp/cc0dSt9z.ltrans4.ltrans.o
                0x00000000004371c0                env_main
 .text.toarith  0x00000000004372c4       0x68 /home/notlean/openwrt-uboost/tmp/cc0dSt9z.ltrans4.ltrans.o
 .text.arithmetic_common
                0x000000000043732c       0xa0 /home/notlean/openwrt-uboost/tmp/cc0dSt9z.ltrans4.ltrans.o
 .text.docolon  0x00000000004373cc       0xf0 /home/notlean/openwrt-uboost/tmp/cc0dSt9z.ltrans4.ltrans.o
 .text.eval6    0x00000000004374bc      0x264 /home/notlean/openwrt-uboost/tmp/cc0dSt9z.ltrans4.ltrans.o
 .text.eval5    0x0000000000437720       0x7c /home/notlean/openwrt-uboost/tmp/cc0dSt9z.ltrans4.ltrans.o
 .text.eval4    0x000000000043779c       0xc4 /home/notlean/openwrt-uboost/tmp/cc0dSt9z.ltrans4.ltrans.o
 .text.eval3    0x0000000000437860       0xac /home/notlean/openwrt-uboost/tmp/cc0dSt9z.ltrans4.ltrans.o
 .text.eval2    0x000000000043790c      0x1c8 /home/notlean/openwrt-uboost/tmp/cc0dSt9z.ltrans4.ltrans.o
 .text.eval1    0x0000000000437ad4       0x98 /home/notlean/openwrt-uboost/tmp/cc0dSt9z.ltrans4.ltrans.o
 .text.eval     0x0000000000437b6c       0x7c /home/notlean/openwrt-uboost/tmp/cc0dSt9z.ltrans4.ltrans.o
 .text.expr_main
                0x0000000000437be8       0x84 /home/notlean/openwrt-uboost/tmp/cc0dSt9z.ltrans4.ltrans.o
                0x0000000000437be8                expr_main
 .text.head_main
                0x0000000000437c6c      0x370 /home/notlean/openwrt-uboost/tmp/cc0dSt9z.ltrans4.ltrans.o
                0x0000000000437c6c                head_main
 .text.print_group
                0x0000000000437fdc       0x34 /home/notlean/openwrt-uboost/tmp/cc0dSt9z.ltrans4.ltrans.o
 .text.print_user
                0x0000000000438010       0x34 /home/notlean/openwrt-uboost/tmp/cc0dSt9z.ltrans4.ltrans.o
 .text.get_groups
                0x0000000000438044       0x78 /home/notlean/openwrt-uboost/tmp/cc0dSt9z.ltrans4.ltrans.o
 .text.id_main  0x00000000004380bc      0x228 /home/notlean/openwrt-uboost/tmp/cc0dSt9z.ltrans4.ltrans.o
                0x00000000004380bc                id_main
 .text.append_char
                0x00000000004382e4       0x60 /home/notlean/openwrt-uboost/tmp/cc0dSt9z.ltrans5.ltrans.o
 .text.count_dirs
                0x0000000000438344       0x78 /home/notlean/openwrt-uboost/tmp/cc0dSt9z.ltrans5.ltrans.o
 .text.true_main
                0x00000000004383bc        0x8 /home/notlean/openwrt-uboost/tmp/cc0dSt9z.ltrans5.ltrans.o
                0x00000000004383bc                true_main
 .text.hashidx  0x00000000004383c4       0x28 /home/notlean/openwrt-uboost/tmp/cc0dSt9z.ltrans5.ltrans.o
 .text.skip_spaces
                0x00000000004383ec       0x48 /home/notlean/openwrt-uboost/tmp/cc0dSt9z.ltrans5.ltrans.o
 .text.nextword
                0x0000000000438434       0x1c /home/notlean/openwrt-uboost/tmp/cc0dSt9z.ltrans5.ltrans.o
 .text.nextarg  0x0000000000438450       0x38 /home/notlean/openwrt-uboost/tmp/cc0dSt9z.ltrans5.ltrans.o
 .text.hash_clear
                0x0000000000438488       0x74 /home/notlean/openwrt-uboost/tmp/cc0dSt9z.ltrans5.ltrans.o
 .text.syntax_error
                0x00000000004384fc       0x28 /home/notlean/openwrt-uboost/tmp/cc0dSt9z.ltrans5.ltrans.o
 .text.ln_main  0x0000000000438524      0x290 /home/notlean/openwrt-uboost/tmp/cc0dSt9z.ltrans5.ltrans.o
                0x0000000000438524                ln_main
 .text.yes_main
                0x00000000004387b4       0x58 /home/notlean/openwrt-uboost/tmp/cc0dSt9z.ltrans5.ltrans.o
                0x00000000004387b4                yes_main
 .text.print_name
                0x000000000043880c       0x88 /home/notlean/openwrt-uboost/tmp/cc0dSt9z.ltrans5.ltrans.o
 .text.display_single
                0x0000000000438894      0x454 /home/notlean/openwrt-uboost/tmp/cc0dSt9z.ltrans5.ltrans.o
 .text.display_files
                0x0000000000438ce8      0x1b8 /home/notlean/openwrt-uboost/tmp/cc0dSt9z.ltrans5.ltrans.o
 .text.my_stat  0x0000000000438ea0      0x110 /home/notlean/openwrt-uboost/tmp/cc0dSt9z.ltrans5.ltrans.o
 .text.dnalloc  0x0000000000438fb0       0x18 /home/notlean/openwrt-uboost/tmp/cc0dSt9z.ltrans5.ltrans.o
 .text.splitdnarray
                0x0000000000438fc8       0x98 /home/notlean/openwrt-uboost/tmp/cc0dSt9z.ltrans5.ltrans.o
 .text.hash_init
                0x0000000000439060       0x30 /home/notlean/openwrt-uboost/tmp/cc0dSt9z.ltrans5.ltrans.o
 .text.iamarray
                0x0000000000439090       0x38 /home/notlean/openwrt-uboost/tmp/cc0dSt9z.ltrans5.ltrans.o
 .text.new_node
                0x00000000004390c8       0x28 /home/notlean/openwrt-uboost/tmp/cc0dSt9z.ltrans5.ltrans.o
 .text.chain_node
                0x00000000004390f0       0x8c /home/notlean/openwrt-uboost/tmp/cc0dSt9z.ltrans5.ltrans.o
 .text.hash_search3
                0x000000000043917c       0x4c /home/notlean/openwrt-uboost/tmp/cc0dSt9z.ltrans5.ltrans.o
 .text.hash_search
                0x00000000004391c8       0x28 /home/notlean/openwrt-uboost/tmp/cc0dSt9z.ltrans5.ltrans.o
 .text.sortcmp  0x00000000004391f0       0xe8 /home/notlean/openwrt-uboost/tmp/cc0dSt9z.ltrans5.ltrans.o
 .text.dnsort   0x00000000004392d8       0x14 /home/notlean/openwrt-uboost/tmp/cc0dSt9z.ltrans5.ltrans.o
 .text.scan_and_display_dirs_recur
                0x00000000004392ec      0x238 /home/notlean/openwrt-uboost/tmp/cc0dSt9z.ltrans5.ltrans.o
 .text.ls_main  0x0000000000439524      0x2f0 /home/notlean/openwrt-uboost/tmp/cc0dSt9z.ltrans5.ltrans.o
                0x0000000000439524                ls_main
 .text.hash_file
                0x0000000000439814      0x1b0 /home/notlean/openwrt-uboost/tmp/cc0dSt9z.ltrans5.ltrans.o
 .text.md5_sha1_sum_main
                0x00000000004399c4      0x208 /home/notlean/openwrt-uboost/tmp/cc0dSt9z.ltrans5.ltrans.o
                0x00000000004399c4                md5_sha1_sum_main
 .text.mkdir_main
                0x0000000000439bcc       0xc4 /home/notlean/openwrt-uboost/tmp/cc0dSt9z.ltrans5.ltrans.o
                0x0000000000439bcc                mkdir_main
 .text.mktemp_main
                0x0000000000439c90       0xf0 /home/notlean/openwrt-uboost/tmp/cc0dSt9z.ltrans5.ltrans.o
                0x0000000000439c90                mktemp_main
 .text.rm_main  0x0000000000439d80       0xd4 /home/notlean/openwrt-uboost/tmp/cc0dSt9z.ltrans5.ltrans.o
                0x0000000000439d80                rm_main
 .text.nice_main
                0x0000000000439e54      0x13c /home/notlean/openwrt-uboost/tmp/cc0dSt9z.ltrans5.ltrans.o
                0x0000000000439e54                nice_main
 .text.eat_num  0x0000000000439f90       0x44 /home/notlean/openwrt-uboost/tmp/cc0dSt9z.ltrans5.ltrans.o
 .text.multiconvert
                0x0000000000439fd4       0x7c /home/notlean/openwrt-uboost/tmp/cc0dSt9z.ltrans5.ltrans.o
 .text.conv_strtoll
                0x000000000043a050       0x2c /home/notlean/openwrt-uboost/tmp/cc0dSt9z.ltrans5.ltrans.o
 .text.conv_strtoull
                0x000000000043a07c       0x60 /home/notlean/openwrt-uboost/tmp/cc0dSt9z.ltrans5.ltrans.o
 .text.conv_strtod
                0x000000000043a0dc       0x3c /home/notlean/openwrt-uboost/tmp/cc0dSt9z.ltrans5.ltrans.o
 .text.getvar_i
                0x000000000043a118       0x88 /home/notlean/openwrt-uboost/tmp/cc0dSt9z.ltrans5.ltrans.o
 .text.getvar_i_int
                0x000000000043a1a0       0x30 /home/notlean/openwrt-uboost/tmp/cc0dSt9z.ltrans5.ltrans.o
 .text.istrue   0x000000000043a1d0       0x50 /home/notlean/openwrt-uboost/tmp/cc0dSt9z.ltrans5.ltrans.o
 .text.print_direc
                0x000000000043a220      0x1d0 /home/notlean/openwrt-uboost/tmp/cc0dSt9z.ltrans5.ltrans.o
 .text.get_width_prec
                0x000000000043a3f0       0x40 /home/notlean/openwrt-uboost/tmp/cc0dSt9z.ltrans5.ltrans.o
 .text.nextchar
                0x000000000043a430       0x68 /home/notlean/openwrt-uboost/tmp/cc0dSt9z.ltrans5.ltrans.o
 .text.unescape_string_in_place
                0x000000000043a498       0x30 /home/notlean/openwrt-uboost/tmp/cc0dSt9z.ltrans5.ltrans.o
 .text.printf_main
                0x000000000043a4c8      0x43c /home/notlean/openwrt-uboost/tmp/cc0dSt9z.ltrans5.ltrans.o
                0x000000000043a4c8                printf_main
 .text.pwd_main
                0x000000000043a904       0x30 /home/notlean/openwrt-uboost/tmp/cc0dSt9z.ltrans5.ltrans.o
                0x000000000043a904                pwd_main
 .text.readlink_main
                0x000000000043a934       0x90 /home/notlean/openwrt-uboost/tmp/cc0dSt9z.ltrans5.ltrans.o
                0x000000000043a934                readlink_main
 .text.rmdir_main
                0x000000000043a9c4       0xdc /home/notlean/openwrt-uboost/tmp/cc0dSt9z.ltrans5.ltrans.o
                0x000000000043a9c4                rmdir_main
 .text.seq_main
                0x000000000043aaa0      0x1f0 /home/notlean/openwrt-uboost/tmp/cc0dSt9z.ltrans5.ltrans.o
                0x000000000043aaa0                seq_main
 .text.hash_remove
                0x000000000043ac90       0xa0 /home/notlean/openwrt-uboost/tmp/cc0dSt9z.ltrans5.ltrans.o
 .text.sleep_main
                0x000000000043ad30       0x6c /home/notlean/openwrt-uboost/tmp/cc0dSt9z.ltrans5.ltrans.o
                0x000000000043ad30                sleep_main
 .text.compare_keys
                0x000000000043ad9c       0xf8 /home/notlean/openwrt-uboost/tmp/cc0dSt9z.ltrans5.ltrans.o
 .text.expand   0x000000000043ae94       0xf8 /home/notlean/openwrt-uboost/tmp/cc0dSt9z.ltrans5.ltrans.o
 .text.qrealloc
                0x000000000043af8c       0x30 /home/notlean/openwrt-uboost/tmp/cc0dSt9z.ltrans5.ltrans.o
 .text.sort_main
                0x000000000043afbc      0x1ec /home/notlean/openwrt-uboost/tmp/cc0dSt9z.ltrans5.ltrans.o
                0x000000000043afbc                sort_main
 .text.sync_main
                0x000000000043b1a8       0x14 /home/notlean/openwrt-uboost/tmp/cc0dSt9z.ltrans5.ltrans.o
                0x000000000043b1a8                sync_main
 .text.fsync_main
                0x000000000043b1bc       0x9c /home/notlean/openwrt-uboost/tmp/cc0dSt9z.ltrans5.ltrans.o
                0x000000000043b1bc                fsync_main
 .text.tail_main
                0x000000000043b258      0x6e0 /home/notlean/openwrt-uboost/tmp/cc0dSt9z.ltrans5.ltrans.o
                0x000000000043b258                tail_main
 .text.tee_main
                0x000000000043b938      0x174 /home/notlean/openwrt-uboost/tmp/cc0dSt9z.ltrans5.ltrans.o
                0x000000000043b938                tee_main
 .text.syntax   0x000000000043baac       0x48 /home/notlean/openwrt-uboost/tmp/cc0dSt9z.ltrans5.ltrans.o
 .text.getn     0x000000000043baf4       0x74 /home/notlean/openwrt-uboost/tmp/cc0dSt9z.ltrans5.ltrans.o
 .text.check_operator
                0x000000000043bb68       0xb0 /home/notlean/openwrt-uboost/tmp/cc0dSt9z.ltrans5.ltrans.o
 .text.binop    0x000000000043bc18      0x2a0 /home/notlean/openwrt-uboost/tmp/cc0dSt9z.ltrans5.ltrans.o
 .text.nexpr    0x000000000043beb8      0x400 /home/notlean/openwrt-uboost/tmp/cc0dSt9z.ltrans5.ltrans.o
 .text.aexpr    0x000000000043c2b8       0x74 /home/notlean/openwrt-uboost/tmp/cc0dSt9z.ltrans5.ltrans.o
 .text.oexpr    0x000000000043c32c       0x6c /home/notlean/openwrt-uboost/tmp/cc0dSt9z.ltrans5.ltrans.o
 .text.test_main
                0x000000000043c398      0x228 /home/notlean/openwrt-uboost/tmp/cc0dSt9z.ltrans5.ltrans.o
                0x000000000043c398                test_main
 .text.touch_main
                0x000000000043c5c0      0x1b0 /home/notlean/openwrt-uboost/tmp/cc0dSt9z.ltrans5.ltrans.o
                0x000000000043c5c0                touch_main
 .text.complement
                0x000000000043c770       0xa0 /home/notlean/openwrt-uboost/tmp/cc0dSt9z.ltrans5.ltrans.o
 .text.tr_main  0x000000000043c810      0x208 /home/notlean/openwrt-uboost/tmp/cc0dSt9z.ltrans5.ltrans.o
                0x000000000043c810                tr_main
 .text.hash_find
                0x000000000043ca18      0x150 /home/notlean/openwrt-uboost/tmp/cc0dSt9z.ltrans5.ltrans.o
 .text.uname_main
                0x000000000043cb68      0x128 /home/notlean/openwrt-uboost/tmp/cc0dSt9z.ltrans5.ltrans.o
                0x000000000043cb68                uname_main
 .text.next_token
                0x000000000043cc90      0x48c /home/notlean/openwrt-uboost/tmp/cc0dSt9z.ltrans5.ltrans.o
 .text.uniq_main
                0x000000000043d11c      0x1f4 /home/notlean/openwrt-uboost/tmp/cc0dSt9z.ltrans5.ltrans.o
                0x000000000043d11c                uniq_main
 .text.wc_main  0x000000000043d310      0x2b4 /home/notlean/openwrt-uboost/tmp/cc0dSt9z.ltrans5.ltrans.o
                0x000000000043d310                wc_main
 .text.getopt_mk_fifo_nod
                0x000000000043d5c4       0x50 /home/notlean/openwrt-uboost/tmp/cc0dSt9z.ltrans5.ltrans.o
 .text.mkfifo_main
                0x000000000043d614       0x68 /home/notlean/openwrt-uboost/tmp/cc0dSt9z.ltrans5.ltrans.o
                0x000000000043d614                mkfifo_main
 .text.mknod_main
                0x000000000043d67c      0x128 /home/notlean/openwrt-uboost/tmp/cc0dSt9z.ltrans5.ltrans.o
                0x000000000043d67c                mknod_main
 .text.fmt_num  0x000000000043d7a4       0xe0 /home/notlean/openwrt-uboost/tmp/cc0dSt9z.ltrans5.ltrans.o
 .text.getvar_s
                0x000000000043d884       0x6c /home/notlean/openwrt-uboost/tmp/cc0dSt9z.ltrans5.ltrans.o
 .text.check    0x000000000043d8f0      0x1e4 /home/notlean/openwrt-uboost/tmp/cc0dSt9z.ltrans5.ltrans.o
 .text.start_stop_daemon_main
                0x000000000043dad4      0x4c0 /home/notlean/openwrt-uboost/tmp/cc0dSt9z.ltrans5.ltrans.o
                0x000000000043dad4                start_stop_daemon_main
 .text.which_main
                0x000000000043df94      0x184 /home/notlean/openwrt-uboost/tmp/cc0dSt9z.ltrans5.ltrans.o
                0x000000000043df94                which_main
 .text.nvfree   0x000000000043e118       0x9c /home/notlean/openwrt-uboost/tmp/cc0dSt9z.ltrans5.ltrans.o
 .text.setari_u
                0x000000000043e1b4       0x3c /home/notlean/openwrt-uboost/tmp/cc0dSt9z.ltrans5.ltrans.o
 .text.mk_splitter
                0x000000000043e1f0       0x94 /home/notlean/openwrt-uboost/tmp/cc0dSt9z.ltrans5.ltrans.o
 .text.fsrealloc
                0x000000000043e284       0xc0 /home/notlean/openwrt-uboost/tmp/cc0dSt9z.ltrans5.ltrans.o
 .text.awk_split
                0x000000000043e344      0x2a0 /home/notlean/openwrt-uboost/tmp/cc0dSt9z.ltrans5.ltrans.o
 .text.split_f0
                0x000000000043e5e4       0xc0 /home/notlean/openwrt-uboost/tmp/cc0dSt9z.ltrans5.ltrans.o
 .text.handle_special
                0x000000000043e6a4      0x254 /home/notlean/openwrt-uboost/tmp/cc0dSt9z.ltrans5.ltrans.o
 .text.setvar_p
                0x000000000043e8f8       0x30 /home/notlean/openwrt-uboost/tmp/cc0dSt9z.ltrans5.ltrans.o
 .text.setvar_i
                0x000000000043e928       0x3c /home/notlean/openwrt-uboost/tmp/cc0dSt9z.ltrans5.ltrans.o
 .text.incvar   0x000000000043e964       0x20 /home/notlean/openwrt-uboost/tmp/cc0dSt9z.ltrans5.ltrans.o
 .text.copyvar  0x000000000043e984       0x64 /home/notlean/openwrt-uboost/tmp/cc0dSt9z.ltrans5.ltrans.o
 .text.do_mktime
                0x000000000043e9e8       0x84 /home/notlean/openwrt-uboost/tmp/cc0dSt9z.ltrans5.ltrans.o
 .text.is_assignment
                0x000000000043ea6c       0x8c /home/notlean/openwrt-uboost/tmp/cc0dSt9z.ltrans5.ltrans.o
 .text.cp_mv_stat2
                0x000000000043eaf8       0x68 /home/notlean/openwrt-uboost/tmp/cc0dSt9z.ltrans5.ltrans.o
                0x000000000043eaf8                cp_mv_stat2
 .text.mv_main  0x000000000043eb60      0x2a4 /home/notlean/openwrt-uboost/tmp/cc0dSt9z.ltrans5.ltrans.o
                0x000000000043eb60                mv_main
 .text.setvar_s.lto_priv.0
                0x000000000043ee04       0x34 /home/notlean/openwrt-uboost/tmp/cc0dSt9z.ltrans5.ltrans.o
                0x000000000043ee04                setvar_s.lto_priv.0
 .text.parse_expr
                0x000000000043ee38      0x400 /home/notlean/openwrt-uboost/tmp/cc0dSt9z.ltrans5.ltrans.o
 .text.parse_lrparen_list
                0x000000000043f238       0x18 /home/notlean/openwrt-uboost/tmp/cc0dSt9z.ltrans5.ltrans.o
 .text.chain_expr
                0x000000000043f250       0x58 /home/notlean/openwrt-uboost/tmp/cc0dSt9z.ltrans5.ltrans.o
 .text.chain_group
                0x000000000043f2a8      0x2d8 /home/notlean/openwrt-uboost/tmp/cc0dSt9z.ltrans5.ltrans.o
 .text.chain_loop
                0x000000000043f580       0x8c /home/notlean/openwrt-uboost/tmp/cc0dSt9z.ltrans5.ltrans.o
 .text.chain_until_rbrace
                0x000000000043f60c       0x4c /home/notlean/openwrt-uboost/tmp/cc0dSt9z.ltrans5.ltrans.o
 .text.parse_program
                0x000000000043f658      0x1d8 /home/notlean/openwrt-uboost/tmp/cc0dSt9z.ltrans5.ltrans.o
 .text.awk_getline
                0x000000000043f830      0x2dc /home/notlean/openwrt-uboost/tmp/cc0dSt9z.ltrans5.ltrans.o
 .text.next_input_file
                0x000000000043fb0c       0xdc /home/notlean/openwrt-uboost/tmp/cc0dSt9z.ltrans5.ltrans.o
 .text.evaluate.lto_priv.0
                0x000000000043fbe8      0xdd8 /home/notlean/openwrt-uboost/tmp/cc0dSt9z.ltrans5.ltrans.o
                0x000000000043fbe8                evaluate.lto_priv.0
 .text.as_regex
                0x00000000004409c0       0x98 /home/notlean/openwrt-uboost/tmp/cc0dSt9z.ltrans5.ltrans.o
 .text.awk_sub  0x0000000000440a58      0x2ec /home/notlean/openwrt-uboost/tmp/cc0dSt9z.ltrans5.ltrans.o
 .text.do_match
                0x0000000000440d44       0xa4 /home/notlean/openwrt-uboost/tmp/cc0dSt9z.ltrans5.ltrans.o
 .text.ptest    0x0000000000440de8       0x1c /home/notlean/openwrt-uboost/tmp/cc0dSt9z.ltrans5.ltrans.o
 .text.awk_printf
                0x0000000000440e04      0x2a8 /home/notlean/openwrt-uboost/tmp/cc0dSt9z.ltrans5.ltrans.o
 .text.exec_builtin
                0x00000000004410ac      0x4d4 /home/notlean/openwrt-uboost/tmp/cc0dSt9z.ltrans5.ltrans.o
 .text.awk_main
                0x0000000000441580      0x3c4 /home/notlean/openwrt-uboost/tmp/cc0dSt9z.ltrans5.ltrans.o
                0x0000000000441580                awk_main
 .text.next_column
                0x0000000000441944       0x3c /home/notlean/openwrt-uboost/tmp/cc0dSt9z.ltrans6.ltrans.o
 .text.what_reg
                0x0000000000441980       0x34 /home/notlean/openwrt-uboost/tmp/cc0dSt9z.ltrans6.ltrans.o
 .text.dot_left
                0x00000000004419b4       0x30 /home/notlean/openwrt-uboost/tmp/cc0dSt9z.ltrans6.ltrans.o
 .text.dot_right
                0x00000000004419e4       0x30 /home/notlean/openwrt-uboost/tmp/cc0dSt9z.ltrans6.ltrans.o
 .text.dot_skip_over_ws
                0x0000000000441a14       0x4c /home/notlean/openwrt-uboost/tmp/cc0dSt9z.ltrans6.ltrans.o
 .text.end_cmd_q
                0x0000000000441a60       0x18 /home/notlean/openwrt-uboost/tmp/cc0dSt9z.ltrans6.ltrans.o
 .text.indent_len
                0x0000000000441a78       0x3c /home/notlean/openwrt-uboost/tmp/cc0dSt9z.ltrans6.ltrans.o
 .text.at_eof   0x0000000000441ab4       0x3c /home/notlean/openwrt-uboost/tmp/cc0dSt9z.ltrans6.ltrans.o
 .text.exec_actions
                0x0000000000441af0       0x84 /home/notlean/openwrt-uboost/tmp/cc0dSt9z.ltrans6.ltrans.o
 .text.func_type
                0x0000000000441b74       0x18 /home/notlean/openwrt-uboost/tmp/cc0dSt9z.ltrans6.ltrans.o
 .text.func_perm
                0x0000000000441b8c       0x48 /home/notlean/openwrt-uboost/tmp/cc0dSt9z.ltrans6.ltrans.o
 .text.func_newer
                0x0000000000441bd4       0x14 /home/notlean/openwrt-uboost/tmp/cc0dSt9z.ltrans6.ltrans.o
 .text.func_user
                0x0000000000441be8       0x14 /home/notlean/openwrt-uboost/tmp/cc0dSt9z.ltrans6.ltrans.o
 .text.func_group
                0x0000000000441bfc       0x14 /home/notlean/openwrt-uboost/tmp/cc0dSt9z.ltrans6.ltrans.o
 .text.func_paren
                0x0000000000441c10       0x14 /home/notlean/openwrt-uboost/tmp/cc0dSt9z.ltrans6.ltrans.o
 .text.func_size
                0x0000000000441c24       0x40 /home/notlean/openwrt-uboost/tmp/cc0dSt9z.ltrans6.ltrans.o
 .text.func_prune
                0x0000000000441c64        0x8 /home/notlean/openwrt-uboost/tmp/cc0dSt9z.ltrans6.ltrans.o
 .text.plus_minus_num
                0x0000000000441c6c       0x1c /home/notlean/openwrt-uboost/tmp/cc0dSt9z.ltrans6.ltrans.o
 .text.cmp_main
                0x0000000000441c88      0x210 /home/notlean/openwrt-uboost/tmp/cc0dSt9z.ltrans6.ltrans.o
                0x0000000000441c88                cmp_main
 .text.sed_xfopen_w
                0x0000000000441e98       0x7c /home/notlean/openwrt-uboost/tmp/cc0dSt9z.ltrans6.ltrans.o
 .text.cleanup_outname
                0x0000000000441f14       0x14 /home/notlean/openwrt-uboost/tmp/cc0dSt9z.ltrans6.ltrans.o
 .text.parse_escapes
                0x0000000000441f28       0xb4 /home/notlean/openwrt-uboost/tmp/cc0dSt9z.ltrans6.ltrans.o
 .text.copy_parsing_escapes
                0x0000000000441fdc       0x8c /home/notlean/openwrt-uboost/tmp/cc0dSt9z.ltrans6.ltrans.o
 .text.index_of_next_unescaped_regexp_delim
                0x0000000000442068      0x104 /home/notlean/openwrt-uboost/tmp/cc0dSt9z.ltrans6.ltrans.o
 .text.parse_regex_delim
                0x000000000044216c       0xa4 /home/notlean/openwrt-uboost/tmp/cc0dSt9z.ltrans6.ltrans.o
 .text.update_filename
                0x0000000000442210       0x3c /home/notlean/openwrt-uboost/tmp/cc0dSt9z.ltrans6.ltrans.o
 .text.get_address.lto_priv.0
                0x000000000044224c      0x120 /home/notlean/openwrt-uboost/tmp/cc0dSt9z.ltrans6.ltrans.o
 .text.skip_thing
                0x000000000044236c      0x154 /home/notlean/openwrt-uboost/tmp/cc0dSt9z.ltrans6.ltrans.o
 .text.parse_file_cmd
                0x00000000004424c0       0x84 /home/notlean/openwrt-uboost/tmp/cc0dSt9z.ltrans6.ltrans.o
 .text.add_cmd  0x0000000000442544      0x5d4 /home/notlean/openwrt-uboost/tmp/cc0dSt9z.ltrans6.ltrans.o
 .text.pipe_putc
                0x0000000000442b18       0x64 /home/notlean/openwrt-uboost/tmp/cc0dSt9z.ltrans6.ltrans.o
 .text.alloc_action
                0x0000000000442b7c       0x78 /home/notlean/openwrt-uboost/tmp/cc0dSt9z.ltrans6.ltrans.o
 .text.puts_maybe_newline
                0x0000000000442bf4       0xc0 /home/notlean/openwrt-uboost/tmp/cc0dSt9z.ltrans6.ltrans.o
 .text.flush_append
                0x0000000000442cb4       0x5c /home/notlean/openwrt-uboost/tmp/cc0dSt9z.ltrans6.ltrans.o
 .text.get_next_line
                0x0000000000442d10      0x128 /home/notlean/openwrt-uboost/tmp/cc0dSt9z.ltrans6.ltrans.o
 .text.add_cmd_block
                0x0000000000442e38       0x54 /home/notlean/openwrt-uboost/tmp/cc0dSt9z.ltrans6.ltrans.o
 .text.find_pair
                0x0000000000442e8c       0xa4 /home/notlean/openwrt-uboost/tmp/cc0dSt9z.ltrans6.ltrans.o
 .text.func_regex
                0x0000000000442f30       0x50 /home/notlean/openwrt-uboost/tmp/cc0dSt9z.ltrans6.ltrans.o
 .text.process_files
                0x0000000000442f80      0x9a0 /home/notlean/openwrt-uboost/tmp/cc0dSt9z.ltrans6.ltrans.o
 .text.func_print
                0x0000000000443920       0x14 /home/notlean/openwrt-uboost/tmp/cc0dSt9z.ltrans6.ltrans.o
 .text.fileAction
                0x0000000000443934      0x110 /home/notlean/openwrt-uboost/tmp/cc0dSt9z.ltrans6.ltrans.o
 .text.sed_main
                0x0000000000443a44      0x2fc /home/notlean/openwrt-uboost/tmp/cc0dSt9z.ltrans6.ltrans.o
                0x0000000000443a44                sed_main
 .text.query_screen_dimensions
                0x0000000000443d40       0x4c /home/notlean/openwrt-uboost/tmp/cc0dSt9z.ltrans6.ltrans.o
 .text.mysleep  0x0000000000443d8c       0x40 /home/notlean/openwrt-uboost/tmp/cc0dSt9z.ltrans6.ltrans.o
 .text.screen_erase
                0x0000000000443dcc       0x18 /home/notlean/openwrt-uboost/tmp/cc0dSt9z.ltrans6.ltrans.o
 .text.new_screen
                0x0000000000443de4       0x70 /home/notlean/openwrt-uboost/tmp/cc0dSt9z.ltrans6.ltrans.o
 .text.rawmode  0x0000000000443e54       0xac /home/notlean/openwrt-uboost/tmp/cc0dSt9z.ltrans6.ltrans.o
 .text.cookmode
                0x0000000000443f00       0x1c /home/notlean/openwrt-uboost/tmp/cc0dSt9z.ltrans6.ltrans.o
 .text.place_cursor
                0x0000000000443f1c       0x78 /home/notlean/openwrt-uboost/tmp/cc0dSt9z.ltrans6.ltrans.o
 .text.go_bottom_and_clear_to_eol
                0x0000000000443f94       0x2c /home/notlean/openwrt-uboost/tmp/cc0dSt9z.ltrans6.ltrans.o
 .text.begin_line
                0x0000000000443fc0       0x40 /home/notlean/openwrt-uboost/tmp/cc0dSt9z.ltrans6.ltrans.o
 .text.prev_line
                0x0000000000444000       0x34 /home/notlean/openwrt-uboost/tmp/cc0dSt9z.ltrans6.ltrans.o
 .text.dot_prev
                0x0000000000444034       0x20 /home/notlean/openwrt-uboost/tmp/cc0dSt9z.ltrans6.ltrans.o
 .text.get_column
                0x0000000000444054       0x34 /home/notlean/openwrt-uboost/tmp/cc0dSt9z.ltrans6.ltrans.o
 .text.dot_begin
                0x0000000000444088       0x20 /home/notlean/openwrt-uboost/tmp/cc0dSt9z.ltrans6.ltrans.o
 .text.move_to_col
                0x00000000004440a8       0x58 /home/notlean/openwrt-uboost/tmp/cc0dSt9z.ltrans6.ltrans.o
 .text.end_line
                0x0000000000444100       0x44 /home/notlean/openwrt-uboost/tmp/cc0dSt9z.ltrans6.ltrans.o
 .text.next_line
                0x0000000000444144       0x38 /home/notlean/openwrt-uboost/tmp/cc0dSt9z.ltrans6.ltrans.o
 .text.find_line
                0x000000000044417c       0x30 /home/notlean/openwrt-uboost/tmp/cc0dSt9z.ltrans6.ltrans.o
 .text.dot_next
                0x00000000004441ac       0x20 /home/notlean/openwrt-uboost/tmp/cc0dSt9z.ltrans6.ltrans.o
 .text.end_screen
                0x00000000004441cc       0x40 /home/notlean/openwrt-uboost/tmp/cc0dSt9z.ltrans6.ltrans.o
 .text.dot_scroll
                0x000000000044420c       0x80 /home/notlean/openwrt-uboost/tmp/cc0dSt9z.ltrans6.ltrans.o
 .text.count_lines
                0x000000000044428c       0x84 /home/notlean/openwrt-uboost/tmp/cc0dSt9z.ltrans6.ltrans.o
 .text.dot_end  0x0000000000444310       0x20 /home/notlean/openwrt-uboost/tmp/cc0dSt9z.ltrans6.ltrans.o
 .text.refresh  0x0000000000444330      0x4d4 /home/notlean/openwrt-uboost/tmp/cc0dSt9z.ltrans6.ltrans.o
 .text.text_hole_make
                0x0000000000444804      0x100 /home/notlean/openwrt-uboost/tmp/cc0dSt9z.ltrans6.ltrans.o
 .text.string_insert
                0x0000000000444904       0x7c /home/notlean/openwrt-uboost/tmp/cc0dSt9z.ltrans6.ltrans.o
 .text.text_hole_delete
                0x0000000000444980       0xcc /home/notlean/openwrt-uboost/tmp/cc0dSt9z.ltrans6.ltrans.o
 .text.readit   0x0000000000444a4c       0x6c /home/notlean/openwrt-uboost/tmp/cc0dSt9z.ltrans6.ltrans.o
 .text.get_one_char
                0x0000000000444ab8       0x74 /home/notlean/openwrt-uboost/tmp/cc0dSt9z.ltrans6.ltrans.o
 .text.Hit_Return
                0x0000000000444b2c       0x48 /home/notlean/openwrt-uboost/tmp/cc0dSt9z.ltrans6.ltrans.o
 .text.show_status_line
                0x0000000000444b74      0x1c0 /home/notlean/openwrt-uboost/tmp/cc0dSt9z.ltrans6.ltrans.o
 .text.redraw   0x0000000000444d34       0x34 /home/notlean/openwrt-uboost/tmp/cc0dSt9z.ltrans6.ltrans.o
 .text.indicate_error
                0x0000000000444d68       0x60 /home/notlean/openwrt-uboost/tmp/cc0dSt9z.ltrans6.ltrans.o
 .text.bound_dot
                0x0000000000444dc8       0x58 /home/notlean/openwrt-uboost/tmp/cc0dSt9z.ltrans6.ltrans.o
 .text.char_insert
                0x0000000000444e20      0x400 /home/notlean/openwrt-uboost/tmp/cc0dSt9z.ltrans6.ltrans.o
 .text.get_input_line
                0x0000000000445220       0xe0 /home/notlean/openwrt-uboost/tmp/cc0dSt9z.ltrans6.ltrans.o
 .text.status_line
                0x0000000000445300       0x8c /home/notlean/openwrt-uboost/tmp/cc0dSt9z.ltrans6.ltrans.o
 .text.status_line_bold
                0x000000000044538c       0xe4 /home/notlean/openwrt-uboost/tmp/cc0dSt9z.ltrans6.ltrans.o
 .text.not_implemented
                0x0000000000445470       0x94 /home/notlean/openwrt-uboost/tmp/cc0dSt9z.ltrans6.ltrans.o
 .text.yank_delete
                0x0000000000445504       0x7c /home/notlean/openwrt-uboost/tmp/cc0dSt9z.ltrans6.ltrans.o
 .text.file_insert
                0x0000000000445580      0x188 /home/notlean/openwrt-uboost/tmp/cc0dSt9z.ltrans6.ltrans.o
 .text.init_text_buffer
                0x0000000000445708       0x8c /home/notlean/openwrt-uboost/tmp/cc0dSt9z.ltrans6.ltrans.o
 .text.file_write
                0x0000000000445794       0x8c /home/notlean/openwrt-uboost/tmp/cc0dSt9z.ltrans6.ltrans.o
 .text.mycmp    0x0000000000445820       0x1c /home/notlean/openwrt-uboost/tmp/cc0dSt9z.ltrans6.ltrans.o
 .text.char_search
                0x000000000044583c       0xd0 /home/notlean/openwrt-uboost/tmp/cc0dSt9z.ltrans6.ltrans.o
 .text.func_print0
                0x000000000044590c       0x24 /home/notlean/openwrt-uboost/tmp/cc0dSt9z.ltrans6.ltrans.o
 .text.print_line
                0x0000000000445930       0xd4 /home/notlean/openwrt-uboost/tmp/cc0dSt9z.ltrans6.ltrans.o
 .text.colon    0x0000000000445a04     0x1010 /home/notlean/openwrt-uboost/tmp/cc0dSt9z.ltrans6.ltrans.o
 .text.do_cmd   0x0000000000446a14     0x12dc /home/notlean/openwrt-uboost/tmp/cc0dSt9z.ltrans6.ltrans.o
 .text.find_range
                0x0000000000447cf0      0x350 /home/notlean/openwrt-uboost/tmp/cc0dSt9z.ltrans6.ltrans.o
 .text.run_cmds
                0x0000000000448040       0x84 /home/notlean/openwrt-uboost/tmp/cc0dSt9z.ltrans6.ltrans.o
 .text.winch_handler
                0x00000000004480c4       0x50 /home/notlean/openwrt-uboost/tmp/cc0dSt9z.ltrans6.ltrans.o
 .text.tstp_handler
                0x0000000000448114       0x58 /home/notlean/openwrt-uboost/tmp/cc0dSt9z.ltrans6.ltrans.o
 .text.int_handler
                0x000000000044816c       0x2c /home/notlean/openwrt-uboost/tmp/cc0dSt9z.ltrans6.ltrans.o
 .text.edit_file
                0x0000000000448198      0x2c8 /home/notlean/openwrt-uboost/tmp/cc0dSt9z.ltrans6.ltrans.o
 .text.vi_main  0x0000000000448460      0x1dc /home/notlean/openwrt-uboost/tmp/cc0dSt9z.ltrans6.ltrans.o
                0x0000000000448460                vi_main
 .text.func_path
                0x000000000044863c       0x2c /home/notlean/openwrt-uboost/tmp/cc0dSt9z.ltrans6.ltrans.o
 .text.func_name
                0x0000000000448668       0xb0 /home/notlean/openwrt-uboost/tmp/cc0dSt9z.ltrans6.ltrans.o
 .text.func_mtime
                0x0000000000448718       0x1c /home/notlean/openwrt-uboost/tmp/cc0dSt9z.ltrans6.ltrans.o
 .text.func_mmin
                0x0000000000448734       0x18 /home/notlean/openwrt-uboost/tmp/cc0dSt9z.ltrans6.ltrans.o
 .text.func_exec
                0x000000000044874c      0x184 /home/notlean/openwrt-uboost/tmp/cc0dSt9z.ltrans6.ltrans.o
 .text.parse_params
                0x00000000004488d0      0x618 /home/notlean/openwrt-uboost/tmp/cc0dSt9z.ltrans6.ltrans.o
 .text.find_main
                0x0000000000448ee8      0x1e8 /home/notlean/openwrt-uboost/tmp/cc0dSt9z.ltrans6.ltrans.o
                0x0000000000448ee8                find_main
 .text.grep_file
                0x00000000004490d0      0x508 /home/notlean/openwrt-uboost/tmp/cc0dSt9z.ltrans6.ltrans.o
 .text.file_action_grep
                0x00000000004495d8       0xd0 /home/notlean/openwrt-uboost/tmp/cc0dSt9z.ltrans6.ltrans.o
 .text.load_pattern_list
                0x00000000004496a8       0x54 /home/notlean/openwrt-uboost/tmp/cc0dSt9z.ltrans6.ltrans.o
 .text.grep_main
                0x00000000004496fc      0x3e0 /home/notlean/openwrt-uboost/tmp/cc0dSt9z.ltrans6.ltrans.o
                0x00000000004496fc                grep_main
 .text.store_param.lto_priv.0
                0x0000000000449adc       0x54 /home/notlean/openwrt-uboost/tmp/cc0dSt9z.ltrans6.ltrans.o
                0x0000000000449adc                store_param.lto_priv.0
 .text.process_stdin.lto_priv.0
                0x0000000000449b30      0x184 /home/notlean/openwrt-uboost/tmp/cc0dSt9z.ltrans6.ltrans.o
                0x0000000000449b30                process_stdin.lto_priv.0
 .text.process0_stdin.lto_priv.0
                0x0000000000449cb4       0xb0 /home/notlean/openwrt-uboost/tmp/cc0dSt9z.ltrans6.ltrans.o
                0x0000000000449cb4                process0_stdin.lto_priv.0
 .text.askpass_timeout
                0x0000000000449d64        0x4 /home/notlean/openwrt-uboost/tmp/cc0dSt9z.ltrans7.ltrans.o
 .text.md5_process_block64.lto_priv.0
                0x0000000000449d68      0x358 /home/notlean/openwrt-uboost/tmp/cc0dSt9z.ltrans7.ltrans.o
                0x0000000000449d68                md5_process_block64.lto_priv.0
 .text.in_ether
                0x000000000044a0c0       0xac /home/notlean/openwrt-uboost/tmp/cc0dSt9z.ltrans7.ltrans.o
                0x000000000044a0c0                in_ether
 .text.remove_chunk
                0x000000000044a16c       0x28 /home/notlean/openwrt-uboost/tmp/cc0dSt9z.ltrans7.ltrans.o
 .text.fast_strtoul_10
                0x000000000044a194       0x48 /home/notlean/openwrt-uboost/tmp/cc0dSt9z.ltrans7.ltrans.o
 .text.true_action.lto_priv.0
                0x000000000044a1dc        0x8 /home/notlean/openwrt-uboost/tmp/cc0dSt9z.ltrans7.ltrans.o
                0x000000000044a1dc                true_action.lto_priv.0
 .text.build_match_prefix
                0x000000000044a1e4      0x300 /home/notlean/openwrt-uboost/tmp/cc0dSt9z.ltrans7.ltrans.o
 .text.bb_ask_y_confirmation_FILE
                0x000000000044a4e4       0x60 /home/notlean/openwrt-uboost/tmp/cc0dSt9z.ltrans7.ltrans.o
 .text.uid2uname_utoa
                0x000000000044a544       0x2c /home/notlean/openwrt-uboost/tmp/cc0dSt9z.ltrans7.ltrans.o
                0x000000000044a544                uid2uname_utoa
 .text.gid2group_utoa
                0x000000000044a570       0x2c /home/notlean/openwrt-uboost/tmp/cc0dSt9z.ltrans7.ltrans.o
                0x000000000044a570                gid2group_utoa
 .text.xgroup2gid
                0x000000000044a59c       0x2c /home/notlean/openwrt-uboost/tmp/cc0dSt9z.ltrans7.ltrans.o
                0x000000000044a59c                xgroup2gid
 .text.get_ug_id
                0x000000000044a5c8       0x4c /home/notlean/openwrt-uboost/tmp/cc0dSt9z.ltrans7.ltrans.o
 .text.quote_special_chars
                0x000000000044a614       0x80 /home/notlean/openwrt-uboost/tmp/cc0dSt9z.ltrans7.ltrans.o
 .text.next     0x000000000044a694      0x144 /home/notlean/openwrt-uboost/tmp/cc0dSt9z.ltrans7.ltrans.o
 .text.bb_pstrcmp
                0x000000000044a7d8        0xc /home/notlean/openwrt-uboost/tmp/cc0dSt9z.ltrans7.ltrans.o
 .text.common64_end
                0x000000000044a7e4       0x90 /home/notlean/openwrt-uboost/tmp/cc0dSt9z.ltrans7.ltrans.o
 .text.md5_end  0x000000000044a874       0x5c /home/notlean/openwrt-uboost/tmp/cc0dSt9z.ltrans7.ltrans.o
                0x000000000044a874                md5_end
 .text.sha1_process_block64
                0x000000000044a8d0      0x17c /home/notlean/openwrt-uboost/tmp/cc0dSt9z.ltrans7.ltrans.o
 .text.sha256_process_block64.lto_priv.0
                0x000000000044aa4c      0x17c /home/notlean/openwrt-uboost/tmp/cc0dSt9z.ltrans7.ltrans.o
                0x000000000044aa4c                sha256_process_block64.lto_priv.0
 .text.sha1_end
                0x000000000044abc8       0xa0 /home/notlean/openwrt-uboost/tmp/cc0dSt9z.ltrans7.ltrans.o
                0x000000000044abc8                sha1_end
 .text.save_command_ps_at_cur_history
                0x000000000044ac68       0x4c /home/notlean/openwrt-uboost/tmp/cc0dSt9z.ltrans7.ltrans.o
 .text.get_user_strings
                0x000000000044acb4       0x4c /home/notlean/openwrt-uboost/tmp/cc0dSt9z.ltrans7.ltrans.o
 .text.get_homedir_or_NULL
                0x000000000044ad00       0x54 /home/notlean/openwrt-uboost/tmp/cc0dSt9z.ltrans7.ltrans.o
 .text.string_checker_helper
                0x000000000044ad54       0x48 /home/notlean/openwrt-uboost/tmp/cc0dSt9z.ltrans7.ltrans.o
 .text.read_to_buf
                0x000000000044ad9c       0x58 /home/notlean/openwrt-uboost/tmp/cc0dSt9z.ltrans7.ltrans.o
 .text.fopen_for_read
                0x000000000044adf4        0xc /home/notlean/openwrt-uboost/tmp/cc0dSt9z.ltrans7.ltrans.o
                0x000000000044adf4                fopen_for_read
 .text.get_uidgid
                0x000000000044ae00      0x130 /home/notlean/openwrt-uboost/tmp/cc0dSt9z.ltrans7.ltrans.o
 .text.bb_perror_nomsg_and_die
                0x000000000044af30        0x8 /home/notlean/openwrt-uboost/tmp/cc0dSt9z.ltrans7.ltrans.o
                0x000000000044af30                bb_perror_nomsg_and_die
 .text.halt_main
                0x000000000044af38       0xb0 /home/notlean/openwrt-uboost/tmp/cc0dSt9z.ltrans7.ltrans.o
                0x000000000044af38                halt_main
 .text.bb_ask_y_confirmation
                0x000000000044afe8        0xc /home/notlean/openwrt-uboost/tmp/cc0dSt9z.ltrans7.ltrans.o
                0x000000000044afe8                bb_ask_y_confirmation
 .text.ask_and_unlink
                0x000000000044aff4       0x80 /home/notlean/openwrt-uboost/tmp/cc0dSt9z.ltrans7.ltrans.o
 .text.auto_string
                0x000000000044b074       0x50 /home/notlean/openwrt-uboost/tmp/cc0dSt9z.ltrans7.ltrans.o
                0x000000000044b074                auto_string
 .text.xgetpwnam
                0x000000000044b0c4       0x28 /home/notlean/openwrt-uboost/tmp/cc0dSt9z.ltrans7.ltrans.o
                0x000000000044b0c4                xgetpwnam
 .text.xuname2uid
                0x000000000044b0ec       0x14 /home/notlean/openwrt-uboost/tmp/cc0dSt9z.ltrans7.ltrans.o
                0x000000000044b0ec                xuname2uid
 .text.xgetpwuid
                0x000000000044b100       0x28 /home/notlean/openwrt-uboost/tmp/cc0dSt9z.ltrans7.ltrans.o
                0x000000000044b100                xgetpwuid
 .text.change_identity
                0x000000000044b128       0x78 /home/notlean/openwrt-uboost/tmp/cc0dSt9z.ltrans7.ltrans.o
                0x000000000044b128                change_identity
 .text.concat_subpath_file
                0x000000000044b1a0       0x30 /home/notlean/openwrt-uboost/tmp/cc0dSt9z.ltrans7.ltrans.o
                0x000000000044b1a0                concat_subpath_file
 .text.get_passwd.lto_priv.0
                0x000000000044b1d0       0x7c /home/notlean/openwrt-uboost/tmp/cc0dSt9z.ltrans7.ltrans.o
                0x000000000044b1d0                get_passwd.lto_priv.0
 .text.crc32_new_table_le
                0x000000000044b24c       0x50 /home/notlean/openwrt-uboost/tmp/cc0dSt9z.ltrans7.ltrans.o
                0x000000000044b24c                crc32_new_table_le
 .text.rewrite.lto_priv.0
                0x000000000044b29c      0x488 /home/notlean/openwrt-uboost/tmp/cc0dSt9z.ltrans7.ltrans.o
                0x000000000044b29c                rewrite.lto_priv.0
 .text.parse_duration_str
                0x000000000044b724       0x18 /home/notlean/openwrt-uboost/tmp/cc0dSt9z.ltrans7.ltrans.o
                0x000000000044b724                parse_duration_str
 .text.endofname
                0x000000000044b73c       0x48 /home/notlean/openwrt-uboost/tmp/cc0dSt9z.ltrans7.ltrans.o
                0x000000000044b73c                endofname
 .text.fclose_if_not_stdin
                0x000000000044b784       0x54 /home/notlean/openwrt-uboost/tmp/cc0dSt9z.ltrans7.ltrans.o
                0x000000000044b784                fclose_if_not_stdin
 .text.fflush_stdout_and_exit
                0x000000000044b7d8       0x30 /home/notlean/openwrt-uboost/tmp/cc0dSt9z.ltrans7.ltrans.o
                0x000000000044b7d8                fflush_stdout_and_exit
 .text.fflush_stdout_and_exit_SUCCESS
                0x000000000044b808        0xc /home/notlean/openwrt-uboost/tmp/cc0dSt9z.ltrans7.ltrans.o
                0x000000000044b808                fflush_stdout_and_exit_SUCCESS
 .text.find_mount_point
                0x000000000044b814      0x118 /home/notlean/openwrt-uboost/tmp/cc0dSt9z.ltrans7.ltrans.o
                0x000000000044b814                find_mount_point
 .text.bb_get_chunk_from_file
                0x000000000044b92c       0xac /home/notlean/openwrt-uboost/tmp/cc0dSt9z.ltrans7.ltrans.o
                0x000000000044b92c                bb_get_chunk_from_file
 .text.xmalloc_fgetline
                0x000000000044b9d8       0x30 /home/notlean/openwrt-uboost/tmp/cc0dSt9z.ltrans7.ltrans.o
                0x000000000044b9d8                xmalloc_fgetline
 .text.get_shell_name
                0x000000000044ba08       0x4c /home/notlean/openwrt-uboost/tmp/cc0dSt9z.ltrans7.ltrans.o
                0x000000000044ba08                get_shell_name
 .text.make_all_argv_opts
                0x000000000044ba54       0x70 /home/notlean/openwrt-uboost/tmp/cc0dSt9z.ltrans7.ltrans.o
                0x000000000044ba54                make_all_argv_opts
 .text.md5_hash
                0x000000000044bac4       0xbc /home/notlean/openwrt-uboost/tmp/cc0dSt9z.ltrans7.ltrans.o
                0x000000000044bac4                md5_hash
 .text.make_human_readable_str
                0x000000000044bb80       0xcc /home/notlean/openwrt-uboost/tmp/cc0dSt9z.ltrans7.ltrans.o
                0x000000000044bb80                make_human_readable_str
 .text.inet_cksum
                0x000000000044bc4c       0x3c /home/notlean/openwrt-uboost/tmp/cc0dSt9z.ltrans7.ltrans.o
                0x000000000044bc4c                inet_cksum
 .text.INET_resolve
                0x000000000044bc88       0xac /home/notlean/openwrt-uboost/tmp/cc0dSt9z.ltrans7.ltrans.o
                0x000000000044bc88                INET_resolve
 .text.INET6_resolve
                0x000000000044bd34       0xb0 /home/notlean/openwrt-uboost/tmp/cc0dSt9z.ltrans7.ltrans.o
                0x000000000044bd34                INET6_resolve
 .text.is_in_ino_dev_hashtable
                0x000000000044bde4       0x70 /home/notlean/openwrt-uboost/tmp/cc0dSt9z.ltrans7.ltrans.o
                0x000000000044bde4                is_in_ino_dev_hashtable
 .text.add_to_ino_dev_hashtable
                0x000000000044be54       0xb4 /home/notlean/openwrt-uboost/tmp/cc0dSt9z.ltrans7.ltrans.o
                0x000000000044be54                add_to_ino_dev_hashtable
 .text.iterate_on_dir
                0x000000000044bf08       0x68 /home/notlean/openwrt-uboost/tmp/cc0dSt9z.ltrans7.ltrans.o
                0x000000000044bf08                iterate_on_dir
 .text.deinit_S.lto_priv.0
                0x000000000044bf70       0x30 /home/notlean/openwrt-uboost/tmp/cc0dSt9z.ltrans7.ltrans.o
                0x000000000044bf70                deinit_S.lto_priv.0
 .text.free_tab_completion_data.lto_priv.0
                0x000000000044bfa0       0x44 /home/notlean/openwrt-uboost/tmp/cc0dSt9z.ltrans7.ltrans.o
                0x000000000044bfa0                free_tab_completion_data.lto_priv.0
 .text.sanitize_env_if_suid
                0x000000000044bfe4       0x60 /home/notlean/openwrt-uboost/tmp/cc0dSt9z.ltrans7.ltrans.o
                0x000000000044bfe4                sanitize_env_if_suid
 .text.bb_make_directory
                0x000000000044c044      0x19c /home/notlean/openwrt-uboost/tmp/cc0dSt9z.ltrans7.ltrans.o
                0x000000000044c044                bb_make_directory
 .text.fstype_matches
                0x000000000044c1e0       0x8c /home/notlean/openwrt-uboost/tmp/cc0dSt9z.ltrans7.ltrans.o
                0x000000000044c1e0                fstype_matches
 .text.bb_mode_string
                0x000000000044c26c       0xb4 /home/notlean/openwrt-uboost/tmp/cc0dSt9z.ltrans7.ltrans.o
                0x000000000044c26c                bb_mode_string
 .text.nuke_str
                0x000000000044c320       0x18 /home/notlean/openwrt-uboost/tmp/cc0dSt9z.ltrans7.ltrans.o
                0x000000000044c320                nuke_str
 .text.string_checker.lto_priv.0
                0x000000000044c338       0x98 /home/notlean/openwrt-uboost/tmp/cc0dSt9z.ltrans7.ltrans.o
                0x000000000044c338                string_checker.lto_priv.0
 .text.config_open2
                0x000000000044c3d0       0x2c /home/notlean/openwrt-uboost/tmp/cc0dSt9z.ltrans7.ltrans.o
                0x000000000044c3d0                config_open2
 .text.config_close
                0x000000000044c3fc       0x34 /home/notlean/openwrt-uboost/tmp/cc0dSt9z.ltrans7.ltrans.o
                0x000000000044c3fc                config_close
 .text.bb_parse_mode
                0x000000000044c430      0x230 /home/notlean/openwrt-uboost/tmp/cc0dSt9z.ltrans7.ltrans.o
                0x000000000044c430                bb_parse_mode
 .text.write_pidfile
                0x000000000044c660       0x98 /home/notlean/openwrt-uboost/tmp/cc0dSt9z.ltrans7.ltrans.o
                0x000000000044c660                write_pidfile
 .text.printable_string2
                0x000000000044c6f8       0x78 /home/notlean/openwrt-uboost/tmp/cc0dSt9z.ltrans7.ltrans.o
                0x000000000044c6f8                printable_string2
 .text.bb_process_escape_sequence
                0x000000000044c770       0xd0 /home/notlean/openwrt-uboost/tmp/cc0dSt9z.ltrans7.ltrans.o
                0x000000000044c770                bb_process_escape_sequence
 .text.read_cmdline
                0x000000000044c840      0x190 /home/notlean/openwrt-uboost/tmp/cc0dSt9z.ltrans7.ltrans.o
                0x000000000044c840                read_cmdline
 .text.i64c.lto_priv.0
                0x000000000044c9d0       0x40 /home/notlean/openwrt-uboost/tmp/cc0dSt9z.ltrans7.ltrans.o
                0x000000000044c9d0                i64c.lto_priv.0
 .text.pw_encrypt
                0x000000000044ca10       0x28 /home/notlean/openwrt-uboost/tmp/cc0dSt9z.ltrans7.ltrans.o
                0x000000000044ca10                pw_encrypt
 .text.xread    0x000000000044ca38       0x30 /home/notlean/openwrt-uboost/tmp/cc0dSt9z.ltrans7.ltrans.o
                0x000000000044ca38                xread
 .text.recursive_action1.lto_priv.0
                0x000000000044ca68      0x1b8 /home/notlean/openwrt-uboost/tmp/cc0dSt9z.ltrans7.ltrans.o
                0x000000000044ca68                recursive_action1.lto_priv.0
 .text.remove_file
                0x000000000044cc20      0x200 /home/notlean/openwrt-uboost/tmp/cc0dSt9z.ltrans7.ltrans.o
                0x000000000044cc20                remove_file
 .text.rtc_xopen
                0x000000000044ce20       0xcc /home/notlean/openwrt-uboost/tmp/cc0dSt9z.ltrans7.ltrans.o
                0x000000000044ce20                rtc_xopen
 .text.safe_gethostname
                0x000000000044ceec       0x3c /home/notlean/openwrt-uboost/tmp/cc0dSt9z.ltrans7.ltrans.o
                0x000000000044ceec                safe_gethostname
 .text.safe_poll
                0x000000000044cf28       0x74 /home/notlean/openwrt-uboost/tmp/cc0dSt9z.ltrans7.ltrans.o
                0x000000000044cf28                safe_poll
 .text.read_key
                0x000000000044cf9c      0x2cc /home/notlean/openwrt-uboost/tmp/cc0dSt9z.ltrans7.ltrans.o
                0x000000000044cf9c                read_key
 .text.nonblock_immune_read
                0x000000000044d268       0x70 /home/notlean/openwrt-uboost/tmp/cc0dSt9z.ltrans7.ltrans.o
                0x000000000044d268                nonblock_immune_read
 .text.setup_environment
                0x000000000044d2d8      0x118 /home/notlean/openwrt-uboost/tmp/cc0dSt9z.ltrans7.ltrans.o
                0x000000000044d2d8                setup_environment
 .text.skip_whitespace
                0x000000000044d3f0       0x24 /home/notlean/openwrt-uboost/tmp/cc0dSt9z.ltrans7.ltrans.o
                0x000000000044d3f0                skip_whitespace
 .text.bb_dump_add
                0x000000000044d414      0x1f0 /home/notlean/openwrt-uboost/tmp/cc0dSt9z.ltrans7.ltrans.o
                0x000000000044d414                bb_dump_add
 .text.config_read
                0x000000000044d604      0x2e8 /home/notlean/openwrt-uboost/tmp/cc0dSt9z.ltrans7.ltrans.o
                0x000000000044d604                config_read
 .text.skip_non_whitespace
                0x000000000044d8ec       0x28 /home/notlean/openwrt-uboost/tmp/cc0dSt9z.ltrans7.ltrans.o
                0x000000000044d8ec                skip_non_whitespace
 .text.trim     0x000000000044d914       0x7c /home/notlean/openwrt-uboost/tmp/cc0dSt9z.ltrans7.ltrans.o
                0x000000000044d914                trim
 .text.get_signum
                0x000000000044d990       0x80 /home/notlean/openwrt-uboost/tmp/cc0dSt9z.ltrans7.ltrans.o
                0x000000000044d990                get_signum
 .text.fopen_or_warn
                0x000000000044da10       0x30 /home/notlean/openwrt-uboost/tmp/cc0dSt9z.ltrans7.ltrans.o
                0x000000000044da10                fopen_or_warn
 .text.fopen_or_warn_stdin
                0x000000000044da40       0x3c /home/notlean/openwrt-uboost/tmp/cc0dSt9z.ltrans7.ltrans.o
                0x000000000044da40                fopen_or_warn_stdin
 .text.xfopen_for_read
                0x000000000044da7c        0xc /home/notlean/openwrt-uboost/tmp/cc0dSt9z.ltrans7.ltrans.o
                0x000000000044da7c                xfopen_for_read
 .text.xargs_main
                0x000000000044da88      0x374 /home/notlean/openwrt-uboost/tmp/cc0dSt9z.ltrans7.ltrans.o
                0x000000000044da88                xargs_main
 .text.xfdopen_helper.lto_priv.0
                0x000000000044ddfc       0x34 /home/notlean/openwrt-uboost/tmp/cc0dSt9z.ltrans7.ltrans.o
                0x000000000044ddfc                xfdopen_helper.lto_priv.0
 .text.xfopen_stdin
                0x000000000044de30       0x18 /home/notlean/openwrt-uboost/tmp/cc0dSt9z.ltrans7.ltrans.o
                0x000000000044de30                xfopen_stdin
 .text.open_or_warn_stdin
                0x000000000044de48       0x38 /home/notlean/openwrt-uboost/tmp/cc0dSt9z.ltrans7.ltrans.o
                0x000000000044de48                open_or_warn_stdin
 .text.bb_cat   0x000000000044de80       0x70 /home/notlean/openwrt-uboost/tmp/cc0dSt9z.ltrans7.ltrans.o
                0x000000000044de80                bb_cat
 .text.setsockopt_int
                0x000000000044def0       0x1c /home/notlean/openwrt-uboost/tmp/cc0dSt9z.ltrans7.ltrans.o
                0x000000000044def0                setsockopt_int
 .text.setsockopt_SOL_SOCKET_1
                0x000000000044df0c       0x10 /home/notlean/openwrt-uboost/tmp/cc0dSt9z.ltrans7.ltrans.o
                0x000000000044df0c                setsockopt_SOL_SOCKET_1
 .text.get_sock_lsa
                0x000000000044df1c       0xdc /home/notlean/openwrt-uboost/tmp/cc0dSt9z.ltrans7.ltrans.o
                0x000000000044df1c                get_sock_lsa
 .text.xconnect
                0x000000000044dff8       0x58 /home/notlean/openwrt-uboost/tmp/cc0dSt9z.ltrans7.ltrans.o
                0x000000000044dff8                xconnect
 .text.set_nport
                0x000000000044e050       0x20 /home/notlean/openwrt-uboost/tmp/cc0dSt9z.ltrans7.ltrans.o
                0x000000000044e050                set_nport
 .text.str2sockaddr.lto_priv.0
                0x000000000044e070      0x2c8 /home/notlean/openwrt-uboost/tmp/cc0dSt9z.ltrans7.ltrans.o
                0x000000000044e070                str2sockaddr.lto_priv.0
 .text.sockaddr2str.lto_priv.0
                0x000000000044e338       0xa4 /home/notlean/openwrt-uboost/tmp/cc0dSt9z.ltrans7.ltrans.o
                0x000000000044e338                sockaddr2str.lto_priv.0
 .text.xmalloc_sockaddr2dotted_noport
                0x000000000044e3dc        0x8 /home/notlean/openwrt-uboost/tmp/cc0dSt9z.ltrans7.ltrans.o
                0x000000000044e3dc                xmalloc_sockaddr2dotted_noport
 .text.INET_rresolve
                0x000000000044e3e4      0x138 /home/notlean/openwrt-uboost/tmp/cc0dSt9z.ltrans7.ltrans.o
                0x000000000044e3e4                INET_rresolve
 .text.xmalloc_readlink
                0x000000000044e51c       0x70 /home/notlean/openwrt-uboost/tmp/cc0dSt9z.ltrans7.ltrans.o
                0x000000000044e51c                xmalloc_readlink
 .text.procps_scan
                0x000000000044e58c      0x3e8 /home/notlean/openwrt-uboost/tmp/cc0dSt9z.ltrans7.ltrans.o
                0x000000000044e58c                procps_scan
 .text.update_passwd
                0x000000000044e974      0x450 /home/notlean/openwrt-uboost/tmp/cc0dSt9z.ltrans7.ltrans.o
                0x000000000044e974                update_passwd
 .text.xmalloc_readlink_or_warn
                0x000000000044edc4       0x60 /home/notlean/openwrt-uboost/tmp/cc0dSt9z.ltrans7.ltrans.o
                0x000000000044edc4                xmalloc_readlink_or_warn
 .text.copy_file
                0x000000000044ee24      0x634 /home/notlean/openwrt-uboost/tmp/cc0dSt9z.ltrans7.ltrans.o
                0x000000000044ee24                copy_file
 .text.xmalloc_realpath
                0x000000000044f458       0x28 /home/notlean/openwrt-uboost/tmp/cc0dSt9z.ltrans7.ltrans.o
                0x000000000044f458                xmalloc_realpath
 .text.xrealloc_vector_helper
                0x000000000044f480       0x68 /home/notlean/openwrt-uboost/tmp/cc0dSt9z.ltrans7.ltrans.o
                0x000000000044f480                xrealloc_vector_helper
 .text.find_pid_by_name
                0x000000000044f4e8      0x114 /home/notlean/openwrt-uboost/tmp/cc0dSt9z.ltrans7.ltrans.o
                0x000000000044f4e8                find_pid_by_name
 .text.add_match
                0x000000000044f5fc       0x74 /home/notlean/openwrt-uboost/tmp/cc0dSt9z.ltrans7.ltrans.o
 .text.complete_cmd_dir_file
                0x000000000044f670      0x348 /home/notlean/openwrt-uboost/tmp/cc0dSt9z.ltrans7.ltrans.o
 .text.get_cached.lto_priv.0
                0x000000000044f9b8       0xd0 /home/notlean/openwrt-uboost/tmp/cc0dSt9z.ltrans7.ltrans.o
                0x000000000044f9b8                get_cached.lto_priv.0
 .text.xregcomp
                0x000000000044fa88       0x7c /home/notlean/openwrt-uboost/tmp/cc0dSt9z.ltrans7.ltrans.o
                0x000000000044fa88                xregcomp
 .text.parse_chown_usergroup_or_die
                0x000000000044fb04       0xb0 /home/notlean/openwrt-uboost/tmp/cc0dSt9z.ltrans7.ltrans.o
                0x000000000044fb04                parse_chown_usergroup_or_die
 .text.setup_transformer_on_fd.constprop.0
                0x000000000044fbb4       0x6c /home/notlean/openwrt-uboost/tmp/cc0dSt9z.ltrans7.ltrans.o
                0x000000000044fbb4                setup_transformer_on_fd.constprop.0
 .text.redirectsafe.constprop.0
                0x000000000044fc20       0xb0 /home/notlean/openwrt-uboost/tmp/cc0dSt9z.ltrans7.ltrans.o
                0x000000000044fc20                redirectsafe.constprop.0
 .text.xrealloc_getcwd_or_warn.constprop.0
                0x000000000044fcd0       0x94 /home/notlean/openwrt-uboost/tmp/cc0dSt9z.ltrans7.ltrans.o
                0x000000000044fcd0                xrealloc_getcwd_or_warn.constprop.0
 .text.bb_simplify_path
                0x000000000044fd64       0xfc /home/notlean/openwrt-uboost/tmp/cc0dSt9z.ltrans7.ltrans.o
                0x000000000044fd64                bb_simplify_path
 .text.xmalloc_realpath_coreutils
                0x000000000044fe60      0x194 /home/notlean/openwrt-uboost/tmp/cc0dSt9z.ltrans7.ltrans.o
                0x000000000044fe60                xmalloc_realpath_coreutils
 .text.ash_msg_and_raise.constprop.0
                0x000000000044fff4       0x7c /home/notlean/openwrt-uboost/tmp/cc0dSt9z.ltrans7.ltrans.o
                0x000000000044fff4                ash_msg_and_raise.constprop.0
 .text.listvars.constprop.0
                0x0000000000450070       0xb0 /home/notlean/openwrt-uboost/tmp/cc0dSt9z.ltrans7.ltrans.o
                0x0000000000450070                listvars.constprop.0
 .text.legal_pathopt.constprop.0
                0x0000000000450120       0x44 /home/notlean/openwrt-uboost/tmp/cc0dSt9z.ltrans7.ltrans.o
                0x0000000000450120                legal_pathopt.constprop.0
 .text.xmalloc_read.constprop.0
                0x0000000000450164       0xd4 /home/notlean/openwrt-uboost/tmp/cc0dSt9z.ltrans7.ltrans.o
                0x0000000000450164                xmalloc_read.constprop.0
 .text.smart_ulltoa5.constprop.0
                0x0000000000450238      0x184 /home/notlean/openwrt-uboost/tmp/cc0dSt9z.ltrans7.ltrans.o
                0x0000000000450238                smart_ulltoa5.constprop.0
 .text.udhcp_option_idx.constprop.0
                0x00000000004503bc       0x90 /home/notlean/openwrt-uboost/tmp/cc0dSt9z.ltrans7.ltrans.o
                0x00000000004503bc                udhcp_option_idx.constprop.0
 .text.udhcp_insert_new_option.constprop.0
                0x000000000045044c       0x74 /home/notlean/openwrt-uboost/tmp/cc0dSt9z.ltrans7.ltrans.o
                0x000000000045044c                udhcp_insert_new_option.constprop.0
 .text.attach_option.constprop.0
                0x00000000004504c0      0x2f4 /home/notlean/openwrt-uboost/tmp/cc0dSt9z.ltrans7.ltrans.o
                0x00000000004504c0                attach_option.constprop.0
 .text.udhcp_send_raw_packet.constprop.0
                0x00000000004507b4      0x210 /home/notlean/openwrt-uboost/tmp/cc0dSt9z.ltrans7.ltrans.o
                0x00000000004507b4                udhcp_send_raw_packet.constprop.0
 .text.ll_addr_n2a.constprop.0
                0x00000000004509c4       0xe8 /home/notlean/openwrt-uboost/tmp/cc0dSt9z.ltrans7.ltrans.o
                0x00000000004509c4                ll_addr_n2a.constprop.0
 .text.sendping_tail.constprop.0
                0x0000000000450aac      0x138 /home/notlean/openwrt-uboost/tmp/cc0dSt9z.ltrans7.ltrans.o
                0x0000000000450aac                sendping_tail.constprop.0
 .text.recv_from_to.constprop.0
                0x0000000000450be4      0x14c /home/notlean/openwrt-uboost/tmp/cc0dSt9z.ltrans7.ltrans.o
                0x0000000000450be4                recv_from_to.constprop.0
 .text.xsocket_type.constprop.0
                0x0000000000450d30       0xb4 /home/notlean/openwrt-uboost/tmp/cc0dSt9z.ltrans7.ltrans.o
                0x0000000000450d30                xsocket_type.constprop.0
 .text.if_readlist_proc.constprop.0
                0x0000000000450de4      0x238 /home/notlean/openwrt-uboost/tmp/cc0dSt9z.ltrans7.ltrans.o
                0x0000000000450de4                if_readlist_proc.constprop.0
 .text.log7.constprop.0
                0x000000000045101c       0x94 /home/notlean/openwrt-uboost/tmp/cc0dSt9z.ltrans7.ltrans.o
                0x000000000045101c                log7.constprop.0
 .text.rta_addattr32.constprop.0.isra.0
                0x00000000004510b0       0x84 /home/notlean/openwrt-uboost/tmp/cc0dSt9z.ltrans7.ltrans.o
                0x00000000004510b0                rta_addattr32.constprop.0.isra.0
 .text.setsockopt_1.isra.0
                0x0000000000451134        0x8 /home/notlean/openwrt-uboost/tmp/cc0dSt9z.ltrans7.ltrans.o
                0x0000000000451134                setsockopt_1.isra.0
 .text.del_loop.isra.0
                0x000000000045113c       0x34 /home/notlean/openwrt-uboost/tmp/cc0dSt9z.ltrans7.ltrans.o
                0x000000000045113c                del_loop.isra.0
 .text.bb_dump_size.isra.0
                0x0000000000451170      0x154 /home/notlean/openwrt-uboost/tmp/cc0dSt9z.ltrans7.ltrans.o
                0x0000000000451170                bb_dump_size.isra.0
 .text.time_cmp.isra.0
                0x00000000004512c4       0x80 /home/notlean/openwrt-uboost/tmp/cc0dSt9z.ltrans7.ltrans.o
                0x00000000004512c4                time_cmp.isra.0
 .text.text_yank.isra.0
                0x0000000000451344       0x68 /home/notlean/openwrt-uboost/tmp/cc0dSt9z.ltrans7.ltrans.o
                0x0000000000451344                text_yank.isra.0
 .text.awk_exit.isra.0
                0x00000000004513ac       0x80 /home/notlean/openwrt-uboost/tmp/cc0dSt9z.ltrans7.ltrans.o
                0x00000000004513ac                awk_exit.isra.0
 .text.setvar_u.isra.0
                0x000000000045142c       0x1c /home/notlean/openwrt-uboost/tmp/cc0dSt9z.ltrans7.ltrans.o
                0x000000000045142c                setvar_u.isra.0
 .text.clrvar.isra.0
                0x0000000000451448       0x38 /home/notlean/openwrt-uboost/tmp/cc0dSt9z.ltrans7.ltrans.o
                0x0000000000451448                clrvar.isra.0
 .text.dup2_or_raise.isra.0
                0x0000000000451480       0x3c /home/notlean/openwrt-uboost/tmp/cc0dSt9z.ltrans7.ltrans.o
                0x0000000000451480                dup2_or_raise.isra.0
 .text.pushredir.isra.0
                0x00000000004514bc       0x88 /home/notlean/openwrt-uboost/tmp/cc0dSt9z.ltrans7.ltrans.o
                0x00000000004514bc                pushredir.isra.0
 .text.scale.isra.0
                0x0000000000451544       0x14 /home/notlean/openwrt-uboost/tmp/cc0dSt9z.ltrans7.ltrans.o
                0x0000000000451544                scale.isra.0
 .text.xmalloc_optname_optval.isra.0
                0x0000000000451558      0x468 /home/notlean/openwrt-uboost/tmp/cc0dSt9z.ltrans7.ltrans.o
                0x0000000000451558                xmalloc_optname_optval.isra.0
 .text.send_select.isra.0
                0x00000000004519c0       0xd8 /home/notlean/openwrt-uboost/tmp/cc0dSt9z.ltrans7.ltrans.o
                0x00000000004519c0                send_select.isra.0
 .text.send_discover.isra.0
                0x0000000000451a98       0x9c /home/notlean/openwrt-uboost/tmp/cc0dSt9z.ltrans7.ltrans.o
                0x0000000000451a98                send_discover.isra.0
 .text.get_addr.isra.0
                0x0000000000451b34       0x54 /home/notlean/openwrt-uboost/tmp/cc0dSt9z.ltrans7.ltrans.o
                0x0000000000451b34                get_addr.isra.0
 .text.ll_init_map.isra.0
                0x0000000000451b88       0x2c /home/notlean/openwrt-uboost/tmp/cc0dSt9z.ltrans7.ltrans.o
                0x0000000000451b88                ll_init_map.isra.0
 .text.addattr_l.isra.0
                0x0000000000451bb4       0x90 /home/notlean/openwrt-uboost/tmp/cc0dSt9z.ltrans7.ltrans.o
                0x0000000000451bb4                addattr_l.isra.0
 .text.addattr32.isra.0
                0x0000000000451c44       0x84 /home/notlean/openwrt-uboost/tmp/cc0dSt9z.ltrans7.ltrans.o
                0x0000000000451c44                addattr32.isra.0
 .text.handle_errors.isra.0
                0x0000000000451cc8       0x58 /home/notlean/openwrt-uboost/tmp/cc0dSt9z.ltrans7.ltrans.o
                0x0000000000451cc8                handle_errors.isra.0
 .text.bb_strtoll.constprop.0
                0x0000000000451d20       0x74 /home/notlean/openwrt-uboost/tmp/cc0dSt9z.ltrans7.ltrans.o
                0x0000000000451d20                bb_strtoll.constprop.0
 .text.BB_EXECVP.isra.0
                0x0000000000451d94       0x3c /home/notlean/openwrt-uboost/tmp/cc0dSt9z.ltrans7.ltrans.o
                0x0000000000451d94                BB_EXECVP.isra.0
 .text.bb_xioctl.isra.0
                0x0000000000451dd0       0x20 /home/notlean/openwrt-uboost/tmp/cc0dSt9z.ltrans7.ltrans.o
                0x0000000000451dd0                bb_xioctl.isra.0
 .text.fputs_stdout.isra.0
                0x0000000000451df0        0xc /home/notlean/openwrt-uboost/tmp/cc0dSt9z.ltrans7.ltrans.o
                0x0000000000451df0                fputs_stdout.isra.0
 .text.display.lto_priv.0
                0x0000000000451dfc      0x74c /home/notlean/openwrt-uboost/tmp/cc0dSt9z.ltrans7.ltrans.o
                0x0000000000451dfc                display.lto_priv.0
 .text.put_prompt_custom
                0x0000000000452548       0x44 /home/notlean/openwrt-uboost/tmp/cc0dSt9z.ltrans7.ltrans.o
 .text.parse_and_put_prompt.lto_priv.0
                0x000000000045258c      0x46c /home/notlean/openwrt-uboost/tmp/cc0dSt9z.ltrans7.ltrans.o
                0x000000000045258c                parse_and_put_prompt.lto_priv.0
 .text.bb_putchar.isra.0
                0x00000000004529f8        0x4 /home/notlean/openwrt-uboost/tmp/cc0dSt9z.ltrans7.ltrans.o
                0x00000000004529f8                bb_putchar.isra.0
 .text.put_cur_glyph_and_inc_cursor.lto_priv.0
                0x00000000004529fc       0x70 /home/notlean/openwrt-uboost/tmp/cc0dSt9z.ltrans7.ltrans.o
                0x00000000004529fc                put_cur_glyph_and_inc_cursor.lto_priv.0
 .text.put_till_end_and_adv_cursor.lto_priv.0
                0x0000000000452a6c       0x28 /home/notlean/openwrt-uboost/tmp/cc0dSt9z.ltrans7.ltrans.o
                0x0000000000452a6c                put_till_end_and_adv_cursor.lto_priv.0
 .text.input_forward.lto_priv.0
                0x0000000000452a94       0x1c /home/notlean/openwrt-uboost/tmp/cc0dSt9z.ltrans7.ltrans.o
                0x0000000000452a94                input_forward.lto_priv.0
 .text.ctrl_right.lto_priv.0
                0x0000000000452ab0       0x78 /home/notlean/openwrt-uboost/tmp/cc0dSt9z.ltrans7.ltrans.o
                0x0000000000452ab0                ctrl_right.lto_priv.0
 .text.goto_new_line.lto_priv.0
                0x0000000000452b28       0x34 /home/notlean/openwrt-uboost/tmp/cc0dSt9z.ltrans7.ltrans.o
                0x0000000000452b28                goto_new_line.lto_priv.0
 .text.input_backward.lto_priv.0
                0x0000000000452b5c       0xc8 /home/notlean/openwrt-uboost/tmp/cc0dSt9z.ltrans7.ltrans.o
                0x0000000000452b5c                input_backward.lto_priv.0
 .text.input_delete.lto_priv.0
                0x0000000000452c24       0x78 /home/notlean/openwrt-uboost/tmp/cc0dSt9z.ltrans7.ltrans.o
                0x0000000000452c24                input_delete.lto_priv.0
 .text.input_backspace.lto_priv.0
                0x0000000000452c9c       0x28 /home/notlean/openwrt-uboost/tmp/cc0dSt9z.ltrans7.ltrans.o
                0x0000000000452c9c                input_backspace.lto_priv.0
 .text.ctrl_left.lto_priv.0
                0x0000000000452cc4       0x88 /home/notlean/openwrt-uboost/tmp/cc0dSt9z.ltrans7.ltrans.o
                0x0000000000452cc4                ctrl_left.lto_priv.0
 .text.draw_custom.lto_priv.0
                0x0000000000452d4c       0x58 /home/notlean/openwrt-uboost/tmp/cc0dSt9z.ltrans7.ltrans.o
                0x0000000000452d4c                draw_custom.lto_priv.0
 .text.get_previous_history.lto_priv.0
                0x0000000000452da4       0x5c /home/notlean/openwrt-uboost/tmp/cc0dSt9z.ltrans7.ltrans.o
                0x0000000000452da4                get_previous_history.lto_priv.0
 .text.input_tab.lto_priv.0
                0x0000000000452e00      0x410 /home/notlean/openwrt-uboost/tmp/cc0dSt9z.ltrans7.ltrans.o
                0x0000000000452e00                input_tab.lto_priv.0
 .text.get_next_history.lto_priv.0
                0x0000000000453210       0x50 /home/notlean/openwrt-uboost/tmp/cc0dSt9z.ltrans7.ltrans.o
                0x0000000000453210                get_next_history.lto_priv.0
 .text.bb_ask_noecho.constprop.0
                0x0000000000453260      0x17c /home/notlean/openwrt-uboost/tmp/cc0dSt9z.ltrans7.ltrans.o
                0x0000000000453260                bb_ask_noecho.constprop.0
 .text.tcsetattr_stdin_TCSANOW.isra.0
                0x00000000004533dc       0x10 /home/notlean/openwrt-uboost/tmp/cc0dSt9z.ltrans7.ltrans.o
                0x00000000004533dc                tcsetattr_stdin_TCSANOW.isra.0
 .text.full_write2_str.isra.0
                0x00000000004533ec       0x20 /home/notlean/openwrt-uboost/tmp/cc0dSt9z.ltrans7.ltrans.o
                0x00000000004533ec                full_write2_str.isra.0
 .text.strncpy_IFNAMSIZ.isra.0
                0x000000000045340c        0x8 /home/notlean/openwrt-uboost/tmp/cc0dSt9z.ltrans7.ltrans.o
                0x000000000045340c                strncpy_IFNAMSIZ.isra.0
 .text.setsockopt_bindtodevice
                0x0000000000453414       0x58 /home/notlean/openwrt-uboost/tmp/cc0dSt9z.ltrans7.ltrans.o
                0x0000000000453414                setsockopt_bindtodevice
 .text.common_ping_main.isra.0
                0x000000000045346c      0x830 /home/notlean/openwrt-uboost/tmp/cc0dSt9z.ltrans7.ltrans.o
                0x000000000045346c                common_ping_main.isra.0
 .text.udhcp_read_interface.constprop.0
                0x0000000000453c9c      0x118 /home/notlean/openwrt-uboost/tmp/cc0dSt9z.ltrans7.ltrans.o
                0x0000000000453c9c                udhcp_read_interface.constprop.0
 .text.ndelay_off.isra.0
                0x0000000000453db4       0x30 /home/notlean/openwrt-uboost/tmp/cc0dSt9z.ltrans7.ltrans.o
                0x0000000000453db4                ndelay_off.isra.0
 *(SORT_BY_ALIGNMENT(.gnu.warning))

.fini           0x0000000000453de4       0x10
 *(SORT_NONE(.fini))
 .fini          0x0000000000453de4        0x8 /home/notlean/openwrt-uboost/staging_dir/toolchain-aarch64_cortex-a53_gcc-12.3.0_musl/lib/gcc/aarch64-openwrt-linux-musl/12.3.0/../../../../aarch64-openwrt-linux-musl/lib/crti.o
                0x0000000000453de4                _fini
 .fini          0x0000000000453dec        0x8 /home/notlean/openwrt-uboost/staging_dir/toolchain-aarch64_cortex-a53_gcc-12.3.0_musl/lib/gcc/aarch64-openwrt-linux-musl/12.3.0/../../../../aarch64-openwrt-linux-musl/lib/crtn.o
                [!provide]                        PROVIDE (__etext = .)
                [!provide]                        PROVIDE (_etext = .)
                [!provide]                        PROVIDE (etext = .)

.rodata         0x0000000000453df8    0x122c6
 *(SORT_BY_ALIGNMENT(.rodata) SORT_BY_ALIGNMENT(.rodata.*) SORT_BY_ALIGNMENT(.gnu.linkonce.r.*))
 .rodata.unspec_aftype
                0x0000000000453df8       0x50 /home/notlean/openwrt-uboost/tmp/cc0dSt9z.ltrans0.ltrans.o
 .rodata.inet6_aftype
                0x0000000000453e48       0x50 /home/notlean/openwrt-uboost/tmp/cc0dSt9z.ltrans0.ltrans.o
 .rodata.inet_aftype
                0x0000000000453e98       0x50 /home/notlean/openwrt-uboost/tmp/cc0dSt9z.ltrans0.ltrans.o
 .rodata.sit_hwtype
                0x0000000000453ee8       0x38 /home/notlean/openwrt-uboost/tmp/cc0dSt9z.ltrans0.ltrans.o
 .rodata.unspec_hwtype
                0x0000000000453f20       0x38 /home/notlean/openwrt-uboost/tmp/cc0dSt9z.ltrans0.ltrans.o
 .rodata.ppp_hwtype
                0x0000000000453f58       0x38 /home/notlean/openwrt-uboost/tmp/cc0dSt9z.ltrans0.ltrans.o
 .rodata.ether_hwtype
                0x0000000000453f90       0x38 /home/notlean/openwrt-uboost/tmp/cc0dSt9z.ltrans0.ltrans.o
 .rodata.loop_hwtype
                0x0000000000453fc8       0x38 /home/notlean/openwrt-uboost/tmp/cc0dSt9z.ltrans0.ltrans.o
 .rodata.rcodes
                0x0000000000454000       0x80 /home/notlean/openwrt-uboost/tmp/cc0dSt9z.ltrans0.ltrans.o
 .rodata.CSWTCH.80
                0x0000000000454080       0x28 /home/notlean/openwrt-uboost/tmp/cc0dSt9z.ltrans0.ltrans.o
 .rodata.tcp_state
                0x00000000004540a8       0x60 /home/notlean/openwrt-uboost/tmp/cc0dSt9z.ltrans0.ltrans.o
 .rodata.ip_func_ptrs.0
                0x0000000000454108       0x38 /home/notlean/openwrt-uboost/tmp/cc0dSt9z.ltrans0.ltrans.o
 .rodata.aftypes
                0x0000000000454140       0x20 /home/notlean/openwrt-uboost/tmp/cc0dSt9z.ltrans0.ltrans.o
 .rodata.hwtypes
                0x0000000000454160       0x30 /home/notlean/openwrt-uboost/tmp/cc0dSt9z.ltrans0.ltrans.o
 .rodata.if_port_text
                0x0000000000454190       0x40 /home/notlean/openwrt-uboost/tmp/cc0dSt9z.ltrans0.ltrans.o
 .rodata.Arg1Opt
                0x00000000004541d0       0xb0 /home/notlean/openwrt-uboost/tmp/cc0dSt9z.ltrans0.ltrans.o
 .rodata.OptArray
                0x0000000000454280      0x130 /home/notlean/openwrt-uboost/tmp/cc0dSt9z.ltrans0.ltrans.o
 .rodata.bb_null_long_options
                0x00000000004543b0       0x20 /home/notlean/openwrt-uboost/tmp/cc0dSt9z.ltrans0.ltrans.o
 .rodata.applet_main
                0x00000000004543d0      0x3b0 /home/notlean/openwrt-uboost/tmp/cc0dSt9z.ltrans0.ltrans.o
 .rodata.cst8   0x0000000000454780       0x40 /home/notlean/openwrt-uboost/tmp/cc0dSt9z.ltrans0.ltrans.o
 .rodata.init_tab.0
                0x00000000004547c0       0x68 /home/notlean/openwrt-uboost/tmp/cc0dSt9z.ltrans1.ltrans.o
 .rodata.ttab.0
                0x0000000000454828       0x98 /home/notlean/openwrt-uboost/tmp/cc0dSt9z.ltrans1.ltrans.o
 .rodata.ttab6.1
                0x00000000004548c0       0x90 /home/notlean/openwrt-uboost/tmp/cc0dSt9z.ltrans1.ltrans.o
 .rodata.cst8   0x0000000000454950        0x8 /home/notlean/openwrt-uboost/tmp/cc0dSt9z.ltrans1.ltrans.o
                                         0x10 (size before relaxing)
 .rodata.tokname_array.lto_priv.0
                0x0000000000454958       0xf0 /home/notlean/openwrt-uboost/tmp/cc0dSt9z.ltrans2.ltrans.o
                0x0000000000454958                tokname_array.lto_priv.0
 .rodata.optletters_optnames.lto_priv.0
                0x0000000000454a48       0x88 /home/notlean/openwrt-uboost/tmp/cc0dSt9z.ltrans2.ltrans.o
                0x0000000000454a48                optletters_optnames.lto_priv.0
 .rodata.add_strings
                0x0000000000454ad0       0x28 /home/notlean/openwrt-uboost/tmp/cc0dSt9z.ltrans3.ltrans.o
 .rodata.__compound_literal.0
                0x0000000000454af8       0xd0 /home/notlean/openwrt-uboost/tmp/cc0dSt9z.ltrans3.ltrans.o
 .rodata.__compound_literal.1
                0x0000000000454bc8      0x170 /home/notlean/openwrt-uboost/tmp/cc0dSt9z.ltrans3.ltrans.o
 .rodata.varinit_data
                0x0000000000454d38      0x108 /home/notlean/openwrt-uboost/tmp/cc0dSt9z.ltrans3.ltrans.o
 .rodata.null_bltin.1
                0x0000000000454e40       0x10 /home/notlean/openwrt-uboost/tmp/cc0dSt9z.ltrans3.ltrans.o
 .rodata.builtintab
                0x0000000000454e50      0x2b0 /home/notlean/openwrt-uboost/tmp/cc0dSt9z.ltrans3.ltrans.o
 .rodata.args.0
                0x0000000000455100       0x18 /home/notlean/openwrt-uboost/tmp/cc0dSt9z.ltrans4.ltrans.o
 .rodata.CSWTCH.153
                0x0000000000455118       0x98 /home/notlean/openwrt-uboost/tmp/cc0dSt9z.ltrans7.ltrans.o
 .rodata.ss_fmt
                0x00000000004551b0       0x18 /home/notlean/openwrt-uboost/tmp/cc0dSt9z.ltrans7.ltrans.o
 .rodata.sha_K  0x00000000004551c8      0x100 /home/notlean/openwrt-uboost/tmp/cc0dSt9z.ltrans7.ltrans.o
 .rodata.bb_argv_dash
                0x00000000004552c8       0x10 /home/notlean/openwrt-uboost/tmp/cc0dSt9z.ltrans7.ltrans.o
 .rodata.time_main
                0x00000000004552d8       0x6c /home/notlean/openwrt-uboost/tmp/cc0dSt9z.ltrans0.ltrans.o
 .rodata.less_main
                0x0000000000455344       0x41 /home/notlean/openwrt-uboost/tmp/cc0dSt9z.ltrans0.ltrans.o
 *fill*         0x0000000000455385        0x3 
 .rodata.common_traceroute_main
                0x0000000000455388        0xf /home/notlean/openwrt-uboost/tmp/cc0dSt9z.ltrans1.ltrans.o
 *fill*         0x0000000000455397        0x1 
 .rodata.rtnl_rtntype_n2a
                0x0000000000455398        0xc /home/notlean/openwrt-uboost/tmp/cc0dSt9z.ltrans1.ltrans.o
 .rodata.iproute_list_or_flush
                0x00000000004553a4        0x9 /home/notlean/openwrt-uboost/tmp/cc0dSt9z.ltrans1.ltrans.o
 *fill*         0x00000000004553ad        0x3 
 .rodata.ipaddr_modify
                0x00000000004553b0       0x12 /home/notlean/openwrt-uboost/tmp/cc0dSt9z.ltrans1.ltrans.o
 *fill*         0x00000000004553c2        0x2 
 .rodata.iprule_modify
                0x00000000004553c4       0x18 /home/notlean/openwrt-uboost/tmp/cc0dSt9z.ltrans1.ltrans.o
 .rodata.iproute_modify
                0x00000000004553dc       0x16 /home/notlean/openwrt-uboost/tmp/cc0dSt9z.ltrans1.ltrans.o
 *fill*         0x00000000004553f2        0x2 
 .rodata.do_iproute
                0x00000000004553f4        0xd /home/notlean/openwrt-uboost/tmp/cc0dSt9z.ltrans1.ltrans.o
 *fill*         0x0000000000455401        0x3 
 .rodata.flag_masks.3
                0x0000000000455404       0x1c /home/notlean/openwrt-uboost/tmp/cc0dSt9z.ltrans1.ltrans.o
 .rodata.flagvals
                0x0000000000455420       0x2c /home/notlean/openwrt-uboost/tmp/cc0dSt9z.ltrans1.ltrans.o
 .rodata.calcsize
                0x000000000045544c       0x1b /home/notlean/openwrt-uboost/tmp/cc0dSt9z.ltrans2.ltrans.o
 *fill*         0x0000000000455467        0x1 
 .rodata.copynode
                0x0000000000455468       0x1b /home/notlean/openwrt-uboost/tmp/cc0dSt9z.ltrans2.ltrans.o
 *fill*         0x0000000000455483        0x1 
 .rodata.udhcpc_main
                0x0000000000455484        0xc /home/notlean/openwrt-uboost/tmp/cc0dSt9z.ltrans2.ltrans.o
 .rodata.cmdputs
                0x0000000000455490        0xa /home/notlean/openwrt-uboost/tmp/cc0dSt9z.ltrans2.ltrans.o
 *fill*         0x000000000045549a        0x2 
 .rodata.cmdtxt
                0x000000000045549c       0x36 /home/notlean/openwrt-uboost/tmp/cc0dSt9z.ltrans2.ltrans.o
 *fill*         0x00000000004554d2        0x2 
 .rodata.evaltree.lto_priv.0
                0x00000000004554d4       0x1e /home/notlean/openwrt-uboost/tmp/cc0dSt9z.ltrans2.ltrans.o
 *fill*         0x00000000004554f2        0x2 
 .rodata.__pgetc
                0x00000000004554f4       0x8a /home/notlean/openwrt-uboost/tmp/cc0dSt9z.ltrans3.ltrans.o
 *fill*         0x000000000045557e        0x2 
 .rodata.readtoken1
                0x0000000000455580       0x1a /home/notlean/openwrt-uboost/tmp/cc0dSt9z.ltrans3.ltrans.o
 *fill*         0x000000000045559a        0x2 
 .rodata.parse_command
                0x000000000045559c       0x36 /home/notlean/openwrt-uboost/tmp/cc0dSt9z.ltrans3.ltrans.o
 *fill*         0x00000000004555d2        0x2 
 .rodata.arith_apply
                0x00000000004555d4       0x2f /home/notlean/openwrt-uboost/tmp/cc0dSt9z.ltrans3.ltrans.o
 *fill*         0x0000000000455603        0x1 
 .rodata.mount_options
                0x0000000000455604       0xac /home/notlean/openwrt-uboost/tmp/cc0dSt9z.ltrans3.ltrans.o
 .rodata.bkm_suffixes
                0x00000000004556b0       0x20 /home/notlean/openwrt-uboost/tmp/cc0dSt9z.ltrans3.ltrans.o
                0x00000000004556b0                bkm_suffixes
 .rodata.const_int_0
                0x00000000004556d0        0x4 /home/notlean/openwrt-uboost/tmp/cc0dSt9z.ltrans3.ltrans.o
 .rodata.get_header_tar
                0x00000000004556d4       0x3a /home/notlean/openwrt-uboost/tmp/cc0dSt9z.ltrans4.ltrans.o
 *fill*         0x000000000045570e        0x2 
 .rodata.cwbkMG_suffixes
                0x0000000000455710       0x80 /home/notlean/openwrt-uboost/tmp/cc0dSt9z.ltrans4.ltrans.o
 .rodata.print_direc
                0x0000000000455790       0x16 /home/notlean/openwrt-uboost/tmp/cc0dSt9z.ltrans5.ltrans.o
 *fill*         0x00000000004557a6        0x2 
 .rodata.evaluate.lto_priv.0
                0x00000000004557a8       0x86 /home/notlean/openwrt-uboost/tmp/cc0dSt9z.ltrans5.ltrans.o
 *fill*         0x000000000045582e        0x2 
 .rodata.exec_builtin
                0x0000000000455830       0x24 /home/notlean/openwrt-uboost/tmp/cc0dSt9z.ltrans5.ltrans.o
 .rodata.tokeninfo
                0x0000000000455854      0x190 /home/notlean/openwrt-uboost/tmp/cc0dSt9z.ltrans5.ltrans.o
 .rodata.modes_cubp
                0x00000000004559e4        0xc /home/notlean/openwrt-uboost/tmp/cc0dSt9z.ltrans5.ltrans.o
 .rodata.init256
                0x00000000004559f0       0x28 /home/notlean/openwrt-uboost/tmp/cc0dSt9z.ltrans5.ltrans.o
 .rodata.process_files
                0x0000000000455a18       0x7a /home/notlean/openwrt-uboost/tmp/cc0dSt9z.ltrans6.ltrans.o
 *fill*         0x0000000000455a92        0x2 
 .rodata.do_cmd
                0x0000000000455a94      0x116 /home/notlean/openwrt-uboost/tmp/cc0dSt9z.ltrans6.ltrans.o
 *fill*         0x0000000000455baa        0x2 
 .rodata.parse_params
                0x0000000000455bac       0x2c /home/notlean/openwrt-uboost/tmp/cc0dSt9z.ltrans6.ltrans.o
 .rodata.find_suffixes.0
                0x0000000000455bd8       0x30 /home/notlean/openwrt-uboost/tmp/cc0dSt9z.ltrans6.ltrans.o
 .rodata.xmalloc_optname_optval.isra.0
                0x0000000000455c08       0x1a /home/notlean/openwrt-uboost/tmp/cc0dSt9z.ltrans7.ltrans.o
 *fill*         0x0000000000455c22        0x2 
 .rodata.rconsts.3
                0x0000000000455c24       0x10 /home/notlean/openwrt-uboost/tmp/cc0dSt9z.ltrans7.ltrans.o
 .rodata.C_array.5
                0x0000000000455c34      0x100 /home/notlean/openwrt-uboost/tmp/cc0dSt9z.ltrans7.ltrans.o
 .rodata.duration_suffixes
                0x0000000000455d34       0x28 /home/notlean/openwrt-uboost/tmp/cc0dSt9z.ltrans7.ltrans.o
 .rodata.magic.0
                0x0000000000455d5c        0xc /home/notlean/openwrt-uboost/tmp/cc0dSt9z.ltrans7.ltrans.o
 .rodata.signals.1
                0x0000000000455d68        0xc /home/notlean/openwrt-uboost/tmp/cc0dSt9z.ltrans7.ltrans.o
 .rodata.ife_print_flags_mask.1
                0x0000000000455d74       0x1a /home/notlean/openwrt-uboost/tmp/cc0dSt9z.ltrans0.ltrans.o
 .rodata.arphrd_type.0
                0x0000000000455d8e       0x26 /home/notlean/openwrt-uboost/tmp/cc0dSt9z.ltrans1.ltrans.o
 .rodata.flags_ipvx
                0x0000000000455db4        0x8 /home/notlean/openwrt-uboost/tmp/cc0dSt9z.ltrans1.ltrans.o
 .rodata.S_I_T.lto_priv.0
                0x0000000000455dbc       0x1c /home/notlean/openwrt-uboost/tmp/cc0dSt9z.ltrans2.ltrans.o
                0x0000000000455dbc                S_I_T.lto_priv.0
 .rodata.MAC_BCAST_ADDR
                0x0000000000455dd8        0x6 /home/notlean/openwrt-uboost/tmp/cc0dSt9z.ltrans2.ltrans.o
                0x0000000000455dd8                MAC_BCAST_ADDR
 .rodata.dhcp_optflags
                0x0000000000455dde       0x4e /home/notlean/openwrt-uboost/tmp/cc0dSt9z.ltrans2.ltrans.o
 .rodata.limits_tbl
                0x0000000000455e2c       0x1e /home/notlean/openwrt-uboost/tmp/cc0dSt9z.ltrans3.ltrans.o
 .rodata.dist   0x0000000000455e4a       0x5e /home/notlean/openwrt-uboost/tmp/cc0dSt9z.ltrans4.ltrans.o
 .rodata.lit    0x0000000000455ea8       0x5e /home/notlean/openwrt-uboost/tmp/cc0dSt9z.ltrans4.ltrans.o
 .rodata.mask_bits
                0x0000000000455f06       0x22 /home/notlean/openwrt-uboost/tmp/cc0dSt9z.ltrans4.ltrans.o
 .rodata.PRIMES
                0x0000000000455f28        0xa /home/notlean/openwrt-uboost/tmp/cc0dSt9z.ltrans5.ltrans.o
 .rodata.utsname_offset
                0x0000000000455f32       0x10 /home/notlean/openwrt-uboost/tmp/cc0dSt9z.ltrans5.ltrans.o
 .rodata.ops_table
                0x0000000000455f42       0x56 /home/notlean/openwrt-uboost/tmp/cc0dSt9z.ltrans5.ltrans.o
 .rodata.perm_mask.1
                0x0000000000455f98        0xc /home/notlean/openwrt-uboost/tmp/cc0dSt9z.ltrans7.ltrans.o
 .rodata.who_mask.2
                0x0000000000455fa4        0x8 /home/notlean/openwrt-uboost/tmp/cc0dSt9z.ltrans7.ltrans.o
 .rodata.prg_cache_get.str1.1
                0x0000000000455fac        0x0 /home/notlean/openwrt-uboost/tmp/cc0dSt9z.ltrans0.ltrans.o
                                          0x2 (size before relaxing)
 .rodata.clear_line.str1.1
                0x0000000000455fac        0xb /home/notlean/openwrt-uboost/tmp/cc0dSt9z.ltrans0.ltrans.o
 .rodata.print_statusline.str1.1
                0x0000000000455fb7        0xc /home/notlean/openwrt-uboost/tmp/cc0dSt9z.ltrans0.ltrans.o
 .rodata.print_bytes_scaled.str1.1
                0x0000000000455fc3       0x1d /home/notlean/openwrt-uboost/tmp/cc0dSt9z.ltrans0.ltrans.o
 .rodata.status_print.str1.1
                0x0000000000455fe0       0x2a /home/notlean/openwrt-uboost/tmp/cc0dSt9z.ltrans0.ltrans.o
 .rodata.lock_main.str1.1
                0x000000000045600a       0xd7 /home/notlean/openwrt-uboost/tmp/cc0dSt9z.ltrans0.ltrans.o
                                         0xe0 (size before relaxing)
 .rodata.INET_sprint.str1.1
                0x00000000004560e1        0xb /home/notlean/openwrt-uboost/tmp/cc0dSt9z.ltrans0.ltrans.o
 .rodata.netmsg_main.str1.1
                0x00000000004560ec       0x41 /home/notlean/openwrt-uboost/tmp/cc0dSt9z.ltrans0.ltrans.o
 .rodata.build_ipv6_addr.str1.1
                0x000000000045612d       0x11 /home/notlean/openwrt-uboost/tmp/cc0dSt9z.ltrans0.ltrans.o
 .rodata.scan_inet_proc_line.str1.1
                0x000000000045613e       0x4f /home/notlean/openwrt-uboost/tmp/cc0dSt9z.ltrans0.ltrans.o
 .rodata.parse_reply.str1.1
                0x000000000045618d      0x130 /home/notlean/openwrt-uboost/tmp/cc0dSt9z.ltrans0.ltrans.o
                                        0x136 (size before relaxing)
 .rodata.unix_do_one.str1.1
                0x00000000004562bd       0x7e /home/notlean/openwrt-uboost/tmp/cc0dSt9z.ltrans0.ltrans.o
                                         0x9a (size before relaxing)
 .rodata.bb_show_usage.str1.1
                0x000000000045633b       0x32 /home/notlean/openwrt-uboost/tmp/cc0dSt9z.ltrans0.ltrans.o
                                         0x36 (size before relaxing)
 .rodata.show_usage_if_dash_dash_help.str1.1
                0x000000000045636d        0x7 /home/notlean/openwrt-uboost/tmp/cc0dSt9z.ltrans0.ltrans.o
 .rodata.ip_main.str1.1
                0x0000000000456374        0x7 /home/notlean/openwrt-uboost/tmp/cc0dSt9z.ltrans0.ltrans.o
 .rodata.main.str1.1
                0x000000000045637b       0x1c /home/notlean/openwrt-uboost/tmp/cc0dSt9z.ltrans0.ltrans.o
 .rodata.get_terminal_width_height.str1.1
                0x0000000000456397        0xe /home/notlean/openwrt-uboost/tmp/cc0dSt9z.ltrans0.ltrans.o
 .rodata.is_TERM_dumb.str1.1
                0x00000000004563a5        0x5 /home/notlean/openwrt-uboost/tmp/cc0dSt9z.ltrans0.ltrans.o
                                          0xa (size before relaxing)
 .rodata.alarm_handler.str1.1
                0x00000000004563aa       0x25 /home/notlean/openwrt-uboost/tmp/cc0dSt9z.ltrans0.ltrans.o
 .rodata.buffer_print.str1.1
                0x00000000004563cf        0xe /home/notlean/openwrt-uboost/tmp/cc0dSt9z.ltrans0.ltrans.o
                                         0x20 (size before relaxing)
 .rodata.show_bridge.str1.1
                0x00000000004563dd       0x58 /home/notlean/openwrt-uboost/tmp/cc0dSt9z.ltrans0.ltrans.o
                                         0x6b (size before relaxing)
 .rodata.bb_verror_msg.str1.1
                0x0000000000456435       0x58 /home/notlean/openwrt-uboost/tmp/cc0dSt9z.ltrans0.ltrans.o
                                          0x3 (size before relaxing)
 .rodata.open3_or_warn.str1.1
                0x0000000000456435       0x10 /home/notlean/openwrt-uboost/tmp/cc0dSt9z.ltrans0.ltrans.o
 .rodata.chdir_or_warn.str1.1
                0x0000000000456445       0x1f /home/notlean/openwrt-uboost/tmp/cc0dSt9z.ltrans0.ltrans.o
 .rodata.bb_full_fd_action.lto_priv.0.str1.1
                0x0000000000456464       0x17 /home/notlean/openwrt-uboost/tmp/cc0dSt9z.ltrans0.ltrans.o
 .rodata.xrename.str1.1
                0x000000000045647b       0x18 /home/notlean/openwrt-uboost/tmp/cc0dSt9z.ltrans0.ltrans.o
 .rodata.xlseek.str1.1
                0x0000000000456493        0xf /home/notlean/openwrt-uboost/tmp/cc0dSt9z.ltrans0.ltrans.o
 .rodata.xchroot.str1.1
                0x00000000004564a2       0x24 /home/notlean/openwrt-uboost/tmp/cc0dSt9z.ltrans0.ltrans.o
                                         0x26 (size before relaxing)
 .rodata.xsocket.str1.1
                0x00000000004564c6       0x27 /home/notlean/openwrt-uboost/tmp/cc0dSt9z.ltrans0.ltrans.o
                                         0x2e (size before relaxing)
 .rodata.xstat.str1.1
                0x00000000004564ed       0x10 /home/notlean/openwrt-uboost/tmp/cc0dSt9z.ltrans0.ltrans.o
 .rodata.BB_EXECVP_or_die.str1.1
                0x00000000004564fd       0x13 /home/notlean/openwrt-uboost/tmp/cc0dSt9z.ltrans0.ltrans.o
 .rodata.xpipe.str1.1
                0x0000000000456510       0x12 /home/notlean/openwrt-uboost/tmp/cc0dSt9z.ltrans0.ltrans.o
 .rodata.xdup2.str1.1
                0x0000000000456522       0x20 /home/notlean/openwrt-uboost/tmp/cc0dSt9z.ltrans0.ltrans.o
 .rodata.bb_daemonize_or_rexec.str1.1
                0x0000000000456542       0x10 /home/notlean/openwrt-uboost/tmp/cc0dSt9z.ltrans0.ltrans.o
 .rodata.xwrite.str1.1
                0x0000000000456552        0xc /home/notlean/openwrt-uboost/tmp/cc0dSt9z.ltrans0.ltrans.o
 .rodata.xclose.str1.1
                0x000000000045655e        0xd /home/notlean/openwrt-uboost/tmp/cc0dSt9z.ltrans0.ltrans.o
 .rodata.xsetgid.str1.1
                0x000000000045656b        0x7 /home/notlean/openwrt-uboost/tmp/cc0dSt9z.ltrans0.ltrans.o
 .rodata.xsetuid.str1.1
                0x0000000000456572        0x7 /home/notlean/openwrt-uboost/tmp/cc0dSt9z.ltrans0.ltrans.o
 .rodata.xbind.str1.1
                0x0000000000456579        0x5 /home/notlean/openwrt-uboost/tmp/cc0dSt9z.ltrans0.ltrans.o
 .rodata.xsendto.str1.1
                0x000000000045657e        0x7 /home/notlean/openwrt-uboost/tmp/cc0dSt9z.ltrans0.ltrans.o
 .rodata.xsettimeofday.str1.1
                0x0000000000456585        0xd /home/notlean/openwrt-uboost/tmp/cc0dSt9z.ltrans0.ltrans.o
 .rodata.write_uint.str1.1
                0x0000000000456592        0x9 /home/notlean/openwrt-uboost/tmp/cc0dSt9z.ltrans0.ltrans.o
                                          0xd (size before relaxing)
 .rodata.edit_file.str1.1
                0x000000000045659b        0xe /home/notlean/openwrt-uboost/tmp/cc0dSt9z.ltrans0.ltrans.o
                                         0x11 (size before relaxing)
 .rodata.die_if_ferror.str1.1
                0x00000000004565a9        0xe /home/notlean/openwrt-uboost/tmp/cc0dSt9z.ltrans0.ltrans.o
 .rodata.parse_datestr.str1.1
                0x00000000004565b7       0x5f /home/notlean/openwrt-uboost/tmp/cc0dSt9z.ltrans0.ltrans.o
                                         0x7a (size before relaxing)
 .rodata.ParseField.str1.1
                0x0000000000456616       0x1b /home/notlean/openwrt-uboost/tmp/cc0dSt9z.ltrans0.ltrans.o
 .rodata.UNSPEC_print.str1.1
                0x0000000000456631        0x6 /home/notlean/openwrt-uboost/tmp/cc0dSt9z.ltrans0.ltrans.o
 .rodata.less_gets.str1.1
                0x0000000000456637        0x4 /home/notlean/openwrt-uboost/tmp/cc0dSt9z.ltrans0.ltrans.o
 .rodata.do_info.str1.1
                0x000000000045663b       0x1a /home/notlean/openwrt-uboost/tmp/cc0dSt9z.ltrans0.ltrans.o
 .rodata.load_crontab.str1.1
                0x0000000000456655       0x64 /home/notlean/openwrt-uboost/tmp/cc0dSt9z.ltrans0.ltrans.o
                                         0x69 (size before relaxing)
 .rodata.rescan_crontab_dir.str1.1
                0x00000000004566b9        0xc /home/notlean/openwrt-uboost/tmp/cc0dSt9z.ltrans0.ltrans.o
 .rodata.examine_file.str1.1
                0x00000000004566c5       0x20 /home/notlean/openwrt-uboost/tmp/cc0dSt9z.ltrans0.ltrans.o
 .rodata.change_file.str1.1
                0x00000000004566e5       0x1e /home/notlean/openwrt-uboost/tmp/cc0dSt9z.ltrans0.ltrans.o
 .rodata.INET6_sprint.str1.1
                0x0000000000456703        0x8 /home/notlean/openwrt-uboost/tmp/cc0dSt9z.ltrans0.ltrans.o
                                          0xa (size before relaxing)
 .rodata.do_if_print.str1.1
                0x000000000045670b      0x297 /home/notlean/openwrt-uboost/tmp/cc0dSt9z.ltrans0.ltrans.o
                                        0x2a0 (size before relaxing)
 .rodata.parse_resolvconf.str1.1
                0x00000000004569a2       0x27 /home/notlean/openwrt-uboost/tmp/cc0dSt9z.ltrans0.ltrans.o
                                         0x2e (size before relaxing)
 .rodata.safe_setenv.str1.1
                0x00000000004569c9        0x6 /home/notlean/openwrt-uboost/tmp/cc0dSt9z.ltrans0.ltrans.o
 .rodata.start_one_job.str1.1
                0x00000000004569cf       0x65 /home/notlean/openwrt-uboost/tmp/cc0dSt9z.ltrans0.ltrans.o
                                         0x6a (size before relaxing)
 .rodata.ether_print.str1.1
                0x0000000000456a34       0x1e /home/notlean/openwrt-uboost/tmp/cc0dSt9z.ltrans0.ltrans.o
 .rodata.ip_port_str.str1.1
                0x0000000000456a52       0x1e /home/notlean/openwrt-uboost/tmp/cc0dSt9z.ltrans0.ltrans.o
                                          0x6 (size before relaxing)
 .rodata.print_inet_line.str1.1
                0x0000000000456a52       0x25 /home/notlean/openwrt-uboost/tmp/cc0dSt9z.ltrans0.ltrans.o
 .rodata.tcp_do_one.str1.1
                0x0000000000456a77       0x25 /home/notlean/openwrt-uboost/tmp/cc0dSt9z.ltrans0.ltrans.o
                                          0x4 (size before relaxing)
 .rodata.udp_do_one.str1.1
                0x0000000000456a77        0xc /home/notlean/openwrt-uboost/tmp/cc0dSt9z.ltrans0.ltrans.o
                                         0x10 (size before relaxing)
 .rodata.raw_do_one.str1.1
                0x0000000000456a83        0xc /home/notlean/openwrt-uboost/tmp/cc0dSt9z.ltrans0.ltrans.o
                                          0x4 (size before relaxing)
 .rodata.add_query_with_search.str1.1
                0x0000000000456a83        0x8 /home/notlean/openwrt-uboost/tmp/cc0dSt9z.ltrans0.ltrans.o
 .rodata.bb_copyfd_exact_size.str1.1
                0x0000000000456a8b        0xb /home/notlean/openwrt-uboost/tmp/cc0dSt9z.ltrans0.ltrans.o
 .rodata.get_mono.lto_priv.0.str1.1
                0x0000000000456a96       0x20 /home/notlean/openwrt-uboost/tmp/cc0dSt9z.ltrans0.ltrans.o
 .rodata.run_command.str1.1
                0x0000000000456ab6       0x20 /home/notlean/openwrt-uboost/tmp/cc0dSt9z.ltrans0.ltrans.o
                                          0x5 (size before relaxing)
 .rodata.send_queries.str1.1
                0x0000000000456ab6       0x84 /home/notlean/openwrt-uboost/tmp/cc0dSt9z.ltrans0.ltrans.o
                                         0x89 (size before relaxing)
 .rodata.xstrtoull_range_sfx.str1.1
                0x0000000000456b3a       0x39 /home/notlean/openwrt-uboost/tmp/cc0dSt9z.ltrans0.ltrans.o
 .rodata.show_bridge_timer.str1.1
                0x0000000000456b73        0xb /home/notlean/openwrt-uboost/tmp/cc0dSt9z.ltrans0.ltrans.o
 .rodata.show_bridge_port.str1.1
                0x0000000000456b7e      0x1b6 /home/notlean/openwrt-uboost/tmp/cc0dSt9z.ltrans0.ltrans.o
                                        0x1d6 (size before relaxing)
 .rodata.nslookup_main.str1.1
                0x0000000000456d34       0x99 /home/notlean/openwrt-uboost/tmp/cc0dSt9z.ltrans0.ltrans.o
 .rodata.vgetopt32.str1.1
                0x0000000000456dcd        0xb /home/notlean/openwrt-uboost/tmp/cc0dSt9z.ltrans0.ltrans.o
 .rodata.passwd_main.str1.1
                0x0000000000456dd8      0x24b /home/notlean/openwrt-uboost/tmp/cc0dSt9z.ltrans0.ltrans.o
                                        0x24d (size before relaxing)
 .rodata.crond_main.str1.1
                0x0000000000457023       0xe0 /home/notlean/openwrt-uboost/tmp/cc0dSt9z.ltrans0.ltrans.o
 .rodata.crontab_main.str1.1
                0x0000000000457103       0x46 /home/notlean/openwrt-uboost/tmp/cc0dSt9z.ltrans0.ltrans.o
 .rodata.strings_main.str1.1
                0x0000000000457149       0x17 /home/notlean/openwrt-uboost/tmp/cc0dSt9z.ltrans0.ltrans.o
                                         0x20 (size before relaxing)
 .rodata.time_main.str1.1
                0x0000000000457160       0x78 /home/notlean/openwrt-uboost/tmp/cc0dSt9z.ltrans0.ltrans.o
                                         0x88 (size before relaxing)
 .rodata.netstat_main.str1.1
                0x00000000004571d8      0x1d0 /home/notlean/openwrt-uboost/tmp/cc0dSt9z.ltrans0.ltrans.o
                                        0x1d6 (size before relaxing)
 .rodata.login_main.str1.1
                0x00000000004573a8       0xbb /home/notlean/openwrt-uboost/tmp/cc0dSt9z.ltrans0.ltrans.o
 .rodata.brctl_main.str1.1
                0x0000000000457463      0x2a6 /home/notlean/openwrt-uboost/tmp/cc0dSt9z.ltrans0.ltrans.o
                                        0x2cf (size before relaxing)
 .rodata.add_to_prg_cache_if_socket.str1.1
                0x0000000000457709       0x11 /home/notlean/openwrt-uboost/tmp/cc0dSt9z.ltrans0.ltrans.o
 .rodata.less_main.str1.1
                0x000000000045771a       0x41 /home/notlean/openwrt-uboost/tmp/cc0dSt9z.ltrans0.ltrans.o
                                         0x45 (size before relaxing)
 .rodata.nc_main.str1.1
                0x000000000045775b       0x13 /home/notlean/openwrt-uboost/tmp/cc0dSt9z.ltrans0.ltrans.o
 .rodata.concat_path_file.str1.1
                0x000000000045776e        0x7 /home/notlean/openwrt-uboost/tmp/cc0dSt9z.ltrans0.ltrans.o
 .rodata.dir_act.str1.1
                0x0000000000457775        0xe /home/notlean/openwrt-uboost/tmp/cc0dSt9z.ltrans0.ltrans.o
 .rodata.ifconfig_main.str1.1
                0x0000000000457783       0x5c /home/notlean/openwrt-uboost/tmp/cc0dSt9z.ltrans0.ltrans.o
 .rodata.step_time.str1.1
                0x00000000004577df       0x50 /home/notlean/openwrt-uboost/tmp/cc0dSt9z.ltrans0.ltrans.o
 .rodata.resolve_peer_hostname.lto_priv.0.str1.1
                0x000000000045782f        0xb /home/notlean/openwrt-uboost/tmp/cc0dSt9z.ltrans0.ltrans.o
 .rodata.run_script.lto_priv.0.str1.1
                0x000000000045783a       0x51 /home/notlean/openwrt-uboost/tmp/cc0dSt9z.ltrans0.ltrans.o
 .rodata.select_and_cluster.lto_priv.0.str1.1
                0x000000000045788b       0x9b /home/notlean/openwrt-uboost/tmp/cc0dSt9z.ltrans0.ltrans.o
 .rodata.update_local_clock.lto_priv.0.str1.1
                0x0000000000457926       0x8c /home/notlean/openwrt-uboost/tmp/cc0dSt9z.ltrans0.ltrans.o
 .rodata.str1.1
                0x00000000004579b2      0x23e /home/notlean/openwrt-uboost/tmp/cc0dSt9z.ltrans0.ltrans.o
                                        0x267 (size before relaxing)
 .rodata.v4_mapped
                0x0000000000457bf0        0xc /home/notlean/openwrt-uboost/tmp/cc0dSt9z.ltrans0.ltrans.o
 .rodata.qtypes
                0x0000000000457bfc       0x50 /home/notlean/openwrt-uboost/tmp/cc0dSt9z.ltrans0.ltrans.o
 .rodata.af_numbers.0
                0x0000000000457c4c        0x3 /home/notlean/openwrt-uboost/tmp/cc0dSt9z.ltrans0.ltrans.o
 .rodata.families.1
                0x0000000000457c4f       0x11 /home/notlean/openwrt-uboost/tmp/cc0dSt9z.ltrans0.ltrans.o
 .rodata.ip_common_commands.2
                0x0000000000457c60       0x16 /home/notlean/openwrt-uboost/tmp/cc0dSt9z.ltrans0.ltrans.o
 .rodata.keywords.1
                0x0000000000457c76       0x21 /home/notlean/openwrt-uboost/tmp/cc0dSt9z.ltrans0.ltrans.o
 .rodata.ife_print_flags_strs.0
                0x0000000000457c97       0x6a /home/notlean/openwrt-uboost/tmp/cc0dSt9z.ltrans0.ltrans.o
 .rodata.TRext  0x0000000000457d01        0xf /home/notlean/openwrt-uboost/tmp/cc0dSt9z.ltrans0.ltrans.o
 .rodata.no_yes.1
                0x0000000000457d10       0x17 /home/notlean/openwrt-uboost/tmp/cc0dSt9z.ltrans0.ltrans.o
 .rodata.bb_msg_invalid_arg_to
                0x0000000000457d27       0x1e /home/notlean/openwrt-uboost/tmp/cc0dSt9z.ltrans0.ltrans.o
                0x0000000000457d27                bb_msg_invalid_arg_to
 .rodata.keywords.2
                0x0000000000457d45       0x7c /home/notlean/openwrt-uboost/tmp/cc0dSt9z.ltrans0.ltrans.o
 .rodata.state_names.0
                0x0000000000457dc1       0x30 /home/notlean/openwrt-uboost/tmp/cc0dSt9z.ltrans0.ltrans.o
 .rodata.posix_format
                0x0000000000457df1       0x17 /home/notlean/openwrt-uboost/tmp/cc0dSt9z.ltrans0.ltrans.o
 .rodata.long_format
                0x0000000000457e08      0x2cb /home/notlean/openwrt-uboost/tmp/cc0dSt9z.ltrans0.ltrans.o
 .rodata.default_format
                0x00000000004580d3       0x17 /home/notlean/openwrt-uboost/tmp/cc0dSt9z.ltrans0.ltrans.o
 .rodata.bb_msg_standard_input
                0x00000000004580ea        0xf /home/notlean/openwrt-uboost/tmp/cc0dSt9z.ltrans0.ltrans.o
                0x00000000004580ea                bb_msg_standard_input
 .rodata.ctrlconv
                0x00000000004580f9       0x21 /home/notlean/openwrt-uboost/tmp/cc0dSt9z.ltrans0.ltrans.o
 .rodata.controls
                0x000000000045811a       0x21 /home/notlean/openwrt-uboost/tmp/cc0dSt9z.ltrans0.ltrans.o
 .rodata.bb_msg_you_must_be_root
                0x000000000045813b       0x11 /home/notlean/openwrt-uboost/tmp/cc0dSt9z.ltrans0.ltrans.o
                0x000000000045813b                bb_msg_you_must_be_root
 .rodata.DowAry
                0x000000000045814c       0x16 /home/notlean/openwrt-uboost/tmp/cc0dSt9z.ltrans0.ltrans.o
 .rodata.MonAry
                0x0000000000458162       0x25 /home/notlean/openwrt-uboost/tmp/cc0dSt9z.ltrans0.ltrans.o
 .rodata.bb_default_login_shell
                0x0000000000458187        0x9 /home/notlean/openwrt-uboost/tmp/cc0dSt9z.ltrans0.ltrans.o
                0x0000000000458187                bb_default_login_shell
 .rodata.bb_msg_invalid_date
                0x0000000000458190       0x12 /home/notlean/openwrt-uboost/tmp/cc0dSt9z.ltrans0.ltrans.o
                0x0000000000458190                bb_msg_invalid_date
 .rodata.bb_msg_memory_exhausted
                0x00000000004581a2        0xe /home/notlean/openwrt-uboost/tmp/cc0dSt9z.ltrans0.ltrans.o
                0x00000000004581a2                bb_msg_memory_exhausted
 .rodata.bb_hexdigits_upcase
                0x00000000004581b0       0x11 /home/notlean/openwrt-uboost/tmp/cc0dSt9z.ltrans0.ltrans.o
 .rodata.applet_flags
                0x00000000004581c1       0x1e /home/notlean/openwrt-uboost/tmp/cc0dSt9z.ltrans0.ltrans.o
 .rodata.bb_busybox_exec_path
                0x00000000004581df        0xf /home/notlean/openwrt-uboost/tmp/cc0dSt9z.ltrans0.ltrans.o
                0x00000000004581df                bb_busybox_exec_path
 .rodata.applet_names
                0x00000000004581ee      0x2b5 /home/notlean/openwrt-uboost/tmp/cc0dSt9z.ltrans0.ltrans.o
 .rodata.bb_banner
                0x00000000004584a3       0x2a /home/notlean/openwrt-uboost/tmp/cc0dSt9z.ltrans0.ltrans.o
                0x00000000004584a3                bb_banner
 .rodata.usage_messages
                0x00000000004584cd     0x78b3 /home/notlean/openwrt-uboost/tmp/cc0dSt9z.ltrans0.ltrans.o
 .rodata        0x000000000045fd80       0xd7 /home/notlean/openwrt-uboost/tmp/cc0dSt9z.ltrans0.ltrans.o
 .rodata.recv_and_process_peer_pkt.str1.1
                0x000000000045fe57      0x113 /home/notlean/openwrt-uboost/tmp/cc0dSt9z.ltrans1.ltrans.o
 .rodata.parse_rtattr.str1.1
                0x000000000045ff6a       0x18 /home/notlean/openwrt-uboost/tmp/cc0dSt9z.ltrans1.ltrans.o
 .rodata.recv_and_process_client_pkt.str1.1
                0x000000000045ff82       0x2c /home/notlean/openwrt-uboost/tmp/cc0dSt9z.ltrans1.ltrans.o
 .rodata.ntp_init.str1.1
                0x000000000045ffae       0x1c /home/notlean/openwrt-uboost/tmp/cc0dSt9z.ltrans1.ltrans.o
                                         0x2c (size before relaxing)
 .rodata.ntpd_main.str1.1
                0x000000000045ffca       0x7f /home/notlean/openwrt-uboost/tmp/cc0dSt9z.ltrans1.ltrans.o
 .rodata.print_stats_and_exit.lto_priv.0.str1.1
                0x0000000000460049       0xa5 /home/notlean/openwrt-uboost/tmp/cc0dSt9z.ltrans1.ltrans.o
 .rodata.next_arg.str1.1
                0x00000000004600ee       0x29 /home/notlean/openwrt-uboost/tmp/cc0dSt9z.ltrans1.ltrans.o
 .rodata.duparg.str1.1
                0x0000000000460117       0x29 /home/notlean/openwrt-uboost/tmp/cc0dSt9z.ltrans1.ltrans.o
 .rodata.INET_setroute.str1.1
                0x0000000000460140       0x92 /home/notlean/openwrt-uboost/tmp/cc0dSt9z.ltrans1.ltrans.o
                                         0x9d (size before relaxing)
 .rodata.INET6_setroute.str1.1
                0x00000000004601d2        0xd /home/notlean/openwrt-uboost/tmp/cc0dSt9z.ltrans1.ltrans.o
 .rodata.get_hz.str1.1
                0x00000000004601d2       0x24 /home/notlean/openwrt-uboost/tmp/cc0dSt9z.ltrans1.ltrans.o
 .rodata.INET6_displayroutes.str1.1
                0x00000000004601f6       0xad /home/notlean/openwrt-uboost/tmp/cc0dSt9z.ltrans1.ltrans.o
                                         0xbe (size before relaxing)
 .rodata.hexdump_if_verbose.str1.1
                0x00000000004602a3       0x4e /home/notlean/openwrt-uboost/tmp/cc0dSt9z.ltrans1.ltrans.o
 .rodata.traceroute_init.str1.1
                0x00000000004602f1       0xa4 /home/notlean/openwrt-uboost/tmp/cc0dSt9z.ltrans1.ltrans.o
                                         0xad (size before relaxing)
 .rodata.common_traceroute_main.str1.1
                0x0000000000460395       0xc7 /home/notlean/openwrt-uboost/tmp/cc0dSt9z.ltrans1.ltrans.o
                                         0xcc (size before relaxing)
 .rodata.rtnl_rtntype_n2a.str1.1
                0x000000000046045c        0x5 /home/notlean/openwrt-uboost/tmp/cc0dSt9z.ltrans1.ltrans.o
 .rodata.rtnl_send_check.str1.1
                0x0000000000460461       0x10 /home/notlean/openwrt-uboost/tmp/cc0dSt9z.ltrans1.ltrans.o
 .rodata.flush_update.lto_priv.0.str1.1
                0x0000000000460471       0x19 /home/notlean/openwrt-uboost/tmp/cc0dSt9z.ltrans1.ltrans.o
 .rodata.rtnl_talk.str1.1
                0x000000000046048a       0xc2 /home/notlean/openwrt-uboost/tmp/cc0dSt9z.ltrans1.ltrans.o
 .rodata.ll_idx_n2a.str1.1
                0x000000000046054c        0x5 /home/notlean/openwrt-uboost/tmp/cc0dSt9z.ltrans1.ltrans.o
                                          0x7 (size before relaxing)
 .rodata.print_linkinfo.str1.1
                0x0000000000460551       0x9b /home/notlean/openwrt-uboost/tmp/cc0dSt9z.ltrans1.ltrans.o
                                         0xac (size before relaxing)
 .rodata.xll_name_to_index.str1.1
                0x00000000004605ec       0x17 /home/notlean/openwrt-uboost/tmp/cc0dSt9z.ltrans1.ltrans.o
 .rodata.rtnl_tab_initialize.str1.1
                0x0000000000460603       0x38 /home/notlean/openwrt-uboost/tmp/cc0dSt9z.ltrans1.ltrans.o
                                         0x3c (size before relaxing)
 .rodata.rtnl_rtprot_initialize.str1.1
                0x000000000046063b        0x7 /home/notlean/openwrt-uboost/tmp/cc0dSt9z.ltrans1.ltrans.o
 .rodata.rtnl_rtscope_initialize.str1.1
                0x0000000000460642       0x1b /home/notlean/openwrt-uboost/tmp/cc0dSt9z.ltrans1.ltrans.o
                                         0x25 (size before relaxing)
 .rodata.rtnl_rtrealm_initialize.str1.1
                0x000000000046065d        0x7 /home/notlean/openwrt-uboost/tmp/cc0dSt9z.ltrans1.ltrans.o
                                          0xf (size before relaxing)
 .rodata.rtnl_rtdsfield_initialize.str1.1
                0x0000000000460664        0x8 /home/notlean/openwrt-uboost/tmp/cc0dSt9z.ltrans1.ltrans.o
                                          0xa (size before relaxing)
 .rodata.rtnl_rttable_initialize.str1.1
                0x000000000046066c        0x7 /home/notlean/openwrt-uboost/tmp/cc0dSt9z.ltrans1.ltrans.o
                                         0x19 (size before relaxing)
 .rodata.rt_addr_n2a.str1.1
                0x0000000000460673        0x4 /home/notlean/openwrt-uboost/tmp/cc0dSt9z.ltrans1.ltrans.o
 .rodata.print_addrinfo.str1.1
                0x0000000000460677       0xfb /home/notlean/openwrt-uboost/tmp/cc0dSt9z.ltrans1.ltrans.o
                                        0x113 (size before relaxing)
 .rodata.print_neigh.str1.1
                0x0000000000460772       0xca /home/notlean/openwrt-uboost/tmp/cc0dSt9z.ltrans1.ltrans.o
                                         0xce (size before relaxing)
 .rodata.print_route.str1.1
                0x000000000046083c       0xbc /home/notlean/openwrt-uboost/tmp/cc0dSt9z.ltrans1.ltrans.o
                                         0xc9 (size before relaxing)
 .rodata.print_rule.str1.1
                0x00000000004608f8       0x88 /home/notlean/openwrt-uboost/tmp/cc0dSt9z.ltrans1.ltrans.o
                                         0x93 (size before relaxing)
 .rodata.unpack_tail.lto_priv.0.str1.1
                0x0000000000460980       0x39 /home/notlean/openwrt-uboost/tmp/cc0dSt9z.ltrans1.ltrans.o
 .rodata.bb_displayroutes.str1.1
                0x00000000004609b9       0xf1 /home/notlean/openwrt-uboost/tmp/cc0dSt9z.ltrans1.ltrans.o
 .rodata.route_main.str1.1
                0x0000000000460aaa       0x10 /home/notlean/openwrt-uboost/tmp/cc0dSt9z.ltrans1.ltrans.o
                                         0x1b (size before relaxing)
 .rodata.xrtnl_dump_filter.str1.1
                0x0000000000460aba       0x10 /home/notlean/openwrt-uboost/tmp/cc0dSt9z.ltrans1.ltrans.o
 .rodata.get_addr_1.str1.1
                0x0000000000460aca        0x4 /home/notlean/openwrt-uboost/tmp/cc0dSt9z.ltrans1.ltrans.o
 .rodata.ll_addr_a2n.str1.1
                0x0000000000460ace       0x17 /home/notlean/openwrt-uboost/tmp/cc0dSt9z.ltrans1.ltrans.o
 .rodata.get_prefix.str1.1
                0x0000000000460ae5       0x68 /home/notlean/openwrt-uboost/tmp/cc0dSt9z.ltrans1.ltrans.o
 .rodata.ipneigh_list_or_flush.str1.1
                0x0000000000460b4d       0xdd /home/notlean/openwrt-uboost/tmp/cc0dSt9z.ltrans1.ltrans.o
 .rodata.iproute_get.str1.1
                0x0000000000460c2a       0x54 /home/notlean/openwrt-uboost/tmp/cc0dSt9z.ltrans1.ltrans.o
 .rodata.ipaddr_list_or_flush.str1.1
                0x0000000000460c7e       0x4e /home/notlean/openwrt-uboost/tmp/cc0dSt9z.ltrans1.ltrans.o
                                         0x58 (size before relaxing)
 .rodata.iproute_list_or_flush.str1.1
                0x0000000000460ccc       0x3d /home/notlean/openwrt-uboost/tmp/cc0dSt9z.ltrans1.ltrans.o
 .rodata.ipaddr_modify.str1.1
                0x0000000000460d09       0x9d /home/notlean/openwrt-uboost/tmp/cc0dSt9z.ltrans1.ltrans.o
                                         0xa5 (size before relaxing)
 .rodata.do_add_or_delete.str1.1
                0x0000000000460da6       0x63 /home/notlean/openwrt-uboost/tmp/cc0dSt9z.ltrans1.ltrans.o
                                         0x74 (size before relaxing)
 .rodata.iprule_modify.str1.1
                0x0000000000460e09       0x13 /home/notlean/openwrt-uboost/tmp/cc0dSt9z.ltrans1.ltrans.o
                                         0x20 (size before relaxing)
 .rodata.do_iplink.str1.1
                0x0000000000460e1c       0x71 /home/notlean/openwrt-uboost/tmp/cc0dSt9z.ltrans1.ltrans.o
                                         0xa5 (size before relaxing)
 .rodata.iproute_modify.str1.1
                0x0000000000460e8d        0x5 /home/notlean/openwrt-uboost/tmp/cc0dSt9z.ltrans1.ltrans.o
                                          0xf (size before relaxing)
 .rodata.CSWTCH.5
                0x0000000000460e92        0xb /home/notlean/openwrt-uboost/tmp/cc0dSt9z.ltrans1.ltrans.o
 .rodata.keywords.lto_priv.1
                0x0000000000460e9d       0x61 /home/notlean/openwrt-uboost/tmp/cc0dSt9z.ltrans1.ltrans.o
 .rodata.str1.1
                0x0000000000460efe      0x16b /home/notlean/openwrt-uboost/tmp/cc0dSt9z.ltrans1.ltrans.o
                                        0x186 (size before relaxing)
 .rodata.ip_rule_commands.0
                0x0000000000461069       0x16 /home/notlean/openwrt-uboost/tmp/cc0dSt9z.ltrans1.ltrans.o
 .rodata.keywords.lto_priv.0
                0x000000000046107f       0x86 /home/notlean/openwrt-uboost/tmp/cc0dSt9z.ltrans1.ltrans.o
 .rodata.ip_route_commands.4
                0x0000000000461105       0x49 /home/notlean/openwrt-uboost/tmp/cc0dSt9z.ltrans1.ltrans.o
 .rodata.options.3
                0x000000000046114e       0x26 /home/notlean/openwrt-uboost/tmp/cc0dSt9z.ltrans1.ltrans.o
 .rodata.fn.1   0x0000000000461174       0x1f /home/notlean/openwrt-uboost/tmp/cc0dSt9z.ltrans1.ltrans.o
 .rodata.keywords.2.lto_priv.2
                0x0000000000461193       0x4e /home/notlean/openwrt-uboost/tmp/cc0dSt9z.ltrans1.ltrans.o
 .rodata.keywords.0.lto_priv.1
                0x00000000004611e1       0x42 /home/notlean/openwrt-uboost/tmp/cc0dSt9z.ltrans1.ltrans.o
 .rodata.ip_neigh_commands.3
                0x0000000000461223        0xc /home/notlean/openwrt-uboost/tmp/cc0dSt9z.ltrans1.ltrans.o
 .rodata.nuds.0
                0x000000000046122f        0x9 /home/notlean/openwrt-uboost/tmp/cc0dSt9z.ltrans1.ltrans.o
 .rodata.keywords.1
                0x0000000000461238       0x44 /home/notlean/openwrt-uboost/tmp/cc0dSt9z.ltrans1.ltrans.o
 .rodata.keywords.2.lto_priv.1
                0x000000000046127c        0xc /home/notlean/openwrt-uboost/tmp/cc0dSt9z.ltrans1.ltrans.o
 .rodata.keywords.0.lto_priv.0
                0x0000000000461288       0x4f /home/notlean/openwrt-uboost/tmp/cc0dSt9z.ltrans1.ltrans.o
 .rodata.keywords.4
                0x00000000004612d7       0x1e /home/notlean/openwrt-uboost/tmp/cc0dSt9z.ltrans1.ltrans.o
 .rodata.protocols.1
                0x00000000004612f5       0x10 /home/notlean/openwrt-uboost/tmp/cc0dSt9z.ltrans1.ltrans.o
 .rodata.keywords.2.lto_priv.0
                0x0000000000461305       0x31 /home/notlean/openwrt-uboost/tmp/cc0dSt9z.ltrans1.ltrans.o
 .rodata.keywords.3
                0x0000000000461336       0x1c /home/notlean/openwrt-uboost/tmp/cc0dSt9z.ltrans1.ltrans.o
 .rodata.commands.1
                0x0000000000461352       0x33 /home/notlean/openwrt-uboost/tmp/cc0dSt9z.ltrans1.ltrans.o
 .rodata.option.0
                0x0000000000461385       0x5f /home/notlean/openwrt-uboost/tmp/cc0dSt9z.ltrans1.ltrans.o
 .rodata.option.5
                0x00000000004613e4       0x17 /home/notlean/openwrt-uboost/tmp/cc0dSt9z.ltrans1.ltrans.o
 .rodata.bb_msg_requires_arg
                0x00000000004613fb       0x18 /home/notlean/openwrt-uboost/tmp/cc0dSt9z.ltrans1.ltrans.o
                0x00000000004613fb                bb_msg_requires_arg
 .rodata.flag_labels.2
                0x0000000000461413       0x3c /home/notlean/openwrt-uboost/tmp/cc0dSt9z.ltrans1.ltrans.o
 .rodata.arphrd_name.1
                0x000000000046144f       0x7d /home/notlean/openwrt-uboost/tmp/cc0dSt9z.ltrans1.ltrans.o
 .rodata.operstate_labels.4
                0x00000000004614cc       0x3b /home/notlean/openwrt-uboost/tmp/cc0dSt9z.ltrans1.ltrans.o
 .rodata.tbl_verb
                0x0000000000461507       0x13 /home/notlean/openwrt-uboost/tmp/cc0dSt9z.ltrans1.ltrans.o
 .rodata.flagchars
                0x000000000046151a        0xc /home/notlean/openwrt-uboost/tmp/cc0dSt9z.ltrans1.ltrans.o
 .rodata.tbl_ipvx
                0x0000000000461526       0x5c /home/notlean/openwrt-uboost/tmp/cc0dSt9z.ltrans1.ltrans.o
 .rodata.tbl_hash_net_host
                0x0000000000461582        0xe /home/notlean/openwrt-uboost/tmp/cc0dSt9z.ltrans1.ltrans.o
 .rodata        0x0000000000461590       0x4b /home/notlean/openwrt-uboost/tmp/cc0dSt9z.ltrans1.ltrans.o
 .rodata.udhcp_scan_options.str1.1
                0x00000000004615db       0x23 /home/notlean/openwrt-uboost/tmp/cc0dSt9z.ltrans2.ltrans.o
 .rodata.change_listen_mode.str1.1
                0x00000000004615fe        0xd /home/notlean/openwrt-uboost/tmp/cc0dSt9z.ltrans2.ltrans.o
 .rodata.signal_handler.lto_priv.0.str1.1
                0x000000000046160b       0x12 /home/notlean/openwrt-uboost/tmp/cc0dSt9z.ltrans2.ltrans.o
 .rodata.parse_meminfo.lto_priv.0.str1.1
                0x000000000046161d       0x4d /home/notlean/openwrt-uboost/tmp/cc0dSt9z.ltrans2.ltrans.o
 .rodata.free_main.str1.1
                0x000000000046166a       0x8b /home/notlean/openwrt-uboost/tmp/cc0dSt9z.ltrans2.ltrans.o
 .rodata.kill_main.str1.1
                0x00000000004616f5       0x7b /home/notlean/openwrt-uboost/tmp/cc0dSt9z.ltrans2.ltrans.o
                                         0x93 (size before relaxing)
 .rodata.pgrep_main.str1.1
                0x0000000000461770        0xf /home/notlean/openwrt-uboost/tmp/cc0dSt9z.ltrans2.ltrans.o
                                         0x1a (size before relaxing)
 .rodata.pidof_main.str1.1
                0x000000000046177f        0xf /home/notlean/openwrt-uboost/tmp/cc0dSt9z.ltrans2.ltrans.o
                                          0x5 (size before relaxing)
 .rodata.ps_main.str1.1
                0x000000000046177f       0x35 /home/notlean/openwrt-uboost/tmp/cc0dSt9z.ltrans2.ltrans.o
 .rodata.sysctl_act_on_setting.str1.1
                0x00000000004617b4       0x9e /home/notlean/openwrt-uboost/tmp/cc0dSt9z.ltrans2.ltrans.o
                                         0xa3 (size before relaxing)
 .rodata.sysctl_main.str1.1
                0x0000000000461852       0x2f /home/notlean/openwrt-uboost/tmp/cc0dSt9z.ltrans2.ltrans.o
                                         0x31 (size before relaxing)
 .rodata.do_stats.str1.1
                0x0000000000461881       0x1b /home/notlean/openwrt-uboost/tmp/cc0dSt9z.ltrans2.ltrans.o
                                         0x20 (size before relaxing)
 .rodata.display_process_list.str1.1
                0x000000000046189c       0xfc /home/notlean/openwrt-uboost/tmp/cc0dSt9z.ltrans2.ltrans.o
                                        0x119 (size before relaxing)
 .rodata.top_main.str1.1
                0x0000000000461998       0x21 /home/notlean/openwrt-uboost/tmp/cc0dSt9z.ltrans2.ltrans.o
                                         0x27 (size before relaxing)
 .rodata.uptime_main.str1.1
                0x00000000004619b9       0x7a /home/notlean/openwrt-uboost/tmp/cc0dSt9z.ltrans2.ltrans.o
                                         0x7c (size before relaxing)
 .rodata.tryexec.str1.1
                0x0000000000461a33       0x7a /home/notlean/openwrt-uboost/tmp/cc0dSt9z.ltrans2.ltrans.o
                                          0x4 (size before relaxing)
 .rodata.sprint_nip.lto_priv.0.str1.1
                0x0000000000461a33        0xe /home/notlean/openwrt-uboost/tmp/cc0dSt9z.ltrans2.ltrans.o
 .rodata.d4_run_script.str1.1
                0x0000000000461a41       0x49 /home/notlean/openwrt-uboost/tmp/cc0dSt9z.ltrans2.ltrans.o
                                         0x4d (size before relaxing)
 .rodata.d4_run_script_deconfig.str1.1
                0x0000000000461a8a        0x9 /home/notlean/openwrt-uboost/tmp/cc0dSt9z.ltrans2.ltrans.o
 .rodata.bcast_or_ucast.str1.1
                0x0000000000461a93       0x2d /home/notlean/openwrt-uboost/tmp/cc0dSt9z.ltrans2.ltrans.o
                                         0x33 (size before relaxing)
 .rodata.udhcp_add_binary_option.str1.1
                0x0000000000461ac0       0x2a /home/notlean/openwrt-uboost/tmp/cc0dSt9z.ltrans2.ltrans.o
 .rodata.udhcp_add_simple_option.str1.1
                0x0000000000461aea       0x18 /home/notlean/openwrt-uboost/tmp/cc0dSt9z.ltrans2.ltrans.o
 .rodata.send_renew.str1.1
                0x0000000000461b02       0x2e /home/notlean/openwrt-uboost/tmp/cc0dSt9z.ltrans2.ltrans.o
 .rodata.perform_release.str1.1
                0x0000000000461b30       0x4c /home/notlean/openwrt-uboost/tmp/cc0dSt9z.ltrans2.ltrans.o
 .rodata.udhcpc_main.str1.1
                0x0000000000461b7c      0x167 /home/notlean/openwrt-uboost/tmp/cc0dSt9z.ltrans2.ltrans.o
                                        0x172 (size before relaxing)
 .rodata.sprint_status48.str1.1
                0x0000000000461ce3       0x18 /home/notlean/openwrt-uboost/tmp/cc0dSt9z.ltrans2.ltrans.o
                                         0x1d (size before relaxing)
 .rodata.changepath.lto_priv.0.str1.1
                0x0000000000461cfb       0x18 /home/notlean/openwrt-uboost/tmp/cc0dSt9z.ltrans2.ltrans.o
                                          0x8 (size before relaxing)
 .rodata.showjob.str1.1
                0x0000000000461cfb       0x22 /home/notlean/openwrt-uboost/tmp/cc0dSt9z.ltrans2.ltrans.o
                                         0x29 (size before relaxing)
 .rodata.ash_vmsg.lto_priv.0.str1.1
                0x0000000000461d1d        0xa /home/notlean/openwrt-uboost/tmp/cc0dSt9z.ltrans2.ltrans.o
                                          0xf (size before relaxing)
 .rodata.xtcsetpgrp.str1.1
                0x0000000000461d27       0x20 /home/notlean/openwrt-uboost/tmp/cc0dSt9z.ltrans2.ltrans.o
 .rodata.xdup_CLOEXEC_and_close.str1.1
                0x0000000000461d47        0x7 /home/notlean/openwrt-uboost/tmp/cc0dSt9z.ltrans2.ltrans.o
 .rodata.raise_error_syntax.lto_priv.0.str1.1
                0x0000000000461d4e       0x11 /home/notlean/openwrt-uboost/tmp/cc0dSt9z.ltrans2.ltrans.o
 .rodata.cmdputs.str1.1
                0x0000000000461d5f       0x17 /home/notlean/openwrt-uboost/tmp/cc0dSt9z.ltrans2.ltrans.o
 .rodata.cmdtxt.str1.1
                0x0000000000461d76       0x78 /home/notlean/openwrt-uboost/tmp/cc0dSt9z.ltrans2.ltrans.o
                                         0x8f (size before relaxing)
 .rodata.cvtnum.str1.1
                0x0000000000461dee        0x5 /home/notlean/openwrt-uboost/tmp/cc0dSt9z.ltrans2.ltrans.o
 .rodata.getjob.str1.1
                0x0000000000461df3       0x62 /home/notlean/openwrt-uboost/tmp/cc0dSt9z.ltrans2.ltrans.o
 .rodata.killcmd.lto_priv.0.str1.1
                0x0000000000461e55        0x8 /home/notlean/openwrt-uboost/tmp/cc0dSt9z.ltrans2.ltrans.o
 .rodata.number.lto_priv.0.str1.1
                0x0000000000461e5d       0x13 /home/notlean/openwrt-uboost/tmp/cc0dSt9z.ltrans2.ltrans.o
 .rodata.printalias.str1.1
                0x0000000000461e70        0x7 /home/notlean/openwrt-uboost/tmp/cc0dSt9z.ltrans2.ltrans.o
 .rodata.nextopt.lto_priv.0.str1.1
                0x0000000000461e77       0x29 /home/notlean/openwrt-uboost/tmp/cc0dSt9z.ltrans2.ltrans.o
 .rodata.cdopt.str1.1
                0x0000000000461ea0       0x29 /home/notlean/openwrt-uboost/tmp/cc0dSt9z.ltrans2.ltrans.o
                                          0x3 (size before relaxing)
 .rodata.waitcmd.lto_priv.0.str1.1
                0x0000000000461ea0       0x29 /home/notlean/openwrt-uboost/tmp/cc0dSt9z.ltrans2.ltrans.o
                                          0x2 (size before relaxing)
 .rodata.lookupvar.lto_priv.0.str1.1
                0x0000000000461ea0        0x3 /home/notlean/openwrt-uboost/tmp/cc0dSt9z.ltrans2.ltrans.o
 .rodata.setvareq.lto_priv.0.str1.1
                0x0000000000461ea0       0x13 /home/notlean/openwrt-uboost/tmp/cc0dSt9z.ltrans2.ltrans.o
 .rodata.setvar.lto_priv.0.str1.1
                0x0000000000461eb3       0x18 /home/notlean/openwrt-uboost/tmp/cc0dSt9z.ltrans2.ltrans.o
 .rodata.padvance.lto_priv.0.str1.1
                0x0000000000461ecb        0x3 /home/notlean/openwrt-uboost/tmp/cc0dSt9z.ltrans2.ltrans.o
                                          0x5 (size before relaxing)
 .rodata.setpwd.lto_priv.0.str1.1
                0x0000000000461ece        0x7 /home/notlean/openwrt-uboost/tmp/cc0dSt9z.ltrans2.ltrans.o
                                          0xb (size before relaxing)
 .rodata.cdcmd.lto_priv.0.str1.1
                0x0000000000461ed5       0x1a /home/notlean/openwrt-uboost/tmp/cc0dSt9z.ltrans2.ltrans.o
                                         0x21 (size before relaxing)
 .rodata.aliascmd.lto_priv.0.str1.1
                0x0000000000461eef       0x12 /home/notlean/openwrt-uboost/tmp/cc0dSt9z.ltrans2.ltrans.o
                                         0x18 (size before relaxing)
 .rodata.unaliascmd.lto_priv.0.str1.1
                0x0000000000461f01       0x12 /home/notlean/openwrt-uboost/tmp/cc0dSt9z.ltrans2.ltrans.o
                                          0xa (size before relaxing)
 .rodata.forkchild.str1.1
                0x0000000000461f01       0x14 /home/notlean/openwrt-uboost/tmp/cc0dSt9z.ltrans2.ltrans.o
                                         0x28 (size before relaxing)
 .rodata.setjobctl.lto_priv.0.str1.1
                0x0000000000461f15       0x29 /home/notlean/openwrt-uboost/tmp/cc0dSt9z.ltrans2.ltrans.o
                                         0x32 (size before relaxing)
 .rodata.jobscmd.lto_priv.0.str1.1
                0x0000000000461f3e       0x29 /home/notlean/openwrt-uboost/tmp/cc0dSt9z.ltrans2.ltrans.o
                                          0x3 (size before relaxing)
 .rodata.forkshell.lto_priv.0.str1.1
                0x0000000000461f3e        0xf /home/notlean/openwrt-uboost/tmp/cc0dSt9z.ltrans2.ltrans.o
 .rodata.fg_bgcmd.lto_priv.0.str1.1
                0x0000000000461f4d        0xc /home/notlean/openwrt-uboost/tmp/cc0dSt9z.ltrans2.ltrans.o
 .rodata.stoppedjobs.lto_priv.0.str1.1
                0x0000000000461f59       0x18 /home/notlean/openwrt-uboost/tmp/cc0dSt9z.ltrans2.ltrans.o
 .rodata.varvalue.str1.1
                0x0000000000461f71       0x11 /home/notlean/openwrt-uboost/tmp/cc0dSt9z.ltrans2.ltrans.o
 .rodata.shellexec.lto_priv.0.str1.1
                0x0000000000461f82       0x11 /home/notlean/openwrt-uboost/tmp/cc0dSt9z.ltrans2.ltrans.o
 .rodata.hashcmd.lto_priv.0.str1.1
                0x0000000000461f82       0x11 /home/notlean/openwrt-uboost/tmp/cc0dSt9z.ltrans2.ltrans.o
                                          0xa (size before relaxing)
 .rodata.describe_command.str1.1
                0x0000000000461f82       0x6a /home/notlean/openwrt-uboost/tmp/cc0dSt9z.ltrans2.ltrans.o
                                         0x73 (size before relaxing)
 .rodata.commandcmd.lto_priv.0.str1.1
                0x0000000000461fec        0x4 /home/notlean/openwrt-uboost/tmp/cc0dSt9z.ltrans2.ltrans.o
 .rodata.expredir.lto_priv.0.str1.1
                0x0000000000461ff0       0x1a /home/notlean/openwrt-uboost/tmp/cc0dSt9z.ltrans2.ltrans.o
 .rodata.argstr.str1.1
                0x000000000046200a       0x21 /home/notlean/openwrt-uboost/tmp/cc0dSt9z.ltrans2.ltrans.o
 .rodata.subevalvar.str1.1
                0x000000000046202b       0x2b /home/notlean/openwrt-uboost/tmp/cc0dSt9z.ltrans2.ltrans.o
 .rodata.redirect.lto_priv.0.str1.1
                0x0000000000462056       0x49 /home/notlean/openwrt-uboost/tmp/cc0dSt9z.ltrans2.ltrans.o
 .rodata.optschanged.lto_priv.0.str1.1
                0x000000000046209f       0x1f /home/notlean/openwrt-uboost/tmp/cc0dSt9z.ltrans2.ltrans.o
 .rodata.nodesize
                0x00000000004620be       0x1b /home/notlean/openwrt-uboost/tmp/cc0dSt9z.ltrans2.ltrans.o
 .rodata.bb_PATH_root_path
                0x00000000004620d9       0x23 /home/notlean/openwrt-uboost/tmp/cc0dSt9z.ltrans2.ltrans.o
                0x00000000004620d9                bb_PATH_root_path
 .rodata.str1.1
                0x00000000004620fc       0xb5 /home/notlean/openwrt-uboost/tmp/cc0dSt9z.ltrans2.ltrans.o
                                         0xeb (size before relaxing)
 .rodata.defifsvar
                0x00000000004621b1        0x8 /home/notlean/openwrt-uboost/tmp/cc0dSt9z.ltrans2.ltrans.o
                0x00000000004621b1                defifsvar
 .rodata.chars.0
                0x00000000004621b9        0x7 /home/notlean/openwrt-uboost/tmp/cc0dSt9z.ltrans2.ltrans.o
 .rodata.dolatstr.lto_priv.0
                0x00000000004621c0        0x7 /home/notlean/openwrt-uboost/tmp/cc0dSt9z.ltrans2.ltrans.o
                0x00000000004621c0                dolatstr.lto_priv.0
 .rodata.spclchars.3
                0x00000000004621c7        0xc /home/notlean/openwrt-uboost/tmp/cc0dSt9z.ltrans2.ltrans.o
 .rodata.syntax_index_table.lto_priv.0
                0x00000000004621d3      0x101 /home/notlean/openwrt-uboost/tmp/cc0dSt9z.ltrans2.ltrans.o
                0x00000000004621d3                syntax_index_table.lto_priv.0
 .rodata.qchars.4
                0x00000000004622d4        0x4 /home/notlean/openwrt-uboost/tmp/cc0dSt9z.ltrans2.ltrans.o
 .rodata.vstype.2
                0x00000000004622d8       0x30 /home/notlean/openwrt-uboost/tmp/cc0dSt9z.ltrans2.ltrans.o
 .rodata.fields.0
                0x0000000000462308       0x6a /home/notlean/openwrt-uboost/tmp/cc0dSt9z.ltrans2.ltrans.o
 .rodata.fmt.1  0x0000000000462372       0x2c /home/notlean/openwrt-uboost/tmp/cc0dSt9z.ltrans2.ltrans.o
 .rodata.signals.lto_priv.0
                0x000000000046239e       0xe0 /home/notlean/openwrt-uboost/tmp/cc0dSt9z.ltrans2.ltrans.o
                0x000000000046239e                signals.lto_priv.0
 .rodata.dhcp_option_lengths
                0x000000000046247e        0xd /home/notlean/openwrt-uboost/tmp/cc0dSt9z.ltrans2.ltrans.o
                0x000000000046247e                dhcp_option_lengths
 .rodata.udhcpc_longopts
                0x000000000046248b       0xda /home/notlean/openwrt-uboost/tmp/cc0dSt9z.ltrans2.ltrans.o
 .rodata.dhcp_option_strings
                0x0000000000462565      0x119 /home/notlean/openwrt-uboost/tmp/cc0dSt9z.ltrans2.ltrans.o
                0x0000000000462565                dhcp_option_strings
 .rodata        0x000000000046267e       0x3c /home/notlean/openwrt-uboost/tmp/cc0dSt9z.ltrans2.ltrans.o
 .rodata.localcmd.str1.1
                0x00000000004626ba       0x12 /home/notlean/openwrt-uboost/tmp/cc0dSt9z.ltrans3.ltrans.o
 .rodata.execcmd.str1.1
                0x00000000004626cc        0x3 /home/notlean/openwrt-uboost/tmp/cc0dSt9z.ltrans3.ltrans.o
 .rodata.breakcmd.str1.1
                0x00000000004626cf       0x13 /home/notlean/openwrt-uboost/tmp/cc0dSt9z.ltrans3.ltrans.o
 .rodata.set_discard_flag.str1.1
                0x00000000004626cf        0xb /home/notlean/openwrt-uboost/tmp/cc0dSt9z.ltrans3.ltrans.o
 .rodata.historycmd.str1.1
                0x00000000004626da        0x8 /home/notlean/openwrt-uboost/tmp/cc0dSt9z.ltrans3.ltrans.o
 .rodata.__pgetc.str1.1
                0x00000000004626e2        0xb /home/notlean/openwrt-uboost/tmp/cc0dSt9z.ltrans3.ltrans.o
                                         0x12 (size before relaxing)
 .rodata.setinputfile.str1.1
                0x00000000004626ed       0x1b /home/notlean/openwrt-uboost/tmp/cc0dSt9z.ltrans3.ltrans.o
 .rodata.options.str1.1
                0x00000000004626ed       0x3f /home/notlean/openwrt-uboost/tmp/cc0dSt9z.ltrans3.ltrans.o
                                         0x4c (size before relaxing)
 .rodata.showvars.str1.1
                0x000000000046272c        0xc /home/notlean/openwrt-uboost/tmp/cc0dSt9z.ltrans3.ltrans.o
                                          0xe (size before relaxing)
 .rodata.exportcmd.str1.1
                0x0000000000462738        0x3 /home/notlean/openwrt-uboost/tmp/cc0dSt9z.ltrans3.ltrans.o
 .rodata.change_seconds.str1.1
                0x000000000046273b        0x5 /home/notlean/openwrt-uboost/tmp/cc0dSt9z.ltrans3.ltrans.o
 .rodata.change_realtime.str1.1
                0x0000000000462740        0xa /home/notlean/openwrt-uboost/tmp/cc0dSt9z.ltrans3.ltrans.o
 .rodata.getoptscmd.str1.1
                0x000000000046274a       0x63 /home/notlean/openwrt-uboost/tmp/cc0dSt9z.ltrans3.ltrans.o
 .rodata.tokname.str1.1
                0x00000000004627ad       0x63 /home/notlean/openwrt-uboost/tmp/cc0dSt9z.ltrans3.ltrans.o
                                          0x5 (size before relaxing)
 .rodata.raise_error_unexpected_syntax.str1.1
                0x00000000004627ad       0x1e /home/notlean/openwrt-uboost/tmp/cc0dSt9z.ltrans3.ltrans.o
 .rodata.readtoken1.str1.1
                0x00000000004627cb       0x52 /home/notlean/openwrt-uboost/tmp/cc0dSt9z.ltrans3.ltrans.o
 .rodata.parse_command.str1.1
                0x000000000046281d       0x28 /home/notlean/openwrt-uboost/tmp/cc0dSt9z.ltrans3.ltrans.o
                                         0x34 (size before relaxing)
 .rodata.cmdloop.str1.1
                0x0000000000462845       0x1d /home/notlean/openwrt-uboost/tmp/cc0dSt9z.ltrans3.ltrans.o
 .rodata.dotcmd.str1.1
                0x0000000000462862        0xe /home/notlean/openwrt-uboost/tmp/cc0dSt9z.ltrans3.ltrans.o
 .rodata.unsetcmd.str1.1
                0x0000000000462870        0x3 /home/notlean/openwrt-uboost/tmp/cc0dSt9z.ltrans3.ltrans.o
 .rodata.trapcmd.str1.1
                0x0000000000462873       0x30 /home/notlean/openwrt-uboost/tmp/cc0dSt9z.ltrans3.ltrans.o
                                         0x34 (size before relaxing)
 .rodata.timescmd.str1.1
                0x00000000004628a3        0xe /home/notlean/openwrt-uboost/tmp/cc0dSt9z.ltrans3.ltrans.o
 .rodata.letcmd.str1.1
                0x00000000004628b1       0x14 /home/notlean/openwrt-uboost/tmp/cc0dSt9z.ltrans3.ltrans.o
 .rodata.readcmd.str1.1
                0x00000000004628c5       0x6b /home/notlean/openwrt-uboost/tmp/cc0dSt9z.ltrans3.ltrans.o
 .rodata.umaskcmd.str1.1
                0x0000000000462930       0x17 /home/notlean/openwrt-uboost/tmp/cc0dSt9z.ltrans3.ltrans.o
                                         0x19 (size before relaxing)
 .rodata.printlim.str1.1
                0x0000000000462947       0x10 /home/notlean/openwrt-uboost/tmp/cc0dSt9z.ltrans3.ltrans.o
 .rodata.ulimitcmd.str1.1
                0x0000000000462957       0x20 /home/notlean/openwrt-uboost/tmp/cc0dSt9z.ltrans3.ltrans.o
                                         0x34 (size before relaxing)
 .rodata.init.str1.1
                0x0000000000462977       0x1f /home/notlean/openwrt-uboost/tmp/cc0dSt9z.ltrans3.ltrans.o
                                         0x25 (size before relaxing)
 .rodata.logger_main.str1.1
                0x0000000000462996       0x23 /home/notlean/openwrt-uboost/tmp/cc0dSt9z.ltrans3.ltrans.o
                                         0x33 (size before relaxing)
 .rodata.dmesg_main.str1.1
                0x00000000004629b9       0x11 /home/notlean/openwrt-uboost/tmp/cc0dSt9z.ltrans3.ltrans.o
 .rodata.flock_main.str1.1
                0x00000000004629ca       0x24 /home/notlean/openwrt-uboost/tmp/cc0dSt9z.ltrans3.ltrans.o
                                         0x37 (size before relaxing)
 .rodata.hexdump_main.str1.1
                0x00000000004629ee       0x61 /home/notlean/openwrt-uboost/tmp/cc0dSt9z.ltrans3.ltrans.o
 .rodata.read_rtc.str1.1
                0x0000000000462a4f       0x17 /home/notlean/openwrt-uboost/tmp/cc0dSt9z.ltrans3.ltrans.o
 .rodata.set_kernel_tz.str1.1
                0x0000000000462a66        0xd /home/notlean/openwrt-uboost/tmp/cc0dSt9z.ltrans3.ltrans.o
 .rodata.hwclock_main.str1.1
                0x0000000000462a66       0x34 /home/notlean/openwrt-uboost/tmp/cc0dSt9z.ltrans3.ltrans.o
 .rodata.mkswap_main.str1.1
                0x0000000000462a9a       0x5b /home/notlean/openwrt-uboost/tmp/cc0dSt9z.ltrans3.ltrans.o
 .rodata.append_mount_options.str1.1
                0x0000000000462af5        0x8 /home/notlean/openwrt-uboost/tmp/cc0dSt9z.ltrans3.ltrans.o
 .rodata.mount_it_now.str1.1
                0x0000000000462afd       0x36 /home/notlean/openwrt-uboost/tmp/cc0dSt9z.ltrans3.ltrans.o
 .rodata.cut_out_ull_opt.str1.1
                0x0000000000462b33       0x10 /home/notlean/openwrt-uboost/tmp/cc0dSt9z.ltrans3.ltrans.o
 .rodata.singlemount.str1.1
                0x0000000000462b43       0xb5 /home/notlean/openwrt-uboost/tmp/cc0dSt9z.ltrans3.ltrans.o
                                         0xbc (size before relaxing)
 .rodata.mount_main.str1.1
                0x0000000000462bf8       0x51 /home/notlean/openwrt-uboost/tmp/cc0dSt9z.ltrans3.ltrans.o
                                         0x66 (size before relaxing)
 .rodata.swap_on_off_main.str1.1
                0x0000000000462c49       0x2a /home/notlean/openwrt-uboost/tmp/cc0dSt9z.ltrans3.ltrans.o
 .rodata.ash_main.str1.1
                0x0000000000462c73       0x32 /home/notlean/openwrt-uboost/tmp/cc0dSt9z.ltrans3.ltrans.o
                                         0x37 (size before relaxing)
 .rodata.find_command.lto_priv.0.str1.1
                0x0000000000462ca5       0x15 /home/notlean/openwrt-uboost/tmp/cc0dSt9z.ltrans3.ltrans.o
                                         0x26 (size before relaxing)
 .rodata.evalcommand.lto_priv.0.str1.1
                0x0000000000462cba       0x19 /home/notlean/openwrt-uboost/tmp/cc0dSt9z.ltrans3.ltrans.o
                                         0x1e (size before relaxing)
 .rodata.evaluate_string.lto_priv.0.str1.1
                0x0000000000462cd3       0x18 /home/notlean/openwrt-uboost/tmp/cc0dSt9z.ltrans3.ltrans.o
 .rodata.arith_lookup_val.str1.1
                0x0000000000462ceb       0x23 /home/notlean/openwrt-uboost/tmp/cc0dSt9z.ltrans3.ltrans.o
 .rodata.arith_apply.str1.1
                0x0000000000462d0e       0x3a /home/notlean/openwrt-uboost/tmp/cc0dSt9z.ltrans3.ltrans.o
                                         0x3f (size before relaxing)
 .rodata.filesystems.0
                0x0000000000462d48       0x24 /home/notlean/openwrt-uboost/tmp/cc0dSt9z.ltrans3.ltrans.o
 .rodata.bb_msg_perm_denied_are_you_root
                0x0000000000462d6c       0x22 /home/notlean/openwrt-uboost/tmp/cc0dSt9z.ltrans3.ltrans.o
                0x0000000000462d6c                bb_msg_perm_denied_are_you_root
 .rodata.mount_option_str
                0x0000000000462d8e      0x166 /home/notlean/openwrt-uboost/tmp/cc0dSt9z.ltrans3.ltrans.o
 .rodata.SWAPSPACE2
                0x0000000000462ef4        0xa /home/notlean/openwrt-uboost/tmp/cc0dSt9z.ltrans3.ltrans.o
 .rodata.hwclock_longopts.0
                0x0000000000462efe       0x3c /home/notlean/openwrt-uboost/tmp/cc0dSt9z.ltrans3.ltrans.o
 .rodata.str1.1
                0x0000000000462f3a      0x28f /home/notlean/openwrt-uboost/tmp/cc0dSt9z.ltrans3.ltrans.o
                                        0x2a5 (size before relaxing)
 .rodata.add_first
                0x00000000004631c9        0xc /home/notlean/openwrt-uboost/tmp/cc0dSt9z.ltrans3.ltrans.o
 .rodata.hexdump_opts
                0x00000000004631d5       0x10 /home/notlean/openwrt-uboost/tmp/cc0dSt9z.ltrans3.ltrans.o
 .rodata.flock_longopts.0
                0x00000000004631e5       0x2a /home/notlean/openwrt-uboost/tmp/cc0dSt9z.ltrans3.ltrans.o
 .rodata.op_tokens
                0x000000000046320f       0x8d /home/notlean/openwrt-uboost/tmp/cc0dSt9z.ltrans3.ltrans.o
 .rodata.defoptindvar
                0x000000000046329c        0x9 /home/notlean/openwrt-uboost/tmp/cc0dSt9z.ltrans3.ltrans.o
 .rodata.limits_help
                0x00000000004632a5      0x11e /home/notlean/openwrt-uboost/tmp/cc0dSt9z.ltrans3.ltrans.o
 .rodata.limit_chars
                0x00000000004633c3       0x10 /home/notlean/openwrt-uboost/tmp/cc0dSt9z.ltrans3.ltrans.o
 .rodata.ulimit_opt_string
                0x00000000004633d3       0x32 /home/notlean/openwrt-uboost/tmp/cc0dSt9z.ltrans3.ltrans.o
 .rodata.permuser.7
                0x0000000000463405        0x3 /home/notlean/openwrt-uboost/tmp/cc0dSt9z.ltrans3.ltrans.o
 .rodata.timescmd_str
                0x0000000000463408        0x9 /home/notlean/openwrt-uboost/tmp/cc0dSt9z.ltrans3.ltrans.o
 .rodata.xxreadtoken_tokens
                0x0000000000463411        0xa /home/notlean/openwrt-uboost/tmp/cc0dSt9z.ltrans3.ltrans.o
 .rodata.xxreadtoken_chars
                0x000000000046341b        0x7 /home/notlean/openwrt-uboost/tmp/cc0dSt9z.ltrans3.ltrans.o
 .rodata.C_escapes.5
                0x0000000000463422       0x12 /home/notlean/openwrt-uboost/tmp/cc0dSt9z.ltrans3.ltrans.o
 .rodata.types.6
                0x0000000000463434        0x6 /home/notlean/openwrt-uboost/tmp/cc0dSt9z.ltrans3.ltrans.o
 .rodata        0x000000000046343a       0x56 /home/notlean/openwrt-uboost/tmp/cc0dSt9z.ltrans3.ltrans.o
 .rodata.switch_root_main.str1.1
                0x0000000000463490       0x56 /home/notlean/openwrt-uboost/tmp/cc0dSt9z.ltrans4.ltrans.o
                                         0x6d (size before relaxing)
 .rodata.print_common.str1.1
                0x00000000004634e6       0x56 /home/notlean/openwrt-uboost/tmp/cc0dSt9z.ltrans4.ltrans.o
                                          0xb (size before relaxing)
 .rodata.process_pid_str.str1.1
                0x00000000004634e6       0x7e /home/notlean/openwrt-uboost/tmp/cc0dSt9z.ltrans4.ltrans.o
                                         0x89 (size before relaxing)
 .rodata.append_ext.str1.1
                0x0000000000463564        0x6 /home/notlean/openwrt-uboost/tmp/cc0dSt9z.ltrans4.ltrans.o
 .rodata.tostring.str1.1
                0x000000000046356a        0x5 /home/notlean/openwrt-uboost/tmp/cc0dSt9z.ltrans4.ltrans.o
 .rodata.taskset_main.str1.1
                0x000000000046356a        0xe /home/notlean/openwrt-uboost/tmp/cc0dSt9z.ltrans4.ltrans.o
 .rodata.umount_main.str1.1
                0x0000000000463578       0x56 /home/notlean/openwrt-uboost/tmp/cc0dSt9z.ltrans4.ltrans.o
                                         0x75 (size before relaxing)
 .rodata.make_new_name_gunzip.str1.1
                0x00000000004635ce        0x4 /home/notlean/openwrt-uboost/tmp/cc0dSt9z.ltrans4.ltrans.o
 .rodata.putOctal.str1.1
                0x00000000004635d2        0x6 /home/notlean/openwrt-uboost/tmp/cc0dSt9z.ltrans4.ltrans.o
 .rodata.chksum_and_xwrite_tar_header.str1.1
                0x00000000004635d8        0xd /home/notlean/openwrt-uboost/tmp/cc0dSt9z.ltrans4.ltrans.o
 .rodata.writeLongname.str1.1
                0x00000000004635e5        0xe /home/notlean/openwrt-uboost/tmp/cc0dSt9z.ltrans4.ltrans.o
 .rodata.dd_output_status.str1.1
                0x00000000004635f3       0x28 /home/notlean/openwrt-uboost/tmp/cc0dSt9z.ltrans4.ltrans.o
 .rodata.writeTarHeader.str1.1
                0x000000000046361b       0x16 /home/notlean/openwrt-uboost/tmp/cc0dSt9z.ltrans4.ltrans.o
                                         0x1c (size before relaxing)
 .rodata.vfork_compressor.str1.1
                0x0000000000463631        0x3 /home/notlean/openwrt-uboost/tmp/cc0dSt9z.ltrans4.ltrans.o
                                          0x9 (size before relaxing)
 .rodata.writeTarFile.str1.1
                0x0000000000463634       0x3c /home/notlean/openwrt-uboost/tmp/cc0dSt9z.ltrans4.ltrans.o
                                         0x44 (size before relaxing)
 .rodata.chmod_main.str1.1
                0x0000000000463670        0x3 /home/notlean/openwrt-uboost/tmp/cc0dSt9z.ltrans4.ltrans.o
 .rodata.header_verbose_list.str1.1
                0x0000000000463673       0x35 /home/notlean/openwrt-uboost/tmp/cc0dSt9z.ltrans4.ltrans.o
 .rodata.seek_by_jump.str1.1
                0x00000000004636a8        0xd /home/notlean/openwrt-uboost/tmp/cc0dSt9z.ltrans4.ltrans.o
 .rodata.data_extract_all.str1.1
                0x00000000004636b5       0xc7 /home/notlean/openwrt-uboost/tmp/cc0dSt9z.ltrans4.ltrans.o
                                         0xca (size before relaxing)
 .rodata.fill_bitbuffer.str1.1
                0x000000000046377c       0x17 /home/notlean/openwrt-uboost/tmp/cc0dSt9z.ltrans4.ltrans.o
 .rodata.inflate_unzip_internal.str1.1
                0x0000000000463793       0x23 /home/notlean/openwrt-uboost/tmp/cc0dSt9z.ltrans4.ltrans.o
                                         0x29 (size before relaxing)
 .rodata.clear_main.str1.1
                0x00000000004637b6        0x7 /home/notlean/openwrt-uboost/tmp/cc0dSt9z.ltrans4.ltrans.o
 .rodata.top_up.str1.1
                0x00000000004637b6        0xb /home/notlean/openwrt-uboost/tmp/cc0dSt9z.ltrans4.ltrans.o
 .rodata.unpack_gz_stream.str1.1
                0x00000000004637b6       0x29 /home/notlean/openwrt-uboost/tmp/cc0dSt9z.ltrans4.ltrans.o
 .rodata.getOctal.str1.1
                0x00000000004637df       0x24 /home/notlean/openwrt-uboost/tmp/cc0dSt9z.ltrans4.ltrans.o
 .rodata.strip_unsafe_prefix.str1.1
                0x0000000000463803       0x2f /home/notlean/openwrt-uboost/tmp/cc0dSt9z.ltrans4.ltrans.o
 .rodata.writeFileToTarball.str1.1
                0x0000000000463832       0x35 /home/notlean/openwrt-uboost/tmp/cc0dSt9z.ltrans4.ltrans.o
 .rodata.get_header_tar.str1.1
                0x0000000000463867       0xa2 /home/notlean/openwrt-uboost/tmp/cc0dSt9z.ltrans4.ltrans.o
                                         0xa8 (size before relaxing)
 .rodata.bbunpack.str1.1
                0x0000000000463909       0x6f /home/notlean/openwrt-uboost/tmp/cc0dSt9z.ltrans4.ltrans.o
                                         0x79 (size before relaxing)
 .rodata.gunzip_main.str1.1
                0x0000000000463978        0x9 /home/notlean/openwrt-uboost/tmp/cc0dSt9z.ltrans4.ltrans.o
 .rodata.gzip_main.str1.1
                0x0000000000463981       0x12 /home/notlean/openwrt-uboost/tmp/cc0dSt9z.ltrans4.ltrans.o
                                         0x15 (size before relaxing)
 .rodata.tar_main.str1.1
                0x0000000000463993       0x31 /home/notlean/openwrt-uboost/tmp/cc0dSt9z.ltrans4.ltrans.o
                                         0x37 (size before relaxing)
 .rodata.reset_main.str1.1
                0x00000000004639c4       0x17 /home/notlean/openwrt-uboost/tmp/cc0dSt9z.ltrans4.ltrans.o
 .rodata.resize_main.str1.1
                0x00000000004639db       0x22 /home/notlean/openwrt-uboost/tmp/cc0dSt9z.ltrans4.ltrans.o
 .rodata.cat_main.str1.1
                0x00000000004639fd       0x22 /home/notlean/openwrt-uboost/tmp/cc0dSt9z.ltrans4.ltrans.o
                                          0x2 (size before relaxing)
 .rodata.fileAction.lto_priv.0.str1.1
                0x00000000004639fd       0x12 /home/notlean/openwrt-uboost/tmp/cc0dSt9z.ltrans4.ltrans.o
 .rodata.chgrp_main.str1.1
                0x0000000000463a0f       0x12 /home/notlean/openwrt-uboost/tmp/cc0dSt9z.ltrans4.ltrans.o
                                          0x4 (size before relaxing)
 .rodata.chroot_main.str1.1
                0x0000000000463a0f        0x3 /home/notlean/openwrt-uboost/tmp/cc0dSt9z.ltrans4.ltrans.o
 .rodata.cp_main.str1.1
                0x0000000000463a12       0x14 /home/notlean/openwrt-uboost/tmp/cc0dSt9z.ltrans4.ltrans.o
 .rodata.cut_main.str1.1
                0x0000000000463a26       0xa4 /home/notlean/openwrt-uboost/tmp/cc0dSt9z.ltrans4.ltrans.o
                                         0xa6 (size before relaxing)
 .rodata.date_main.str1.1
                0x0000000000463aca       0x58 /home/notlean/openwrt-uboost/tmp/cc0dSt9z.ltrans4.ltrans.o
                                         0x63 (size before relaxing)
 .rodata.write_and_stats.str1.1
                0x0000000000463b22       0x13 /home/notlean/openwrt-uboost/tmp/cc0dSt9z.ltrans4.ltrans.o
 .rodata.dd_main.str1.1
                0x0000000000463b35       0x2c /home/notlean/openwrt-uboost/tmp/cc0dSt9z.ltrans4.ltrans.o
 .rodata.print.str1.1
                0x0000000000463b61        0x7 /home/notlean/openwrt-uboost/tmp/cc0dSt9z.ltrans4.ltrans.o
 .rodata.df_main.str1.1
                0x0000000000463b68       0xbc /home/notlean/openwrt-uboost/tmp/cc0dSt9z.ltrans4.ltrans.o
 .rodata.dirname_main.str1.1
                0x0000000000463c24        0x3 /home/notlean/openwrt-uboost/tmp/cc0dSt9z.ltrans4.ltrans.o
 .rodata.du_main.str1.1
                0x0000000000463c27        0x6 /home/notlean/openwrt-uboost/tmp/cc0dSt9z.ltrans4.ltrans.o
 .rodata.echo_main.str1.1
                0x0000000000463c27        0xc /home/notlean/openwrt-uboost/tmp/cc0dSt9z.ltrans4.ltrans.o
 .rodata.env_main.str1.1
                0x0000000000463c27       0x13 /home/notlean/openwrt-uboost/tmp/cc0dSt9z.ltrans4.ltrans.o
 .rodata.arithmetic_common.str1.1
                0x0000000000463c3a       0x26 /home/notlean/openwrt-uboost/tmp/cc0dSt9z.ltrans4.ltrans.o
 .rodata.docolon.str1.1
                0x0000000000463c60       0x6d /home/notlean/openwrt-uboost/tmp/cc0dSt9z.ltrans4.ltrans.o
 .rodata.eval6.str1.1
                0x0000000000463ccd       0x6d /home/notlean/openwrt-uboost/tmp/cc0dSt9z.ltrans4.ltrans.o
                                         0x11 (size before relaxing)
 .rodata.eval5.str1.1
                0x0000000000463ccd        0x2 /home/notlean/openwrt-uboost/tmp/cc0dSt9z.ltrans4.ltrans.o
 .rodata.eval4.str1.1
                0x0000000000463ccd       0x6d /home/notlean/openwrt-uboost/tmp/cc0dSt9z.ltrans4.ltrans.o
                                          0x4 (size before relaxing)
 .rodata.eval3.str1.1
                0x0000000000463ccd       0x6d /home/notlean/openwrt-uboost/tmp/cc0dSt9z.ltrans4.ltrans.o
                                          0x2 (size before relaxing)
 .rodata.eval2.str1.1
                0x0000000000463ccd        0xc /home/notlean/openwrt-uboost/tmp/cc0dSt9z.ltrans4.ltrans.o
                                         0x12 (size before relaxing)
 .rodata.eval1.str1.1
                0x0000000000463cd9        0x2 /home/notlean/openwrt-uboost/tmp/cc0dSt9z.ltrans4.ltrans.o
 .rodata.eval.str1.1
                0x0000000000463cd9        0x2 /home/notlean/openwrt-uboost/tmp/cc0dSt9z.ltrans4.ltrans.o
 .rodata.expr_main.str1.1
                0x0000000000463cd9       0x18 /home/notlean/openwrt-uboost/tmp/cc0dSt9z.ltrans4.ltrans.o
 .rodata.head_main.str1.1
                0x0000000000463cf1       0x23 /home/notlean/openwrt-uboost/tmp/cc0dSt9z.ltrans4.ltrans.o
 .rodata.id_main.str1.1
                0x0000000000463d14       0x1d /home/notlean/openwrt-uboost/tmp/cc0dSt9z.ltrans4.ltrans.o
                                         0x24 (size before relaxing)
 .rodata.head_opts
                0x0000000000463d31        0x7 /home/notlean/openwrt-uboost/tmp/cc0dSt9z.ltrans4.ltrans.o
 .rodata.keywords.0
                0x0000000000463d38       0x21 /home/notlean/openwrt-uboost/tmp/cc0dSt9z.ltrans4.ltrans.o
 .rodata.bb_msg_standard_output
                0x0000000000463d59       0x10 /home/notlean/openwrt-uboost/tmp/cc0dSt9z.ltrans4.ltrans.o
                0x0000000000463d59                bb_msg_standard_output
 .rodata.oflag_words.0
                0x0000000000463d69       0x1a /home/notlean/openwrt-uboost/tmp/cc0dSt9z.ltrans4.ltrans.o
 .rodata.iflag_words.1
                0x0000000000463d83       0x29 /home/notlean/openwrt-uboost/tmp/cc0dSt9z.ltrans4.ltrans.o
 .rodata.conv_words.2
                0x0000000000463dac       0x21 /home/notlean/openwrt-uboost/tmp/cc0dSt9z.ltrans4.ltrans.o
 .rodata.keywords.3
                0x0000000000463dcd       0x33 /home/notlean/openwrt-uboost/tmp/cc0dSt9z.ltrans4.ltrans.o
 .rodata.isoformats.0
                0x0000000000463e00       0x1f /home/notlean/openwrt-uboost/tmp/cc0dSt9z.ltrans4.ltrans.o
 .rodata.date_longopts
                0x0000000000463e1f       0x35 /home/notlean/openwrt-uboost/tmp/cc0dSt9z.ltrans4.ltrans.o
 .rodata._op_on_field.0
                0x0000000000463e54       0x1f /home/notlean/openwrt-uboost/tmp/cc0dSt9z.ltrans4.ltrans.o
 .rodata.str1.1
                0x0000000000463e73        0x5 /home/notlean/openwrt-uboost/tmp/cc0dSt9z.ltrans4.ltrans.o
 .rodata.extra_blbits
                0x0000000000463e78       0x13 /home/notlean/openwrt-uboost/tmp/cc0dSt9z.ltrans4.ltrans.o
 .rodata.bl_order
                0x0000000000463e8b       0x13 /home/notlean/openwrt-uboost/tmp/cc0dSt9z.ltrans4.ltrans.o
 .rodata.extra_lbits
                0x0000000000463e9e       0x1d /home/notlean/openwrt-uboost/tmp/cc0dSt9z.ltrans4.ltrans.o
 .rodata.extra_dbits
                0x0000000000463ebb       0x1e /home/notlean/openwrt-uboost/tmp/cc0dSt9z.ltrans4.ltrans.o
 .rodata        0x0000000000463ed9      0x16d /home/notlean/openwrt-uboost/tmp/cc0dSt9z.ltrans4.ltrans.o
 .rodata.syntax_error.str1.1
                0x0000000000464046        0xa /home/notlean/openwrt-uboost/tmp/cc0dSt9z.ltrans5.ltrans.o
 .rodata.ln_main.str1.1
                0x0000000000464050       0x24 /home/notlean/openwrt-uboost/tmp/cc0dSt9z.ltrans5.ltrans.o
                                         0x3f (size before relaxing)
 .rodata.yes_main.str1.1
                0x0000000000464074       0x24 /home/notlean/openwrt-uboost/tmp/cc0dSt9z.ltrans5.ltrans.o
                                          0x2 (size before relaxing)
 .rodata.display_single.str1.1
                0x0000000000464074       0x75 /home/notlean/openwrt-uboost/tmp/cc0dSt9z.ltrans5.ltrans.o
                                         0x91 (size before relaxing)
 .rodata.display_files.str1.1
                0x00000000004640e9        0x4 /home/notlean/openwrt-uboost/tmp/cc0dSt9z.ltrans5.ltrans.o
                                          0x5 (size before relaxing)
 .rodata.scan_and_display_dirs_recur.str1.1
                0x00000000004640ed        0x5 /home/notlean/openwrt-uboost/tmp/cc0dSt9z.ltrans5.ltrans.o
                                         0x15 (size before relaxing)
 .rodata.ls_main.str1.1
                0x00000000004640f2        0xa /home/notlean/openwrt-uboost/tmp/cc0dSt9z.ltrans5.ltrans.o
                                         0x11 (size before relaxing)
 .rodata.hash_file.str1.1
                0x00000000004640fc       0x10 /home/notlean/openwrt-uboost/tmp/cc0dSt9z.ltrans5.ltrans.o
 .rodata.md5_sha1_sum_main.str1.1
                0x00000000004640fc       0x6b /home/notlean/openwrt-uboost/tmp/cc0dSt9z.ltrans5.ltrans.o
                                         0x7c (size before relaxing)
 .rodata.mkdir_main.str1.1
                0x0000000000464167        0x5 /home/notlean/openwrt-uboost/tmp/cc0dSt9z.ltrans5.ltrans.o
                                         0x17 (size before relaxing)
 .rodata.mktemp_main.str1.1
                0x000000000046416c       0x17 /home/notlean/openwrt-uboost/tmp/cc0dSt9z.ltrans5.ltrans.o
 .rodata.rm_main.str1.1
                0x0000000000464183       0x19 /home/notlean/openwrt-uboost/tmp/cc0dSt9z.ltrans5.ltrans.o
 .rodata.nice_main.str1.1
                0x000000000046419c       0x35 /home/notlean/openwrt-uboost/tmp/cc0dSt9z.ltrans5.ltrans.o
                                         0x39 (size before relaxing)
 .rodata.multiconvert.str1.1
                0x00000000004641d1       0x14 /home/notlean/openwrt-uboost/tmp/cc0dSt9z.ltrans5.ltrans.o
 .rodata.print_direc.str1.1
                0x00000000004641d1        0x3 /home/notlean/openwrt-uboost/tmp/cc0dSt9z.ltrans5.ltrans.o
 .rodata.printf_main.str1.1
                0x00000000004641d4       0x3c /home/notlean/openwrt-uboost/tmp/cc0dSt9z.ltrans5.ltrans.o
 .rodata.readlink_main.str1.1
                0x0000000000464210        0x7 /home/notlean/openwrt-uboost/tmp/cc0dSt9z.ltrans5.ltrans.o
 .rodata.rmdir_main.str1.1
                0x0000000000464210       0x3c /home/notlean/openwrt-uboost/tmp/cc0dSt9z.ltrans5.ltrans.o
                                          0x8 (size before relaxing)
 .rodata.seq_main.str1.1
                0x0000000000464210        0xe /home/notlean/openwrt-uboost/tmp/cc0dSt9z.ltrans5.ltrans.o
                                         0x10 (size before relaxing)
 .rodata.sleep_main.str1.1
                0x000000000046421e        0x4 /home/notlean/openwrt-uboost/tmp/cc0dSt9z.ltrans5.ltrans.o
 .rodata.compare_keys.str1.1
                0x0000000000464222       0x12 /home/notlean/openwrt-uboost/tmp/cc0dSt9z.ltrans5.ltrans.o
 .rodata.sort_main.str1.1
                0x0000000000464234        0x5 /home/notlean/openwrt-uboost/tmp/cc0dSt9z.ltrans5.ltrans.o
 .rodata.tail_main.str1.1
                0x0000000000464234       0x64 /home/notlean/openwrt-uboost/tmp/cc0dSt9z.ltrans5.ltrans.o
                                         0x7c (size before relaxing)
 .rodata.tee_main.str1.1
                0x0000000000464298        0x3 /home/notlean/openwrt-uboost/tmp/cc0dSt9z.ltrans5.ltrans.o
 .rodata.syntax.str1.1
                0x000000000046429b        0x7 /home/notlean/openwrt-uboost/tmp/cc0dSt9z.ltrans5.ltrans.o
 .rodata.getn.str1.1
                0x000000000046429b       0x18 /home/notlean/openwrt-uboost/tmp/cc0dSt9z.ltrans5.ltrans.o
 .rodata.binop.str1.1
                0x00000000004642b3       0x12 /home/notlean/openwrt-uboost/tmp/cc0dSt9z.ltrans5.ltrans.o
 .rodata.nexpr.str1.1
                0x00000000004642c5       0x21 /home/notlean/openwrt-uboost/tmp/cc0dSt9z.ltrans5.ltrans.o
 .rodata.test_main.str1.1
                0x00000000004642e6       0x29 /home/notlean/openwrt-uboost/tmp/cc0dSt9z.ltrans5.ltrans.o
                                         0x2c (size before relaxing)
 .rodata.tr_main.str1.1
                0x000000000046430f       0x18 /home/notlean/openwrt-uboost/tmp/cc0dSt9z.ltrans5.ltrans.o
 .rodata.uname_main.str1.1
                0x0000000000464327       0x14 /home/notlean/openwrt-uboost/tmp/cc0dSt9z.ltrans5.ltrans.o
                                         0x20 (size before relaxing)
 .rodata.uniq_main.str1.1
                0x000000000046433b       0x15 /home/notlean/openwrt-uboost/tmp/cc0dSt9z.ltrans5.ltrans.o
 .rodata.wc_main.str1.1
                0x0000000000464350        0xb /home/notlean/openwrt-uboost/tmp/cc0dSt9z.ltrans5.ltrans.o
                                         0x19 (size before relaxing)
 .rodata.getopt_mk_fifo_nod.str1.1
                0x000000000046435b        0x3 /home/notlean/openwrt-uboost/tmp/cc0dSt9z.ltrans5.ltrans.o
 .rodata.fmt_num.str1.1
                0x000000000046435e       0x10 /home/notlean/openwrt-uboost/tmp/cc0dSt9z.ltrans5.ltrans.o
                                         0x15 (size before relaxing)
 .rodata.check.str1.1
                0x000000000046436e       0x24 /home/notlean/openwrt-uboost/tmp/cc0dSt9z.ltrans5.ltrans.o
                                         0x2c (size before relaxing)
 .rodata.start_stop_daemon_main.str1.1
                0x0000000000464392       0xdd /home/notlean/openwrt-uboost/tmp/cc0dSt9z.ltrans5.ltrans.o
                                        0x102 (size before relaxing)
 .rodata.which_main.str1.1
                0x000000000046446f        0x5 /home/notlean/openwrt-uboost/tmp/cc0dSt9z.ltrans5.ltrans.o
 .rodata.handle_special.str1.1
                0x000000000046446f       0x19 /home/notlean/openwrt-uboost/tmp/cc0dSt9z.ltrans5.ltrans.o
 .rodata.do_mktime.str1.1
                0x0000000000464488       0x15 /home/notlean/openwrt-uboost/tmp/cc0dSt9z.ltrans5.ltrans.o
 .rodata.cp_mv_stat2.str1.1
                0x000000000046449d       0x10 /home/notlean/openwrt-uboost/tmp/cc0dSt9z.ltrans5.ltrans.o
 .rodata.mv_main.str1.1
                0x000000000046449d       0x3e /home/notlean/openwrt-uboost/tmp/cc0dSt9z.ltrans5.ltrans.o
 .rodata.parse_expr.str1.1
                0x00000000004644db        0xf /home/notlean/openwrt-uboost/tmp/cc0dSt9z.ltrans5.ltrans.o
 .rodata.chain_group.str1.1
                0x00000000004644ea       0x2f /home/notlean/openwrt-uboost/tmp/cc0dSt9z.ltrans5.ltrans.o
 .rodata.parse_program.str1.1
                0x0000000000464519       0x13 /home/notlean/openwrt-uboost/tmp/cc0dSt9z.ltrans5.ltrans.o
 .rodata.awk_getline.str1.1
                0x000000000046452c        0x3 /home/notlean/openwrt-uboost/tmp/cc0dSt9z.ltrans5.ltrans.o
 .rodata.evaluate.lto_priv.0.str1.1
                0x000000000046452c       0x19 /home/notlean/openwrt-uboost/tmp/cc0dSt9z.ltrans5.ltrans.o
                                         0x26 (size before relaxing)
 .rodata.do_match.str1.1
                0x0000000000464545        0xf /home/notlean/openwrt-uboost/tmp/cc0dSt9z.ltrans5.ltrans.o
 .rodata.awk_printf.str1.1
                0x0000000000464554       0x1e /home/notlean/openwrt-uboost/tmp/cc0dSt9z.ltrans5.ltrans.o
 .rodata.exec_builtin.str1.1
                0x0000000000464572       0x18 /home/notlean/openwrt-uboost/tmp/cc0dSt9z.ltrans5.ltrans.o
 .rodata.awk_main.str1.1
                0x000000000046458a       0x5e /home/notlean/openwrt-uboost/tmp/cc0dSt9z.ltrans5.ltrans.o
 .rodata.vValues
                0x00000000004645e8       0x19 /home/notlean/openwrt-uboost/tmp/cc0dSt9z.ltrans5.ltrans.o
 .rodata.vNames
                0x0000000000464601       0x6b /home/notlean/openwrt-uboost/tmp/cc0dSt9z.ltrans5.ltrans.o
 .rodata.EMSG_DIV_BY_ZERO
                0x000000000046466c       0x11 /home/notlean/openwrt-uboost/tmp/cc0dSt9z.ltrans5.ltrans.o
 .rodata.EMSG_NEGATIVE_FIELD
                0x000000000046467d       0x19 /home/notlean/openwrt-uboost/tmp/cc0dSt9z.ltrans5.ltrans.o
 .rodata.EMSG_UNDEF_FUNC
                0x0000000000464696       0x1b /home/notlean/openwrt-uboost/tmp/cc0dSt9z.ltrans5.ltrans.o
 .rodata.EMSG_POSSIBLE_ERROR
                0x00000000004646b1       0x16 /home/notlean/openwrt-uboost/tmp/cc0dSt9z.ltrans5.ltrans.o
 .rodata.EMSG_NOT_ARRAY
                0x00000000004646c7        0xd /home/notlean/openwrt-uboost/tmp/cc0dSt9z.ltrans5.ltrans.o
 .rodata.EMSG_TOO_FEW_ARGS
                0x00000000004646d4       0x12 /home/notlean/openwrt-uboost/tmp/cc0dSt9z.ltrans5.ltrans.o
 .rodata.tokenlist
                0x00000000004646e6      0x1c0 /home/notlean/openwrt-uboost/tmp/cc0dSt9z.ltrans5.ltrans.o
 .rodata.EMSG_UNEXP_TOKEN
                0x00000000004648a6       0x11 /home/notlean/openwrt-uboost/tmp/cc0dSt9z.ltrans5.ltrans.o
 .rodata.EMSG_UNEXP_EOS
                0x00000000004648b7       0x19 /home/notlean/openwrt-uboost/tmp/cc0dSt9z.ltrans5.ltrans.o
 .rodata.EMSG_INV_FMT
                0x00000000004648d0       0x19 /home/notlean/openwrt-uboost/tmp/cc0dSt9z.ltrans5.ltrans.o
 .rodata.uname_longopts.0
                0x00000000004648e9       0x89 /home/notlean/openwrt-uboost/tmp/cc0dSt9z.ltrans5.ltrans.o
 .rodata.touch_longopts.0
                0x0000000000464972       0x31 /home/notlean/openwrt-uboost/tmp/cc0dSt9z.ltrans5.ltrans.o
 .rodata.ops_texts
                0x00000000004649a3       0x85 /home/notlean/openwrt-uboost/tmp/cc0dSt9z.ltrans5.ltrans.o
 .rodata.no_op.0
                0x0000000000464a28        0x2 /home/notlean/openwrt-uboost/tmp/cc0dSt9z.ltrans5.ltrans.o
 .rodata.sort_opt_str
                0x0000000000464a2a       0x26 /home/notlean/openwrt-uboost/tmp/cc0dSt9z.ltrans5.ltrans.o
 .rodata.format_chars.0
                0x0000000000464a50        0xe /home/notlean/openwrt-uboost/tmp/cc0dSt9z.ltrans5.ltrans.o
 .rodata.fmt.0  0x0000000000464a5e       0x2d /home/notlean/openwrt-uboost/tmp/cc0dSt9z.ltrans5.ltrans.o
 .rodata.modes_chars
                0x0000000000464a8b        0x8 /home/notlean/openwrt-uboost/tmp/cc0dSt9z.ltrans5.ltrans.o
 .rodata.ls_longopts.0
                0x0000000000464a93       0x2f /home/notlean/openwrt-uboost/tmp/cc0dSt9z.ltrans5.ltrans.o
 .rodata.color_str.1
                0x0000000000464ac2       0x22 /home/notlean/openwrt-uboost/tmp/cc0dSt9z.ltrans5.ltrans.o
 .rodata        0x0000000000464ae4      0x21b /home/notlean/openwrt-uboost/tmp/cc0dSt9z.ltrans5.ltrans.o
 .rodata.cmp_main.str1.1
                0x0000000000464cff        0x2 /home/notlean/openwrt-uboost/tmp/cc0dSt9z.ltrans6.ltrans.o
 .rodata.sed_xfopen_w.str1.1
                0x0000000000464cff        0x2 /home/notlean/openwrt-uboost/tmp/cc0dSt9z.ltrans6.ltrans.o
 .rodata.copy_parsing_escapes.str1.1
                0x0000000000464cff        0x7 /home/notlean/openwrt-uboost/tmp/cc0dSt9z.ltrans6.ltrans.o
 .rodata.index_of_next_unescaped_regexp_delim.str1.1
                0x0000000000464d06        0xf /home/notlean/openwrt-uboost/tmp/cc0dSt9z.ltrans6.ltrans.o
 .rodata.parse_regex_delim.str1.1
                0x0000000000464d15       0x26 /home/notlean/openwrt-uboost/tmp/cc0dSt9z.ltrans6.ltrans.o
 .rodata.get_address.lto_priv.0.str1.1
                0x0000000000464d3b       0x13 /home/notlean/openwrt-uboost/tmp/cc0dSt9z.ltrans6.ltrans.o
 .rodata.skip_thing.str1.1
                0x0000000000464d4e       0x21 /home/notlean/openwrt-uboost/tmp/cc0dSt9z.ltrans6.ltrans.o
 .rodata.parse_file_cmd.str1.1
                0x0000000000464d6f        0xf /home/notlean/openwrt-uboost/tmp/cc0dSt9z.ltrans6.ltrans.o
 .rodata.add_cmd.str1.1
                0x0000000000464d7e       0x90 /home/notlean/openwrt-uboost/tmp/cc0dSt9z.ltrans6.ltrans.o
 .rodata.puts_maybe_newline.str1.1
                0x0000000000464e0e        0xc /home/notlean/openwrt-uboost/tmp/cc0dSt9z.ltrans6.ltrans.o
 .rodata.get_next_line.str1.1
                0x0000000000464e0e        0x2 /home/notlean/openwrt-uboost/tmp/cc0dSt9z.ltrans6.ltrans.o
 .rodata.find_pair.str1.1
                0x0000000000464e0e        0x7 /home/notlean/openwrt-uboost/tmp/cc0dSt9z.ltrans6.ltrans.o
 .rodata.process_files.str1.1
                0x0000000000464e15       0x31 /home/notlean/openwrt-uboost/tmp/cc0dSt9z.ltrans6.ltrans.o
                                         0x38 (size before relaxing)
 .rodata.sed_main.str1.1
                0x0000000000464e46       0x4f /home/notlean/openwrt-uboost/tmp/cc0dSt9z.ltrans6.ltrans.o
                                         0x57 (size before relaxing)
 .rodata.place_cursor.str1.1
                0x0000000000464e95        0x9 /home/notlean/openwrt-uboost/tmp/cc0dSt9z.ltrans6.ltrans.o
 .rodata.go_bottom_and_clear_to_eol.str1.1
                0x0000000000464e95        0x4 /home/notlean/openwrt-uboost/tmp/cc0dSt9z.ltrans6.ltrans.o
 .rodata.readit.str1.1
                0x0000000000464e95       0x16 /home/notlean/openwrt-uboost/tmp/cc0dSt9z.ltrans6.ltrans.o
 .rodata.Hit_Return.str1.1
                0x0000000000464eab       0x1e /home/notlean/openwrt-uboost/tmp/cc0dSt9z.ltrans6.ltrans.o
                                         0x22 (size before relaxing)
 .rodata.show_status_line.str1.1
                0x0000000000464ec9       0x35 /home/notlean/openwrt-uboost/tmp/cc0dSt9z.ltrans6.ltrans.o
 .rodata.redraw.str1.1
                0x0000000000464efe        0x7 /home/notlean/openwrt-uboost/tmp/cc0dSt9z.ltrans6.ltrans.o
 .rodata.indicate_error.str1.1
                0x0000000000464efe        0x2 /home/notlean/openwrt-uboost/tmp/cc0dSt9z.ltrans6.ltrans.o
 .rodata.char_insert.str1.1
                0x0000000000464f00        0x4 /home/notlean/openwrt-uboost/tmp/cc0dSt9z.ltrans6.ltrans.o
 .rodata.not_implemented.str1.1
                0x0000000000464f04       0x1f /home/notlean/openwrt-uboost/tmp/cc0dSt9z.ltrans6.ltrans.o
 .rodata.file_insert.str1.1
                0x0000000000464f23        0x8 /home/notlean/openwrt-uboost/tmp/cc0dSt9z.ltrans6.ltrans.o
                                         0x33 (size before relaxing)
 .rodata.file_write.str1.1
                0x0000000000464f2b       0x14 /home/notlean/openwrt-uboost/tmp/cc0dSt9z.ltrans6.ltrans.o
 .rodata.func_print0.str1.1
                0x0000000000464f3f        0x5 /home/notlean/openwrt-uboost/tmp/cc0dSt9z.ltrans6.ltrans.o
 .rodata.print_line.str1.1
                0x0000000000464f3f        0x5 /home/notlean/openwrt-uboost/tmp/cc0dSt9z.ltrans6.ltrans.o
                                          0x8 (size before relaxing)
 .rodata.colon.str1.1
                0x0000000000464f44      0x33e /home/notlean/openwrt-uboost/tmp/cc0dSt9z.ltrans6.ltrans.o
                                        0x378 (size before relaxing)
 .rodata.do_cmd.str1.1
                0x0000000000465282       0x61 /home/notlean/openwrt-uboost/tmp/cc0dSt9z.ltrans6.ltrans.o
                                         0x68 (size before relaxing)
 .rodata.find_range.str1.1
                0x00000000004652e3       0x40 /home/notlean/openwrt-uboost/tmp/cc0dSt9z.ltrans6.ltrans.o
                                         0x43 (size before relaxing)
 .rodata.edit_file.str1.1
                0x0000000000465323       0x40 /home/notlean/openwrt-uboost/tmp/cc0dSt9z.ltrans6.ltrans.o
                                          0xf (size before relaxing)
 .rodata.vi_main.str1.1
                0x0000000000465323       0x3f /home/notlean/openwrt-uboost/tmp/cc0dSt9z.ltrans6.ltrans.o
                                         0x44 (size before relaxing)
 .rodata.parse_params.str1.1
                0x0000000000465362       0x2a /home/notlean/openwrt-uboost/tmp/cc0dSt9z.ltrans6.ltrans.o
                                         0x3e (size before relaxing)
 .rodata.find_main.str1.1
                0x000000000046538c        0x5 /home/notlean/openwrt-uboost/tmp/cc0dSt9z.ltrans6.ltrans.o
                                          0xb (size before relaxing)
 .rodata.grep_file.str1.1
                0x0000000000465391        0x5 /home/notlean/openwrt-uboost/tmp/cc0dSt9z.ltrans6.ltrans.o
                                          0x4 (size before relaxing)
 .rodata.grep_main.str1.1
                0x0000000000465391       0x11 /home/notlean/openwrt-uboost/tmp/cc0dSt9z.ltrans6.ltrans.o
                                         0x14 (size before relaxing)
 .rodata.process_stdin.lto_priv.0.str1.1
                0x00000000004653a2       0x21 /home/notlean/openwrt-uboost/tmp/cc0dSt9z.ltrans6.ltrans.o
 .rodata.params.1
                0x00000000004653c3       0xa4 /home/notlean/openwrt-uboost/tmp/cc0dSt9z.ltrans6.ltrans.o
 .rodata.modifying_cmds
                0x0000000000465467       0x16 /home/notlean/openwrt-uboost/tmp/cc0dSt9z.ltrans6.ltrans.o
 .rodata.cmd_mode_indicator.0
                0x000000000046547d        0x5 /home/notlean/openwrt-uboost/tmp/cc0dSt9z.ltrans6.ltrans.o
 .rodata.sed_longopts.1
                0x0000000000465482       0x43 /home/notlean/openwrt-uboost/tmp/cc0dSt9z.ltrans6.ltrans.o
 .rodata.cmd_letters.0
                0x00000000004654c5       0x1c /home/notlean/openwrt-uboost/tmp/cc0dSt9z.ltrans6.ltrans.o
 .rodata.semicolon_whitespace
                0x00000000004654e1        0x7 /home/notlean/openwrt-uboost/tmp/cc0dSt9z.ltrans6.ltrans.o
 .rodata.fmt_eof
                0x00000000004654e8       0x10 /home/notlean/openwrt-uboost/tmp/cc0dSt9z.ltrans6.ltrans.o
 .rodata.fmt_differ
                0x00000000004654f8       0x21 /home/notlean/openwrt-uboost/tmp/cc0dSt9z.ltrans6.ltrans.o
 .rodata.fmt_l_opt
                0x0000000000465519       0x15 /home/notlean/openwrt-uboost/tmp/cc0dSt9z.ltrans6.ltrans.o
 .rodata.cmp_longopts.0
                0x000000000046552e       0x24 /home/notlean/openwrt-uboost/tmp/cc0dSt9z.ltrans6.ltrans.o
 .rodata        0x0000000000465552       0xac /home/notlean/openwrt-uboost/tmp/cc0dSt9z.ltrans6.ltrans.o
 .rodata.xgroup2gid.str1.1
                0x00000000004655fe       0x11 /home/notlean/openwrt-uboost/tmp/cc0dSt9z.ltrans7.ltrans.o
 .rodata.quote_special_chars.str1.1
                0x000000000046560f       0x14 /home/notlean/openwrt-uboost/tmp/cc0dSt9z.ltrans7.ltrans.o
 .rodata.next.str1.1
                0x0000000000465623       0x14 /home/notlean/openwrt-uboost/tmp/cc0dSt9z.ltrans7.ltrans.o
                                          0x8 (size before relaxing)
 .rodata.get_homedir_or_NULL.str1.1
                0x0000000000465623        0x5 /home/notlean/openwrt-uboost/tmp/cc0dSt9z.ltrans7.ltrans.o
 .rodata.halt_main.str1.1
                0x0000000000465623        0x8 /home/notlean/openwrt-uboost/tmp/cc0dSt9z.ltrans7.ltrans.o
 .rodata.ask_and_unlink.str1.1
                0x000000000046562b       0x27 /home/notlean/openwrt-uboost/tmp/cc0dSt9z.ltrans7.ltrans.o
 .rodata.xgetpwnam.str1.1
                0x0000000000465652       0x10 /home/notlean/openwrt-uboost/tmp/cc0dSt9z.ltrans7.ltrans.o
 .rodata.xgetpwuid.str1.1
                0x0000000000465662        0xf /home/notlean/openwrt-uboost/tmp/cc0dSt9z.ltrans7.ltrans.o
 .rodata.change_identity.str1.1
                0x0000000000465671       0x11 /home/notlean/openwrt-uboost/tmp/cc0dSt9z.ltrans7.ltrans.o
 .rodata.get_passwd.lto_priv.0.str1.1
                0x0000000000465682        0x3 /home/notlean/openwrt-uboost/tmp/cc0dSt9z.ltrans7.ltrans.o
 .rodata.rewrite.lto_priv.0.str1.1
                0x0000000000465685       0xa6 /home/notlean/openwrt-uboost/tmp/cc0dSt9z.ltrans7.ltrans.o
                                         0xa8 (size before relaxing)
 .rodata.find_mount_point.str1.1
                0x000000000046572b        0xd /home/notlean/openwrt-uboost/tmp/cc0dSt9z.ltrans7.ltrans.o
 .rodata.get_shell_name.str1.1
                0x000000000046572b        0x6 /home/notlean/openwrt-uboost/tmp/cc0dSt9z.ltrans7.ltrans.o
 .rodata.make_human_readable_str.str1.1
                0x000000000046572b       0x12 /home/notlean/openwrt-uboost/tmp/cc0dSt9z.ltrans7.ltrans.o
                                         0x19 (size before relaxing)
 .rodata.INET_resolve.str1.1
                0x000000000046573d        0x8 /home/notlean/openwrt-uboost/tmp/cc0dSt9z.ltrans7.ltrans.o
 .rodata.INET6_resolve.str1.1
                0x000000000046573d       0x14 /home/notlean/openwrt-uboost/tmp/cc0dSt9z.ltrans7.ltrans.o
 .rodata.add_to_ino_dev_hashtable.str1.1
                0x0000000000465751        0x1 /home/notlean/openwrt-uboost/tmp/cc0dSt9z.ltrans7.ltrans.o
 .rodata.bb_make_directory.str1.1
                0x0000000000465751       0x32 /home/notlean/openwrt-uboost/tmp/cc0dSt9z.ltrans7.ltrans.o
 .rodata.read_cmdline.str1.1
                0x0000000000465783       0x16 /home/notlean/openwrt-uboost/tmp/cc0dSt9z.ltrans7.ltrans.o
                                         0x1b (size before relaxing)
 .rodata.pw_encrypt.str1.1
                0x0000000000465799        0x9 /home/notlean/openwrt-uboost/tmp/cc0dSt9z.ltrans7.ltrans.o
 .rodata.xread.str1.1
                0x00000000004657a2        0xb /home/notlean/openwrt-uboost/tmp/cc0dSt9z.ltrans7.ltrans.o
 .rodata.remove_file.str1.1
                0x00000000004657a2       0x50 /home/notlean/openwrt-uboost/tmp/cc0dSt9z.ltrans7.ltrans.o
                                         0x86 (size before relaxing)
 .rodata.safe_gethostname.str1.1
                0x00000000004657f2       0x50 /home/notlean/openwrt-uboost/tmp/cc0dSt9z.ltrans7.ltrans.o
                                          0x2 (size before relaxing)
 .rodata.safe_poll.str1.1
                0x00000000004657f2        0x5 /home/notlean/openwrt-uboost/tmp/cc0dSt9z.ltrans7.ltrans.o
 .rodata.setup_environment.str1.1
                0x00000000004657f2       0x1e /home/notlean/openwrt-uboost/tmp/cc0dSt9z.ltrans7.ltrans.o
 .rodata.bb_dump_add.str1.1
                0x00000000004657f2       0x10 /home/notlean/openwrt-uboost/tmp/cc0dSt9z.ltrans7.ltrans.o
 .rodata.config_read.str1.1
                0x0000000000465802       0x28 /home/notlean/openwrt-uboost/tmp/cc0dSt9z.ltrans7.ltrans.o
 .rodata.get_signum.str1.1
                0x000000000046582a        0x4 /home/notlean/openwrt-uboost/tmp/cc0dSt9z.ltrans7.ltrans.o
 .rodata.xargs_main.str1.1
                0x000000000046582e       0xaa /home/notlean/openwrt-uboost/tmp/cc0dSt9z.ltrans7.ltrans.o
                                         0xbc (size before relaxing)
 .rodata.xfdopen_helper.lto_priv.0.str1.1
                0x00000000004658d8        0x2 /home/notlean/openwrt-uboost/tmp/cc0dSt9z.ltrans7.ltrans.o
 .rodata.xconnect.str1.1
                0x00000000004658d8       0x1d /home/notlean/openwrt-uboost/tmp/cc0dSt9z.ltrans7.ltrans.o
                                         0x25 (size before relaxing)
 .rodata.str2sockaddr.lto_priv.0.str1.1
                0x00000000004658f5       0x11 /home/notlean/openwrt-uboost/tmp/cc0dSt9z.ltrans7.ltrans.o
                                         0x1f (size before relaxing)
 .rodata.sockaddr2str.lto_priv.0.str1.1
                0x0000000000465906        0x8 /home/notlean/openwrt-uboost/tmp/cc0dSt9z.ltrans7.ltrans.o
                                          0xe (size before relaxing)
 .rodata.INET_rresolve.str1.1
                0x000000000046590e        0x2 /home/notlean/openwrt-uboost/tmp/cc0dSt9z.ltrans7.ltrans.o
 .rodata.procps_scan.str1.1
                0x000000000046590e        0xa /home/notlean/openwrt-uboost/tmp/cc0dSt9z.ltrans7.ltrans.o
                                         0x21 (size before relaxing)
 .rodata.update_passwd.str1.1
                0x0000000000465918       0x5a /home/notlean/openwrt-uboost/tmp/cc0dSt9z.ltrans7.ltrans.o
                                         0x69 (size before relaxing)
 .rodata.xmalloc_readlink_or_warn.str1.1
                0x0000000000465972       0x27 /home/notlean/openwrt-uboost/tmp/cc0dSt9z.ltrans7.ltrans.o
 .rodata.copy_file.str1.1
                0x0000000000465999      0x108 /home/notlean/openwrt-uboost/tmp/cc0dSt9z.ltrans7.ltrans.o
                                        0x14b (size before relaxing)
 .rodata.complete_cmd_dir_file.str1.1
                0x0000000000465aa1        0x2 /home/notlean/openwrt-uboost/tmp/cc0dSt9z.ltrans7.ltrans.o
 .rodata.xregcomp.str1.1
                0x0000000000465aa1       0x13 /home/notlean/openwrt-uboost/tmp/cc0dSt9z.ltrans7.ltrans.o
 .rodata.parse_chown_usergroup_or_die.str1.1
                0x0000000000465ab4       0x16 /home/notlean/openwrt-uboost/tmp/cc0dSt9z.ltrans7.ltrans.o
 .rodata.setup_transformer_on_fd.constprop.0.str1.1
                0x0000000000465aca        0xe /home/notlean/openwrt-uboost/tmp/cc0dSt9z.ltrans7.ltrans.o
 .rodata.xrealloc_getcwd_or_warn.constprop.0.str1.1
                0x0000000000465ad8        0x7 /home/notlean/openwrt-uboost/tmp/cc0dSt9z.ltrans7.ltrans.o
 .rodata.ash_msg_and_raise.constprop.0.str1.1
                0x0000000000465adf        0x7 /home/notlean/openwrt-uboost/tmp/cc0dSt9z.ltrans7.ltrans.o
 .rodata.legal_pathopt.constprop.0.str1.1
                0x0000000000465adf        0x5 /home/notlean/openwrt-uboost/tmp/cc0dSt9z.ltrans7.ltrans.o
                                          0xd (size before relaxing)
 .rodata.smart_ulltoa5.constprop.0.str1.1
                0x0000000000465ae4       0x1f /home/notlean/openwrt-uboost/tmp/cc0dSt9z.ltrans7.ltrans.o
 .rodata.udhcp_option_idx.constprop.0.str1.1
                0x0000000000465b03       0x27 /home/notlean/openwrt-uboost/tmp/cc0dSt9z.ltrans7.ltrans.o
 .rodata.attach_option.constprop.0.str1.1
                0x0000000000465b2a       0x1a /home/notlean/openwrt-uboost/tmp/cc0dSt9z.ltrans7.ltrans.o
 .rodata.udhcp_send_raw_packet.constprop.0.str1.1
                0x0000000000465b44        0x7 /home/notlean/openwrt-uboost/tmp/cc0dSt9z.ltrans7.ltrans.o
                                         0x29 (size before relaxing)
 .rodata.ll_addr_n2a.constprop.0.str1.1
                0x0000000000465b4b        0x6 /home/notlean/openwrt-uboost/tmp/cc0dSt9z.ltrans7.ltrans.o
 .rodata.sendping_tail.constprop.0.str1.1
                0x0000000000465b51        0xc /home/notlean/openwrt-uboost/tmp/cc0dSt9z.ltrans7.ltrans.o
 .rodata.if_readlist_proc.constprop.0.str1.1
                0x0000000000465b51       0x19 /home/notlean/openwrt-uboost/tmp/cc0dSt9z.ltrans7.ltrans.o
                                         0x1f (size before relaxing)
 .rodata.log7.constprop.0.str1.1
                0x0000000000465b6a       0x22 /home/notlean/openwrt-uboost/tmp/cc0dSt9z.ltrans7.ltrans.o
 .rodata.dup2_or_raise.isra.0.str1.1
                0x0000000000465b6a        0x7 /home/notlean/openwrt-uboost/tmp/cc0dSt9z.ltrans7.ltrans.o
 .rodata.xmalloc_optname_optval.isra.0.str1.1
                0x0000000000465b6a       0x2c /home/notlean/openwrt-uboost/tmp/cc0dSt9z.ltrans7.ltrans.o
                                         0x42 (size before relaxing)
 .rodata.send_select.isra.0.str1.1
                0x0000000000465b96       0x26 /home/notlean/openwrt-uboost/tmp/cc0dSt9z.ltrans7.ltrans.o
 .rodata.send_discover.isra.0.str1.1
                0x0000000000465bbc       0x16 /home/notlean/openwrt-uboost/tmp/cc0dSt9z.ltrans7.ltrans.o
 .rodata.get_addr.isra.0.str1.1
                0x0000000000465bd2       0x6e /home/notlean/openwrt-uboost/tmp/cc0dSt9z.ltrans7.ltrans.o
 .rodata.display.lto_priv.0.str1.1
                0x0000000000465bd2        0xb /home/notlean/openwrt-uboost/tmp/cc0dSt9z.ltrans7.ltrans.o
                                          0xf (size before relaxing)
 .rodata.parse_and_put_prompt.lto_priv.0.str1.1
                0x0000000000465bdd        0xb /home/notlean/openwrt-uboost/tmp/cc0dSt9z.ltrans7.ltrans.o
                                          0xd (size before relaxing)
 .rodata.put_cur_glyph_and_inc_cursor.lto_priv.0.str1.1
                0x0000000000465bdd        0x2 /home/notlean/openwrt-uboost/tmp/cc0dSt9z.ltrans7.ltrans.o
 .rodata.ctrl_right.lto_priv.0.str1.1
                0x0000000000465bdd       0x21 /home/notlean/openwrt-uboost/tmp/cc0dSt9z.ltrans7.ltrans.o
 .rodata.input_backward.lto_priv.0.str1.1
                0x0000000000465bdd       0x13 /home/notlean/openwrt-uboost/tmp/cc0dSt9z.ltrans7.ltrans.o
 .rodata.input_delete.lto_priv.0.str1.1
                0x0000000000465bf0        0x4 /home/notlean/openwrt-uboost/tmp/cc0dSt9z.ltrans7.ltrans.o
 .rodata.draw_custom.lto_priv.0.str1.1
                0x0000000000465bf0       0x13 /home/notlean/openwrt-uboost/tmp/cc0dSt9z.ltrans7.ltrans.o
                                          0x6 (size before relaxing)
 .rodata.input_tab.lto_priv.0.str1.1
                0x0000000000465bf0        0x7 /home/notlean/openwrt-uboost/tmp/cc0dSt9z.ltrans7.ltrans.o
                                          0xc (size before relaxing)
 .rodata.setsockopt_bindtodevice.str1.1
                0x0000000000465bf7       0x1b /home/notlean/openwrt-uboost/tmp/cc0dSt9z.ltrans7.ltrans.o
 .rodata.common_ping_main.isra.0.str1.1
                0x0000000000465c12       0xcb /home/notlean/openwrt-uboost/tmp/cc0dSt9z.ltrans7.ltrans.o
                                        0x118 (size before relaxing)
 .rodata.udhcp_read_interface.constprop.0.str1.1
                0x0000000000465cdd        0xe /home/notlean/openwrt-uboost/tmp/cc0dSt9z.ltrans7.ltrans.o
                                         0x1b (size before relaxing)
 .rodata.bb_msg_can_not_create_raw_socket
                0x0000000000465ceb       0x18 /home/notlean/openwrt-uboost/tmp/cc0dSt9z.ltrans7.ltrans.o
 .rodata.str1.1
                0x0000000000465d03      0x109 /home/notlean/openwrt-uboost/tmp/cc0dSt9z.ltrans7.ltrans.o
                                        0x141 (size before relaxing)
 .rodata.len_of_option_as_string
                0x0000000000465e0c        0xd /home/notlean/openwrt-uboost/tmp/cc0dSt9z.ltrans7.ltrans.o
 .rodata.size_conv_str
                0x0000000000465e19       0x19 /home/notlean/openwrt-uboost/tmp/cc0dSt9z.ltrans7.ltrans.o
 .rodata.esccmds.0
                0x0000000000465e32       0x67 /home/notlean/openwrt-uboost/tmp/cc0dSt9z.ltrans7.ltrans.o
 .rodata.charmap.0
                0x0000000000465e99       0x14 /home/notlean/openwrt-uboost/tmp/cc0dSt9z.ltrans7.ltrans.o
 .rodata.perm_chars.0
                0x0000000000465ead        0x7 /home/notlean/openwrt-uboost/tmp/cc0dSt9z.ltrans7.ltrans.o
 .rodata.who_chars.3
                0x0000000000465eb4        0x5 /home/notlean/openwrt-uboost/tmp/cc0dSt9z.ltrans7.ltrans.o
 .rodata.mode_chars
                0x0000000000465eb9        0x7 /home/notlean/openwrt-uboost/tmp/cc0dSt9z.ltrans7.ltrans.o
 .rodata.type_chars
                0x0000000000465ec0       0x10 /home/notlean/openwrt-uboost/tmp/cc0dSt9z.ltrans7.ltrans.o
 .rodata.forbid
                0x0000000000465ed0       0x96 /home/notlean/openwrt-uboost/tmp/cc0dSt9z.ltrans7.ltrans.o
 .rodata.bb_msg_unknown
                0x0000000000465f66        0xa /home/notlean/openwrt-uboost/tmp/cc0dSt9z.ltrans7.ltrans.o
 .rodata.unit_chars.0
                0x0000000000465f70        0x9 /home/notlean/openwrt-uboost/tmp/cc0dSt9z.ltrans7.ltrans.o
 .rodata.P_array.4
                0x0000000000465f79       0x30 /home/notlean/openwrt-uboost/tmp/cc0dSt9z.ltrans7.ltrans.o
 .rodata.conv_str
                0x0000000000465fa9       0x21 /home/notlean/openwrt-uboost/tmp/cc0dSt9z.ltrans7.ltrans.o
 .rodata.list.0
                0x0000000000465fca       0x7f /home/notlean/openwrt-uboost/tmp/cc0dSt9z.ltrans7.ltrans.o
 .rodata.int_convs
                0x0000000000466049        0x7 /home/notlean/openwrt-uboost/tmp/cc0dSt9z.ltrans7.ltrans.o
 .rodata.dot_flags_width_chars
                0x0000000000466050       0x10 /home/notlean/openwrt-uboost/tmp/cc0dSt9z.ltrans7.ltrans.o
 .rodata        0x0000000000466060       0x5e /home/notlean/openwrt-uboost/tmp/cc0dSt9z.ltrans7.ltrans.o

.rodata1
 *(SORT_BY_ALIGNMENT(.rodata1))

.eh_frame_hdr   0x00000000004660c0       0x1c
 *(SORT_BY_ALIGNMENT(.eh_frame_hdr))
 .eh_frame_hdr  0x00000000004660c0       0x1c /home/notlean/openwrt-uboost/staging_dir/toolchain-aarch64_cortex-a53_gcc-12.3.0_musl/lib/gcc/aarch64-openwrt-linux-musl/12.3.0/crtbegin.o
                0x00000000004660c0                __GNU_EH_FRAME_HDR
 *(SORT_BY_ALIGNMENT(.eh_frame_entry) SORT_BY_ALIGNMENT(.eh_frame_entry.*))

.eh_frame       0x00000000004660e0       0x50
 *(SORT_BY_ALIGNMENT(.eh_frame))
 .eh_frame      0x00000000004660e0       0x4c /home/notlean/openwrt-uboost/staging_dir/toolchain-aarch64_cortex-a53_gcc-12.3.0_musl/lib/gcc/aarch64-openwrt-linux-musl/12.3.0/crtbegin.o
                                         0x50 (size before relaxing)
 .eh_frame      0x000000000046612c        0x4 /home/notlean/openwrt-uboost/staging_dir/toolchain-aarch64_cortex-a53_gcc-12.3.0_musl/lib/gcc/aarch64-openwrt-linux-musl/12.3.0/crtend.o
 *(SORT_BY_ALIGNMENT(.eh_frame.*))

.sframe
 *(SORT_BY_ALIGNMENT(.sframe))
 *(SORT_BY_ALIGNMENT(.sframe.*))

.gcc_except_table
 *(SORT_BY_ALIGNMENT(.gcc_except_table) SORT_BY_ALIGNMENT(.gcc_except_table.*))

.gnu_extab
 *(SORT_BY_ALIGNMENT(.gnu_extab*))

.exception_ranges
 *(SORT_BY_ALIGNMENT(.exception_ranges*))
                0x000000000047f430                . = DATA_SEGMENT_ALIGN (CONSTANT (MAXPAGESIZE), CONSTANT (COMMONPAGESIZE))

.eh_frame
 *(SORT_BY_ALIGNMENT(.eh_frame))
 *(SORT_BY_ALIGNMENT(.eh_frame.*))

.sframe
 *(SORT_BY_ALIGNMENT(.sframe))
 *(SORT_BY_ALIGNMENT(.sframe.*))

.gnu_extab
 *(SORT_BY_ALIGNMENT(.gnu_extab))

.gcc_except_table
 *(SORT_BY_ALIGNMENT(.gcc_except_table) SORT_BY_ALIGNMENT(.gcc_except_table.*))

.exception_ranges
 *(SORT_BY_ALIGNMENT(.exception_ranges*))

.tdata          0x000000000047f430        0x0
                [!provide]                        PROVIDE (__tdata_start = .)
 *(SORT_BY_ALIGNMENT(.tdata) SORT_BY_ALIGNMENT(.tdata.*) SORT_BY_ALIGNMENT(.gnu.linkonce.td.*))

.tbss
 *(SORT_BY_ALIGNMENT(.tbss) SORT_BY_ALIGNMENT(.tbss.*) SORT_BY_ALIGNMENT(.gnu.linkonce.tb.*))
 *(SORT_BY_ALIGNMENT(.tcommon))

.preinit_array  0x000000000047f430        0x0
                [!provide]                        PROVIDE (__preinit_array_start = .)
 *(SORT_BY_ALIGNMENT(.preinit_array))
                [!provide]                        PROVIDE (__preinit_array_end = .)

.init_array     0x000000000047f430        0x8
                [!provide]                        PROVIDE (__init_array_start = .)
 *(SORT_BY_INIT_PRIORITY(.init_array.*) SORT_BY_INIT_PRIORITY(.ctors.*))
 *(SORT_BY_ALIGNMENT(.init_array) SORT_BY_ALIGNMENT(EXCLUDE_FILE(*crtend?.o *crtend.o *crtbegin?.o *crtbegin.o) .ctors))
 .init_array    0x000000000047f430        0x8 /home/notlean/openwrt-uboost/staging_dir/toolchain-aarch64_cortex-a53_gcc-12.3.0_musl/lib/gcc/aarch64-openwrt-linux-musl/12.3.0/crtbegin.o
                [!provide]                        PROVIDE (__init_array_end = .)

.fini_array     0x000000000047f438        0x8
                [!provide]                        PROVIDE (__fini_array_start = .)
 *(SORT_BY_INIT_PRIORITY(.fini_array.*) SORT_BY_INIT_PRIORITY(.dtors.*))
 *(SORT_BY_ALIGNMENT(.fini_array) SORT_BY_ALIGNMENT(EXCLUDE_FILE(*crtend?.o *crtend.o *crtbegin?.o *crtbegin.o) .dtors))
 .fini_array    0x000000000047f438        0x8 /home/notlean/openwrt-uboost/staging_dir/toolchain-aarch64_cortex-a53_gcc-12.3.0_musl/lib/gcc/aarch64-openwrt-linux-musl/12.3.0/crtbegin.o
                [!provide]                        PROVIDE (__fini_array_end = .)

.ctors
 *crtbegin.o(SORT_BY_ALIGNMENT(.ctors))
 *crtbegin?.o(SORT_BY_ALIGNMENT(.ctors))
 *(SORT_BY_ALIGNMENT(EXCLUDE_FILE(*crtend?.o *crtend.o) .ctors))
 *(SORT_BY_NAME(SORT_BY_ALIGNMENT(.ctors.*)))
 *(SORT_BY_ALIGNMENT(.ctors))

.dtors
 *crtbegin.o(SORT_BY_ALIGNMENT(.dtors))
 *crtbegin?.o(SORT_BY_ALIGNMENT(.dtors))
 *(SORT_BY_ALIGNMENT(EXCLUDE_FILE(*crtend?.o *crtend.o) .dtors))
 *(SORT_BY_NAME(SORT_BY_ALIGNMENT(.dtors.*)))
 *(SORT_BY_ALIGNMENT(.dtors))

.jcr
 *(SORT_BY_ALIGNMENT(.jcr))

.data.rel.ro    0x000000000047f440       0x18
 *(SORT_BY_ALIGNMENT(.data.rel.ro.local*) SORT_BY_ALIGNMENT(.gnu.linkonce.d.rel.ro.local.*))
 *(SORT_BY_ALIGNMENT(.data.rel.ro) SORT_BY_ALIGNMENT(.data.rel.ro.*) SORT_BY_ALIGNMENT(.gnu.linkonce.d.rel.ro.*))
 .data.rel.ro   0x000000000047f440       0x18 /home/notlean/openwrt-uboost/staging_dir/toolchain-aarch64_cortex-a53_gcc-12.3.0_musl/lib/gcc/aarch64-openwrt-linux-musl/12.3.0/../../../../aarch64-openwrt-linux-musl/lib/crt1.o
                0x000000000047f440                stdout
                0x000000000047f448                stdin
                0x000000000047f450                stderr

.dynamic        0x000000000047f458      0x210
 *(SORT_BY_ALIGNMENT(.dynamic))
 .dynamic       0x000000000047f458      0x210 /home/notlean/openwrt-uboost/staging_dir/toolchain-aarch64_cortex-a53_gcc-12.3.0_musl/lib/gcc/aarch64-openwrt-linux-musl/12.3.0/../../../../aarch64-openwrt-linux-musl/lib/crt1.o
                0x000000000047f458                _DYNAMIC

.got            0x000000000047f668      0x998
 *(SORT_BY_ALIGNMENT(.got.plt))
 .got.plt       0x000000000047f668      0x970 /home/notlean/openwrt-uboost/staging_dir/toolchain-aarch64_cortex-a53_gcc-12.3.0_musl/lib/gcc/aarch64-openwrt-linux-musl/12.3.0/../../../../aarch64-openwrt-linux-musl/lib/crt1.o
 *(SORT_BY_ALIGNMENT(.igot.plt))
 .igot.plt      0x000000000047ffd8        0x0 /home/notlean/openwrt-uboost/staging_dir/toolchain-aarch64_cortex-a53_gcc-12.3.0_musl/lib/gcc/aarch64-openwrt-linux-musl/12.3.0/../../../../aarch64-openwrt-linux-musl/lib/crt1.o
 *(SORT_BY_ALIGNMENT(.got))
 .got           0x000000000047ffd8       0x28 /home/notlean/openwrt-uboost/staging_dir/toolchain-aarch64_cortex-a53_gcc-12.3.0_musl/lib/gcc/aarch64-openwrt-linux-musl/12.3.0/../../../../aarch64-openwrt-linux-musl/lib/crt1.o
                0x000000000047ffd8                _GLOBAL_OFFSET_TABLE_
 *(SORT_BY_ALIGNMENT(.igot))
                0x0000000000480000                . = DATA_SEGMENT_RELRO_END (., 0x0)

.data           0x0000000000480000       0x15
                [!provide]                        PROVIDE (__data_start = .)
 *(SORT_BY_ALIGNMENT(.data) SORT_BY_ALIGNMENT(.data.*) SORT_BY_ALIGNMENT(.gnu.linkonce.d.*))
 .data.g_parsefile.lto_priv.0
                0x0000000000480000        0x8 /home/notlean/openwrt-uboost/tmp/cc0dSt9z.ltrans2.ltrans.o
                0x0000000000480000                g_parsefile.lto_priv.0
 .data.logmode  0x0000000000480008        0x4 /home/notlean/openwrt-uboost/tmp/cc0dSt9z.ltrans0.ltrans.o
                0x0000000000480008                logmode
 .data.ttyfd    0x000000000048000c        0x4 /home/notlean/openwrt-uboost/tmp/cc0dSt9z.ltrans2.ltrans.o
 .data.builtinloc.lto_priv.0
                0x0000000000480010        0x4 /home/notlean/openwrt-uboost/tmp/cc0dSt9z.ltrans2.ltrans.o
                0x0000000000480010                builtinloc.lto_priv.0
 .data.xfunc_error_retval
                0x0000000000480014        0x1 /home/notlean/openwrt-uboost/tmp/cc0dSt9z.ltrans0.ltrans.o
                0x0000000000480014                xfunc_error_retval

.data1
 *(SORT_BY_ALIGNMENT(.data1))
                0x0000000000480015                _edata = .
                [!provide]                        PROVIDE (edata = .)
                0x0000000000480015                . = .
                0x0000000000480015                __bss_start = .
                0x0000000000480015                __bss_start__ = .

.bss            0x0000000000480018      0x840
 *(SORT_BY_ALIGNMENT(.dynbss))
 .dynbss        0x0000000000480018       0x1c /home/notlean/openwrt-uboost/staging_dir/toolchain-aarch64_cortex-a53_gcc-12.3.0_musl/lib/gcc/aarch64-openwrt-linux-musl/12.3.0/../../../../aarch64-openwrt-linux-musl/lib/crt1.o
                0x0000000000480018                __stack_chk_guard
                0x0000000000480020                optarg
                0x0000000000480028                _environ
                0x0000000000480028                __environ
                0x0000000000480028                environ
                0x0000000000480028                ___environ
                0x0000000000480030                optind
 *(SORT_BY_ALIGNMENT(.bss) SORT_BY_ALIGNMENT(.bss.*) SORT_BY_ALIGNMENT(.gnu.linkonce.b.*))
 *fill*         0x0000000000480034        0x4 
 .bss           0x0000000000480038       0x38 /home/notlean/openwrt-uboost/staging_dir/toolchain-aarch64_cortex-a53_gcc-12.3.0_musl/lib/gcc/aarch64-openwrt-linux-musl/12.3.0/crtbegin.o
 .bss.file      0x0000000000480070        0x8 /home/notlean/openwrt-uboost/tmp/cc0dSt9z.ltrans0.ltrans.o
 .bss.ptr_to_globals
                0x0000000000480078        0x8 /home/notlean/openwrt-uboost/tmp/cc0dSt9z.ltrans0.ltrans.o
                0x0000000000480078                ptr_to_globals
 .bss.bb_common_bufsiz1
                0x0000000000480080      0x400 /home/notlean/openwrt-uboost/tmp/cc0dSt9z.ltrans0.ltrans.o
                0x0000000000480080                bb_common_bufsiz1
 .bss.die_func  0x0000000000480480        0x8 /home/notlean/openwrt-uboost/tmp/cc0dSt9z.ltrans0.ltrans.o
                0x0000000000480480                die_func
 .bss.die_jmp   0x0000000000480488      0x138 /home/notlean/openwrt-uboost/tmp/cc0dSt9z.ltrans0.ltrans.o
 .bss.bb_errno  0x00000000004805c0        0x8 /home/notlean/openwrt-uboost/tmp/cc0dSt9z.ltrans0.ltrans.o
                0x00000000004805c0                bb_errno
 .bss.applet_name
                0x00000000004805c8        0x8 /home/notlean/openwrt-uboost/tmp/cc0dSt9z.ltrans0.ltrans.o
                0x00000000004805c8                applet_name
 .bss.rtnl_rttable_tab
                0x00000000004805d0        0x8 /home/notlean/openwrt-uboost/tmp/cc0dSt9z.ltrans1.ltrans.o
 .bss.idxmap    0x00000000004805d8        0x8 /home/notlean/openwrt-uboost/tmp/cc0dSt9z.ltrans1.ltrans.o
 .bss.rtnl_rtrealm_tab
                0x00000000004805e0        0x8 /home/notlean/openwrt-uboost/tmp/cc0dSt9z.ltrans1.ltrans.o
 .bss.rtnl_rtdsfield_tab
                0x00000000004805e8        0x8 /home/notlean/openwrt-uboost/tmp/cc0dSt9z.ltrans1.ltrans.o
 .bss.rtnl_rtprot_tab
                0x00000000004805f0        0x8 /home/notlean/openwrt-uboost/tmp/cc0dSt9z.ltrans1.ltrans.o
 .bss.rtnl_rtscope_tab
                0x00000000004805f8        0x8 /home/notlean/openwrt-uboost/tmp/cc0dSt9z.ltrans1.ltrans.o
 .bss.localvar_stack.lto_priv.0
                0x0000000000480600        0x8 /home/notlean/openwrt-uboost/tmp/cc0dSt9z.ltrans2.ltrans.o
                0x0000000000480600                localvar_stack.lto_priv.0
 .bss.line_input_state.lto_priv.0
                0x0000000000480608        0x8 /home/notlean/openwrt-uboost/tmp/cc0dSt9z.ltrans2.ltrans.o
                0x0000000000480608                line_input_state.lto_priv.0
 .bss.funcblock
                0x0000000000480610        0x8 /home/notlean/openwrt-uboost/tmp/cc0dSt9z.ltrans2.ltrans.o
 .bss.funcstring_end
                0x0000000000480618        0x8 /home/notlean/openwrt-uboost/tmp/cc0dSt9z.ltrans2.ltrans.o
 .bss.lastcmdentry
                0x0000000000480620        0x8 /home/notlean/openwrt-uboost/tmp/cc0dSt9z.ltrans2.ltrans.o
 .bss.exparg    0x0000000000480628       0x10 /home/notlean/openwrt-uboost/tmp/cc0dSt9z.ltrans2.ltrans.o
 .bss.argbackq  0x0000000000480638        0x8 /home/notlean/openwrt-uboost/tmp/cc0dSt9z.ltrans2.ltrans.o
 .bss.expdest   0x0000000000480640        0x8 /home/notlean/openwrt-uboost/tmp/cc0dSt9z.ltrans2.ltrans.o
 .bss.ifslastp  0x0000000000480648        0x8 /home/notlean/openwrt-uboost/tmp/cc0dSt9z.ltrans2.ltrans.o
 .bss.ifsfirst  0x0000000000480650       0x18 /home/notlean/openwrt-uboost/tmp/cc0dSt9z.ltrans2.ltrans.o
 .bss.basepf.lto_priv.0
                0x0000000000480668       0x88 /home/notlean/openwrt-uboost/tmp/cc0dSt9z.ltrans2.ltrans.o
                0x0000000000480668                basepf.lto_priv.0
 .bss.cmdnextc  0x00000000004806f0        0x8 /home/notlean/openwrt-uboost/tmp/cc0dSt9z.ltrans2.ltrans.o
 .bss.jobtab    0x00000000004806f8        0x8 /home/notlean/openwrt-uboost/tmp/cc0dSt9z.ltrans2.ltrans.o
 .bss.curjob    0x0000000000480700        0x8 /home/notlean/openwrt-uboost/tmp/cc0dSt9z.ltrans2.ltrans.o
 .bss.atab.lto_priv.0
                0x0000000000480708        0x8 /home/notlean/openwrt-uboost/tmp/cc0dSt9z.ltrans2.ltrans.o
                0x0000000000480708                atab.lto_priv.0
 .bss.cmdtable.lto_priv.0
                0x0000000000480710        0x8 /home/notlean/openwrt-uboost/tmp/cc0dSt9z.ltrans2.ltrans.o
                0x0000000000480710                cmdtable.lto_priv.0
 .bss.cmdedit_prompt.lto_priv.0
                0x0000000000480718        0x8 /home/notlean/openwrt-uboost/tmp/cc0dSt9z.ltrans2.ltrans.o
                0x0000000000480718                cmdedit_prompt.lto_priv.0
 .bss.pathopt.lto_priv.0
                0x0000000000480720        0x8 /home/notlean/openwrt-uboost/tmp/cc0dSt9z.ltrans2.ltrans.o
                0x0000000000480720                pathopt.lto_priv.0
 .bss.ash_ptr_to_globals_var
                0x0000000000480728        0x8 /home/notlean/openwrt-uboost/tmp/cc0dSt9z.ltrans2.ltrans.o
                0x0000000000480728                ash_ptr_to_globals_var
 .bss.optionarg.lto_priv.0
                0x0000000000480730        0x8 /home/notlean/openwrt-uboost/tmp/cc0dSt9z.ltrans2.ltrans.o
                0x0000000000480730                optionarg.lto_priv.0
 .bss.argptr.lto_priv.0
                0x0000000000480738        0x8 /home/notlean/openwrt-uboost/tmp/cc0dSt9z.ltrans2.ltrans.o
                0x0000000000480738                argptr.lto_priv.0
 .bss.optptr.lto_priv.0
                0x0000000000480740        0x8 /home/notlean/openwrt-uboost/tmp/cc0dSt9z.ltrans2.ltrans.o
                0x0000000000480740                optptr.lto_priv.0
 .bss.ash_ptr_to_globals_memstack
                0x0000000000480748        0x8 /home/notlean/openwrt-uboost/tmp/cc0dSt9z.ltrans2.ltrans.o
                0x0000000000480748                ash_ptr_to_globals_memstack
 .bss.commandname.lto_priv.0
                0x0000000000480750        0x8 /home/notlean/openwrt-uboost/tmp/cc0dSt9z.ltrans2.ltrans.o
                0x0000000000480750                commandname.lto_priv.0
 .bss.ash_ptr_to_globals_misc
                0x0000000000480758        0x8 /home/notlean/openwrt-uboost/tmp/cc0dSt9z.ltrans2.ltrans.o
                0x0000000000480758                ash_ptr_to_globals_misc
 .bss.cache_user_group.lto_priv.0
                0x0000000000480760        0x8 /home/notlean/openwrt-uboost/tmp/cc0dSt9z.ltrans2.ltrans.o
                0x0000000000480760                cache_user_group.lto_priv.0
 .bss.heredoclist
                0x0000000000480768        0x8 /home/notlean/openwrt-uboost/tmp/cc0dSt9z.ltrans3.ltrans.o
 .bss.heredoc   0x0000000000480770        0x8 /home/notlean/openwrt-uboost/tmp/cc0dSt9z.ltrans3.ltrans.o
 .bss.redirnode
                0x0000000000480778        0x8 /home/notlean/openwrt-uboost/tmp/cc0dSt9z.ltrans3.ltrans.o
 .bss.backquotelist
                0x0000000000480780        0x8 /home/notlean/openwrt-uboost/tmp/cc0dSt9z.ltrans3.ltrans.o
 .bss.wordtext  0x0000000000480788        0x8 /home/notlean/openwrt-uboost/tmp/cc0dSt9z.ltrans3.ltrans.o
 .bss.lineedit_ptr_to_statics
                0x0000000000480790        0x8 /home/notlean/openwrt-uboost/tmp/cc0dSt9z.ltrans3.ltrans.o
                0x0000000000480790                lineedit_ptr_to_statics
 .bss.global_crc32_table
                0x0000000000480798        0x8 /home/notlean/openwrt-uboost/tmp/cc0dSt9z.ltrans4.ltrans.o
 .bss.test_ptr_to_statics
                0x00000000004807a0        0x8 /home/notlean/openwrt-uboost/tmp/cc0dSt9z.ltrans5.ltrans.o
 .bss.ino_dev_hashtable
                0x00000000004807a8        0x8 /home/notlean/openwrt-uboost/tmp/cc0dSt9z.ltrans7.ltrans.o
 .bss.cache.0   0x00000000004807b0        0x8 /home/notlean/openwrt-uboost/tmp/cc0dSt9z.ltrans7.ltrans.o
 .bss.saved.0   0x00000000004807b8       0x20 /home/notlean/openwrt-uboost/tmp/cc0dSt9z.ltrans7.ltrans.o
 .bss.oneline   0x00000000004807d8        0x4 /home/notlean/openwrt-uboost/tmp/cc0dSt9z.ltrans0.ltrans.o
                0x00000000004807d8                oneline
 .bss.try_lock  0x00000000004807dc        0x4 /home/notlean/openwrt-uboost/tmp/cc0dSt9z.ltrans0.ltrans.o
 .bss.unlock    0x00000000004807e0        0x4 /home/notlean/openwrt-uboost/tmp/cc0dSt9z.ltrans0.ltrans.o
 .bss.shared    0x00000000004807e4        0x4 /home/notlean/openwrt-uboost/tmp/cc0dSt9z.ltrans0.ltrans.o
 .bss.waitonly  0x00000000004807e8        0x4 /home/notlean/openwrt-uboost/tmp/cc0dSt9z.ltrans0.ltrans.o
 .bss.fd        0x00000000004807ec        0x4 /home/notlean/openwrt-uboost/tmp/cc0dSt9z.ltrans0.ltrans.o
 .bss.bb_got_signal
                0x00000000004807f0        0x4 /home/notlean/openwrt-uboost/tmp/cc0dSt9z.ltrans0.ltrans.o
                0x00000000004807f0                bb_got_signal
 .bss.option_mask32
                0x00000000004807f4        0x4 /home/notlean/openwrt-uboost/tmp/cc0dSt9z.ltrans0.ltrans.o
                0x00000000004807f4                option_mask32
 .bss.hz_internal.0
                0x00000000004807f8        0x4 /home/notlean/openwrt-uboost/tmp/cc0dSt9z.ltrans1.ltrans.o
 .bss.wrote_pidfile
                0x00000000004807fc        0x4 /home/notlean/openwrt-uboost/tmp/cc0dSt9z.ltrans1.ltrans.o
                0x00000000004807fc                wrote_pidfile
 .bss.did_banner.8
                0x0000000000480800        0x4 /home/notlean/openwrt-uboost/tmp/cc0dSt9z.ltrans2.ltrans.o
 .bss.is_interactive.9
                0x0000000000480804        0x4 /home/notlean/openwrt-uboost/tmp/cc0dSt9z.ltrans2.ltrans.o
 .bss.loopnest.lto_priv.0
                0x0000000000480808        0x4 /home/notlean/openwrt-uboost/tmp/cc0dSt9z.ltrans2.ltrans.o
                0x0000000000480808                loopnest.lto_priv.0
 .bss.skipcount.lto_priv.0
                0x000000000048080c        0x4 /home/notlean/openwrt-uboost/tmp/cc0dSt9z.ltrans2.ltrans.o
                0x000000000048080c                skipcount.lto_priv.0
 .bss.evalskip.lto_priv.0
                0x0000000000480810        0x4 /home/notlean/openwrt-uboost/tmp/cc0dSt9z.ltrans2.ltrans.o
                0x0000000000480810                evalskip.lto_priv.0
 .bss.initialpgrp
                0x0000000000480814        0x4 /home/notlean/openwrt-uboost/tmp/cc0dSt9z.ltrans2.ltrans.o
 .bss.doing_jobctl.lto_priv.0
                0x0000000000480818        0x4 /home/notlean/openwrt-uboost/tmp/cc0dSt9z.ltrans2.ltrans.o
                0x0000000000480818                doing_jobctl.lto_priv.0
 .bss.njobs     0x000000000048081c        0x4 /home/notlean/openwrt-uboost/tmp/cc0dSt9z.ltrans2.ltrans.o
 .bss.needprompt.lto_priv.0
                0x0000000000480820        0x4 /home/notlean/openwrt-uboost/tmp/cc0dSt9z.ltrans2.ltrans.o
                0x0000000000480820                needprompt.lto_priv.0
 .bss.quoteflag
                0x0000000000480824        0x4 /home/notlean/openwrt-uboost/tmp/cc0dSt9z.ltrans3.ltrans.o
 .bss.tokpushback
                0x0000000000480828        0x4 /home/notlean/openwrt-uboost/tmp/cc0dSt9z.ltrans3.ltrans.o
 .bss.lasttoken
                0x000000000048082c        0x4 /home/notlean/openwrt-uboost/tmp/cc0dSt9z.ltrans3.ltrans.o
 .bss.doprompt  0x0000000000480830        0x4 /home/notlean/openwrt-uboost/tmp/cc0dSt9z.ltrans3.ltrans.o
 .bss.checkkwd  0x0000000000480834        0x4 /home/notlean/openwrt-uboost/tmp/cc0dSt9z.ltrans3.ltrans.o
 .bss.funcline  0x0000000000480838        0x4 /home/notlean/openwrt-uboost/tmp/cc0dSt9z.ltrans3.ltrans.o
 .bss.warned.0  0x000000000048083c        0x4 /home/notlean/openwrt-uboost/tmp/cc0dSt9z.ltrans4.ltrans.o
 .bss.msgs.0    0x0000000000480840        0x4 /home/notlean/openwrt-uboost/tmp/cc0dSt9z.ltrans7.ltrans.o
 .bss._SL_      0x0000000000480844        0x1 /home/notlean/openwrt-uboost/tmp/cc0dSt9z.ltrans0.ltrans.o
                0x0000000000480844                _SL_
 .bss.preferred_family
                0x0000000000480845        0x1 /home/notlean/openwrt-uboost/tmp/cc0dSt9z.ltrans0.ltrans.o
                0x0000000000480845                preferred_family
 .bss.local_buf
                0x0000000000480846        0xc /home/notlean/openwrt-uboost/tmp/cc0dSt9z.ltrans0.ltrans.o
 .bss.cur_saved.1
                0x0000000000480852        0x1 /home/notlean/openwrt-uboost/tmp/cc0dSt9z.ltrans7.ltrans.o
 *(SORT_BY_ALIGNMENT(COMMON))
                0x0000000000480858                . = ALIGN ((. != 0x0)?0x8:0x1)
 *fill*         0x0000000000480853        0x5 
                0x0000000000480858                _bss_end__ = .
                0x0000000000480858                __bss_end__ = .
                0x0000000000480858                . = ALIGN (0x8)
                0x0000000000480858                . = SEGMENT_START ("ldata-segment", .)
                0x0000000000480858                . = ALIGN (0x8)
                0x0000000000480858                __end__ = .
                0x0000000000480858                _end = .
                [!provide]                        PROVIDE (end = .)
                0x0000000000480858                . = DATA_SEGMENT_END (.)

.stab
 *(SORT_BY_ALIGNMENT(.stab))

.stabstr
 *(SORT_BY_ALIGNMENT(.stabstr))

.stab.excl
 *(SORT_BY_ALIGNMENT(.stab.excl))

.stab.exclstr
 *(SORT_BY_ALIGNMENT(.stab.exclstr))

.stab.index
 *(SORT_BY_ALIGNMENT(.stab.index))

.stab.indexstr
 *(SORT_BY_ALIGNMENT(.stab.indexstr))

.comment        0x0000000000000000       0x33
 *(SORT_BY_ALIGNMENT(.comment))
 .comment       0x0000000000000000       0x33 /home/notlean/openwrt-uboost/staging_dir/toolchain-aarch64_cortex-a53_gcc-12.3.0_musl/lib/gcc/aarch64-openwrt-linux-musl/12.3.0/../../../../aarch64-openwrt-linux-musl/lib/crt1.o
                                         0x34 (size before relaxing)
 .comment       0x0000000000000033       0x34 /home/notlean/openwrt-uboost/staging_dir/toolchain-aarch64_cortex-a53_gcc-12.3.0_musl/lib/gcc/aarch64-openwrt-linux-musl/12.3.0/crtbegin.o
 .comment       0x0000000000000033       0x34 /home/notlean/openwrt-uboost/tmp/cc0dSt9z.ltrans0.ltrans.o
 .comment       0x0000000000000033       0x34 /home/notlean/openwrt-uboost/tmp/cc0dSt9z.ltrans1.ltrans.o
 .comment       0x0000000000000033       0x34 /home/notlean/openwrt-uboost/tmp/cc0dSt9z.ltrans2.ltrans.o
 .comment       0x0000000000000033       0x34 /home/notlean/openwrt-uboost/tmp/cc0dSt9z.ltrans3.ltrans.o
 .comment       0x0000000000000033       0x34 /home/notlean/openwrt-uboost/tmp/cc0dSt9z.ltrans4.ltrans.o
 .comment       0x0000000000000033       0x34 /home/notlean/openwrt-uboost/tmp/cc0dSt9z.ltrans5.ltrans.o
 .comment       0x0000000000000033       0x34 /home/notlean/openwrt-uboost/tmp/cc0dSt9z.ltrans6.ltrans.o
 .comment       0x0000000000000033       0x34 /home/notlean/openwrt-uboost/tmp/cc0dSt9z.ltrans7.ltrans.o
 .comment       0x0000000000000033       0x34 /home/notlean/openwrt-uboost/staging_dir/toolchain-aarch64_cortex-a53_gcc-12.3.0_musl/lib/gcc/aarch64-openwrt-linux-musl/12.3.0/crtend.o

.gnu.build.attributes
 *(SORT_BY_ALIGNMENT(.gnu.build.attributes) SORT_BY_ALIGNMENT(.gnu.build.attributes.*))

.debug
 *(SORT_BY_ALIGNMENT(.debug))

.line
 *(SORT_BY_ALIGNMENT(.line))

.debug_srcinfo
 *(SORT_BY_ALIGNMENT(.debug_srcinfo))

.debug_sfnames
 *(SORT_BY_ALIGNMENT(.debug_sfnames))

.debug_aranges  0x0000000000000000       0xb0
 *(SORT_BY_ALIGNMENT(.debug_aranges))
 .debug_aranges
                0x0000000000000000       0x40 /home/notlean/openwrt-uboost/staging_dir/toolchain-aarch64_cortex-a53_gcc-12.3.0_musl/lib/gcc/aarch64-openwrt-linux-musl/12.3.0/../../../../aarch64-openwrt-linux-musl/lib/crti.o
 .debug_aranges
                0x0000000000000040       0x40 /home/notlean/openwrt-uboost/staging_dir/toolchain-aarch64_cortex-a53_gcc-12.3.0_musl/lib/gcc/aarch64-openwrt-linux-musl/12.3.0/../../../../aarch64-openwrt-linux-musl/lib/crtn.o
 .debug_aranges
                0x0000000000000080       0x30 /home/notlean/openwrt-uboost/staging_dir/toolchain-aarch64_cortex-a53_gcc-12.3.0_musl/lib/gcc/aarch64-openwrt-linux-musl/12.3.0/../../../../aarch64-openwrt-linux-musl/lib/crt1.o

.debug_pubnames
 *(SORT_BY_ALIGNMENT(.debug_pubnames))

.debug_info     0x0000000000000000      0x1a0
 *(SORT_BY_ALIGNMENT(.debug_info) SORT_BY_ALIGNMENT(.gnu.linkonce.wi.*))
 .debug_info    0x0000000000000000      0x15a /home/notlean/openwrt-uboost/staging_dir/toolchain-aarch64_cortex-a53_gcc-12.3.0_musl/lib/gcc/aarch64-openwrt-linux-musl/12.3.0/../../../../aarch64-openwrt-linux-musl/lib/crt1.o
 .debug_info    0x000000000000015a       0x23 /home/notlean/openwrt-uboost/staging_dir/toolchain-aarch64_cortex-a53_gcc-12.3.0_musl/lib/gcc/aarch64-openwrt-linux-musl/12.3.0/../../../../aarch64-openwrt-linux-musl/lib/crti.o
 .debug_info    0x000000000000017d       0x23 /home/notlean/openwrt-uboost/staging_dir/toolchain-aarch64_cortex-a53_gcc-12.3.0_musl/lib/gcc/aarch64-openwrt-linux-musl/12.3.0/../../../../aarch64-openwrt-linux-musl/lib/crtn.o

.debug_abbrev   0x0000000000000000      0x10e
 *(SORT_BY_ALIGNMENT(.debug_abbrev))
 .debug_abbrev  0x0000000000000000       0xea /home/notlean/openwrt-uboost/staging_dir/toolchain-aarch64_cortex-a53_gcc-12.3.0_musl/lib/gcc/aarch64-openwrt-linux-musl/12.3.0/../../../../aarch64-openwrt-linux-musl/lib/crt1.o
 .debug_abbrev  0x00000000000000ea       0x12 /home/notlean/openwrt-uboost/staging_dir/toolchain-aarch64_cortex-a53_gcc-12.3.0_musl/lib/gcc/aarch64-openwrt-linux-musl/12.3.0/../../../../aarch64-openwrt-linux-musl/lib/crti.o
 .debug_abbrev  0x00000000000000fc       0x12 /home/notlean/openwrt-uboost/staging_dir/toolchain-aarch64_cortex-a53_gcc-12.3.0_musl/lib/gcc/aarch64-openwrt-linux-musl/12.3.0/../../../../aarch64-openwrt-linux-musl/lib/crtn.o

.debug_line     0x0000000000000000      0x11f
 *(SORT_BY_ALIGNMENT(.debug_line) SORT_BY_ALIGNMENT(.debug_line.*) SORT_BY_ALIGNMENT(.debug_line_end))
 .debug_line    0x0000000000000000       0x61 /home/notlean/openwrt-uboost/staging_dir/toolchain-aarch64_cortex-a53_gcc-12.3.0_musl/lib/gcc/aarch64-openwrt-linux-musl/12.3.0/../../../../aarch64-openwrt-linux-musl/lib/crt1.o
 .debug_line    0x0000000000000061       0x60 /home/notlean/openwrt-uboost/staging_dir/toolchain-aarch64_cortex-a53_gcc-12.3.0_musl/lib/gcc/aarch64-openwrt-linux-musl/12.3.0/../../../../aarch64-openwrt-linux-musl/lib/crti.o
 .debug_line    0x00000000000000c1       0x5e /home/notlean/openwrt-uboost/staging_dir/toolchain-aarch64_cortex-a53_gcc-12.3.0_musl/lib/gcc/aarch64-openwrt-linux-musl/12.3.0/../../../../aarch64-openwrt-linux-musl/lib/crtn.o

.debug_frame    0x0000000000000000       0x28
 *(SORT_BY_ALIGNMENT(.debug_frame))
 .debug_frame   0x0000000000000000       0x28 /home/notlean/openwrt-uboost/staging_dir/toolchain-aarch64_cortex-a53_gcc-12.3.0_musl/lib/gcc/aarch64-openwrt-linux-musl/12.3.0/../../../../aarch64-openwrt-linux-musl/lib/crt1.o

.debug_str      0x0000000000000000      0x228
 *(SORT_BY_ALIGNMENT(.debug_str))
 .debug_str     0x0000000000000000      0x195 /home/notlean/openwrt-uboost/staging_dir/toolchain-aarch64_cortex-a53_gcc-12.3.0_musl/lib/gcc/aarch64-openwrt-linux-musl/12.3.0/../../../../aarch64-openwrt-linux-musl/lib/crt1.o
                                        0x1b5 (size before relaxing)
 .debug_str     0x0000000000000195       0x80 /home/notlean/openwrt-uboost/staging_dir/toolchain-aarch64_cortex-a53_gcc-12.3.0_musl/lib/gcc/aarch64-openwrt-linux-musl/12.3.0/../../../../aarch64-openwrt-linux-musl/lib/crti.o
 .debug_str     0x0000000000000215       0x13 /home/notlean/openwrt-uboost/staging_dir/toolchain-aarch64_cortex-a53_gcc-12.3.0_musl/lib/gcc/aarch64-openwrt-linux-musl/12.3.0/../../../../aarch64-openwrt-linux-musl/lib/crtn.o
                                         0x80 (size before relaxing)

.debug_loc
 *(SORT_BY_ALIGNMENT(.debug_loc))

.debug_macinfo
 *(SORT_BY_ALIGNMENT(.debug_macinfo))

.debug_weaknames
 *(SORT_BY_ALIGNMENT(.debug_weaknames))

.debug_funcnames
 *(SORT_BY_ALIGNMENT(.debug_funcnames))

.debug_typenames
 *(SORT_BY_ALIGNMENT(.debug_typenames))

.debug_varnames
 *(SORT_BY_ALIGNMENT(.debug_varnames))

.debug_pubtypes
 *(SORT_BY_ALIGNMENT(.debug_pubtypes))

.debug_ranges
 *(SORT_BY_ALIGNMENT(.debug_ranges))

.debug_addr
 *(SORT_BY_ALIGNMENT(.debug_addr))

.debug_line_str
                0x0000000000000000       0x88
 *(SORT_BY_ALIGNMENT(.debug_line_str))
 .debug_line_str
                0x0000000000000000       0x6e /home/notlean/openwrt-uboost/staging_dir/toolchain-aarch64_cortex-a53_gcc-12.3.0_musl/lib/gcc/aarch64-openwrt-linux-musl/12.3.0/../../../../aarch64-openwrt-linux-musl/lib/crt1.o
                                         0xdb (size before relaxing)
 .debug_line_str
                0x000000000000006e       0x13 /home/notlean/openwrt-uboost/staging_dir/toolchain-aarch64_cortex-a53_gcc-12.3.0_musl/lib/gcc/aarch64-openwrt-linux-musl/12.3.0/../../../../aarch64-openwrt-linux-musl/lib/crti.o
                                         0x72 (size before relaxing)
 .debug_line_str
                0x0000000000000081        0x7 /home/notlean/openwrt-uboost/staging_dir/toolchain-aarch64_cortex-a53_gcc-12.3.0_musl/lib/gcc/aarch64-openwrt-linux-musl/12.3.0/../../../../aarch64-openwrt-linux-musl/lib/crtn.o
                                         0x72 (size before relaxing)

.debug_loclists
                0x0000000000000000       0x88
 *(SORT_BY_ALIGNMENT(.debug_loclists))
 .debug_loclists
                0x0000000000000000       0x88 /home/notlean/openwrt-uboost/staging_dir/toolchain-aarch64_cortex-a53_gcc-12.3.0_musl/lib/gcc/aarch64-openwrt-linux-musl/12.3.0/../../../../aarch64-openwrt-linux-musl/lib/crt1.o

.debug_macro
 *(SORT_BY_ALIGNMENT(.debug_macro))

.debug_names
 *(SORT_BY_ALIGNMENT(.debug_names))

.debug_rnglists
                0x0000000000000000       0x59
 *(SORT_BY_ALIGNMENT(.debug_rnglists))
 .debug_rnglists
                0x0000000000000000       0x17 /home/notlean/openwrt-uboost/staging_dir/toolchain-aarch64_cortex-a53_gcc-12.3.0_musl/lib/gcc/aarch64-openwrt-linux-musl/12.3.0/../../../../aarch64-openwrt-linux-musl/lib/crt1.o
 .debug_rnglists
                0x0000000000000017       0x21 /home/notlean/openwrt-uboost/staging_dir/toolchain-aarch64_cortex-a53_gcc-12.3.0_musl/lib/gcc/aarch64-openwrt-linux-musl/12.3.0/../../../../aarch64-openwrt-linux-musl/lib/crti.o
 .debug_rnglists
                0x0000000000000038       0x21 /home/notlean/openwrt-uboost/staging_dir/toolchain-aarch64_cortex-a53_gcc-12.3.0_musl/lib/gcc/aarch64-openwrt-linux-musl/12.3.0/../../../../aarch64-openwrt-linux-musl/lib/crtn.o

.debug_str_offsets
 *(SORT_BY_ALIGNMENT(.debug_str_offsets))

.debug_sup
 *(SORT_BY_ALIGNMENT(.debug_sup))

.ARM.attributes
 *(SORT_BY_ALIGNMENT(.ARM.attributes))
 *(SORT_BY_ALIGNMENT(.gnu.attributes))

.note.gnu.arm.ident
 *(SORT_BY_ALIGNMENT(.note.gnu.arm.ident))

/DISCARD/
 *(SORT_BY_ALIGNMENT(.note.GNU-stack))
 *(SORT_BY_ALIGNMENT(.gnu_debuglink))
 *(SORT_BY_ALIGNMENT(.gnu.lto_*))
OUTPUT(busybox_unstripped elf64-littleaarch64)
LOAD linker stubs
