	.section .mdebug.abi32
	.previous
	.nan	legacy
	.module	softfloat
	.module	oddspreg
	.module	arch=mips32r2
	.abicalls
	.text
$Ltext0:
	.section	.rodata._ZNK12_GLOBAL__N_117io_error_category4nameEv.str1.4,"aMS",@progbits,1
	.align	2
$LC0:
	.ascii	"iostream\000"
	.section	.text._ZNK12_GLOBAL__N_117io_error_category4nameEv,"ax",@progbits
	.align	2
$LFB1478 = .
$LM1:
	.cfi_startproc
	.set	nomips16
	.set	nomicromips
	.ent	_ZNK12_GLOBAL__N_117io_error_category4nameEv
	.type	_ZNK12_GLOBAL__N_117io_error_category4nameEv, @function
_ZNK12_GLOBAL__N_117io_error_category4nameEv:
	.frame	$sp,0,$31		# vars= 0, regs= 0/0, args= 0, gp= 0
	.mask	0x00000000,0
	.fmask	0x00000000,0
	.set	noreorder
	.cpload	$25
	.set	nomacro
$LVL0 = .
$LM2:
$LM3:
	lw	$2,%got($LC0)($28)
	jr	$31
	addiu	$2,$2,%lo($LC0)

	.set	macro
	.set	reorder
	.end	_ZNK12_GLOBAL__N_117io_error_category4nameEv
	.cfi_endproc
$LFE1478:
	.size	_ZNK12_GLOBAL__N_117io_error_category4nameEv, .-_ZNK12_GLOBAL__N_117io_error_category4nameEv
	.section	.text._ZN12_GLOBAL__N_113constant_initD2Ev,"ax",@progbits
	.align	2
$LFB1491 = .
$LM4:
	.cfi_startproc
	.set	nomips16
	.set	nomicromips
	.ent	_ZN12_GLOBAL__N_113constant_initD2Ev
	.type	_ZN12_GLOBAL__N_113constant_initD2Ev, @function
_ZN12_GLOBAL__N_113constant_initD2Ev:
	.frame	$sp,0,$31		# vars= 0, regs= 0/0, args= 0, gp= 0
	.mask	0x00000000,0
	.fmask	0x00000000,0
	.set	noreorder
	.set	nomacro
$LVL1 = .
$LM5:
	jr	$31
	nop

	.set	macro
	.set	reorder
	.end	_ZN12_GLOBAL__N_113constant_initD2Ev
	.cfi_endproc
$LFE1491:
	.size	_ZN12_GLOBAL__N_113constant_initD2Ev, .-_ZN12_GLOBAL__N_113constant_initD2Ev
	_ZN12_GLOBAL__N_113constant_initD1Ev = _ZN12_GLOBAL__N_113constant_initD2Ev
	.section	.text._ZN12_GLOBAL__N_117io_error_categoryD2Ev,"ax",@progbits
	.align	2
$LFB1881 = .
$LM6:
	.cfi_startproc
	.set	nomips16
	.set	nomicromips
	.ent	_ZN12_GLOBAL__N_117io_error_categoryD2Ev
	.type	_ZN12_GLOBAL__N_117io_error_categoryD2Ev, @function
_ZN12_GLOBAL__N_117io_error_categoryD2Ev:
	.frame	$sp,0,$31		# vars= 0, regs= 0/0, args= 0, gp= 0
	.mask	0x00000000,0
	.fmask	0x00000000,0
	.set	noreorder
	.cpload	$25
	.set	nomacro
$LVL2 = .
$LBB380 = .
$LM7:
	lw	$2,%got(_ZTVN12_GLOBAL__N_117io_error_categoryE+8)($28)
	lw	$25,%call16(_ZNSt3_V214error_categoryD2Ev)($28)
	addiu	$2,$2,%lo(_ZTVN12_GLOBAL__N_117io_error_categoryE+8)
	.reloc	1f,R_MIPS_JALR,_ZNSt3_V214error_categoryD2Ev
1:	jr	$25
$LVL3 = .
	sw	$2,0($4)

$LVL4 = .
$LBE380 = .
	.set	macro
	.set	reorder
	.end	_ZN12_GLOBAL__N_117io_error_categoryD2Ev
	.cfi_endproc
$LFE1881:
	.size	_ZN12_GLOBAL__N_117io_error_categoryD2Ev, .-_ZN12_GLOBAL__N_117io_error_categoryD2Ev
	_ZN12_GLOBAL__N_117io_error_categoryD1Ev = _ZN12_GLOBAL__N_117io_error_categoryD2Ev
	.section	.text._ZN12_GLOBAL__N_117io_error_categoryD0Ev,"ax",@progbits
	.align	2
$LFB1883 = .
$LM8:
	.cfi_startproc
	.set	nomips16
	.set	nomicromips
	.ent	_ZN12_GLOBAL__N_117io_error_categoryD0Ev
	.type	_ZN12_GLOBAL__N_117io_error_categoryD0Ev, @function
_ZN12_GLOBAL__N_117io_error_categoryD0Ev:
	.frame	$sp,32,$31		# vars= 0, regs= 2/0, args= 16, gp= 8
	.mask	0x80010000,-4
	.fmask	0x00000000,0
	.set	noreorder
	.cpload	$25
	.set	nomacro
$LVL5 = .
	addiu	$sp,$sp,-32
	.cfi_def_cfa_offset 32
	lw	$25,%got(_ZN12_GLOBAL__N_117io_error_categoryD1Ev)($28)
	sw	$16,24($sp)
	sw	$31,28($sp)
	.cprestore	16
	addiu	$25,$25,%lo(_ZN12_GLOBAL__N_117io_error_categoryD1Ev)
	.cfi_offset 16, -8
	.cfi_offset 31, -4
$LM9:
	.reloc	1f,R_MIPS_JALR,_ZN12_GLOBAL__N_117io_error_categoryD1Ev
1:	jalr	$25
$LVL6 = .
	move	$16,$4

$LVL7 = .
	lw	$28,16($sp)
	lw	$31,28($sp)
	move	$4,$16
	lw	$16,24($sp)
$LVL8 = .
	lw	$25,%call16(_ZdlPv)($28)
	.cfi_restore 16
	.cfi_restore 31
	.reloc	1f,R_MIPS_JALR,_ZdlPv
1:	jr	$25
$LVL9 = .
	addiu	$sp,$sp,32

	.cfi_def_cfa_offset 0
$LVL10 = .
	.set	macro
	.set	reorder
	.end	_ZN12_GLOBAL__N_117io_error_categoryD0Ev
	.cfi_endproc
$LFE1883:
	.size	_ZN12_GLOBAL__N_117io_error_categoryD0Ev, .-_ZN12_GLOBAL__N_117io_error_categoryD0Ev
	.section	.text._ZNSt8ios_base7failureB5cxx11D2Ev,"ax",@progbits
	.align	2
	.globl	_ZNSt8ios_base7failureB5cxx11D2Ev
$LFB1504 = .
$LM10:
	.cfi_startproc
	.set	nomips16
	.set	nomicromips
	.ent	_ZNSt8ios_base7failureB5cxx11D2Ev
	.type	_ZNSt8ios_base7failureB5cxx11D2Ev, @function
_ZNSt8ios_base7failureB5cxx11D2Ev:
	.frame	$sp,0,$31		# vars= 0, regs= 0/0, args= 0, gp= 0
	.mask	0x00000000,0
	.fmask	0x00000000,0
	.set	noreorder
	.cpload	$25
	.set	nomacro
$LVL11 = .
$LBB381 = .
$LM11:
	lw	$2,%got(_ZTVNSt8ios_base7failureB5cxx11E)($28)
$LM12:
	lw	$25,%call16(_ZNSt12system_errorD2Ev)($28)
$LM13:
	addiu	$2,$2,8
$LM14:
	.reloc	1f,R_MIPS_JALR,_ZNSt12system_errorD2Ev
1:	jr	$25
$LVL12 = .
	sw	$2,0($4)

$LVL13 = .
$LBE381 = .
	.set	macro
	.set	reorder
	.end	_ZNSt8ios_base7failureB5cxx11D2Ev
	.cfi_endproc
$LFE1504:
	.size	_ZNSt8ios_base7failureB5cxx11D2Ev, .-_ZNSt8ios_base7failureB5cxx11D2Ev
	.globl	_ZNSt8ios_base7failureB5cxx11D1Ev
	_ZNSt8ios_base7failureB5cxx11D1Ev = _ZNSt8ios_base7failureB5cxx11D2Ev
	.section	.text._ZNSt8ios_base7failureB5cxx11D0Ev,"ax",@progbits
	.align	2
	.globl	_ZNSt8ios_base7failureB5cxx11D0Ev
$LFB1506 = .
$LM15:
	.cfi_startproc
	.set	nomips16
	.set	nomicromips
	.ent	_ZNSt8ios_base7failureB5cxx11D0Ev
	.type	_ZNSt8ios_base7failureB5cxx11D0Ev, @function
_ZNSt8ios_base7failureB5cxx11D0Ev:
	.frame	$sp,32,$31		# vars= 0, regs= 2/0, args= 16, gp= 8
	.mask	0x80010000,-4
	.fmask	0x00000000,0
	.set	noreorder
	.cpload	$25
	.set	nomacro
$LVL14 = .
	addiu	$sp,$sp,-32
	.cfi_def_cfa_offset 32
$LM16:
	lw	$25,%call16(_ZNSt8ios_base7failureB5cxx11D1Ev)($28)
$LM17:
	sw	$16,24($sp)
	sw	$31,28($sp)
	.cprestore	16
	.cfi_offset 16, -8
	.cfi_offset 31, -4
$LM18:
	.reloc	1f,R_MIPS_JALR,_ZNSt8ios_base7failureB5cxx11D1Ev
1:	jalr	$25
$LVL15 = .
	move	$16,$4

$LVL16 = .
	lw	$28,16($sp)
	lw	$31,28($sp)
	move	$4,$16
	lw	$16,24($sp)
$LVL17 = .
	lw	$25,%call16(_ZdlPv)($28)
	.cfi_restore 16
	.cfi_restore 31
	.reloc	1f,R_MIPS_JALR,_ZdlPv
1:	jr	$25
$LVL18 = .
	addiu	$sp,$sp,32

	.cfi_def_cfa_offset 0
$LVL19 = .
	.set	macro
	.set	reorder
	.end	_ZNSt8ios_base7failureB5cxx11D0Ev
	.cfi_endproc
$LFE1506:
	.size	_ZNSt8ios_base7failureB5cxx11D0Ev, .-_ZNSt8ios_base7failureB5cxx11D0Ev
	.section	.text._ZNKSt8ios_base7failureB5cxx114whatEv,"ax",@progbits
	.align	2
	.globl	_ZNKSt8ios_base7failureB5cxx114whatEv
$LFB1507 = .
$LM19:
	.cfi_startproc
	.set	nomips16
	.set	nomicromips
	.ent	_ZNKSt8ios_base7failureB5cxx114whatEv
	.type	_ZNKSt8ios_base7failureB5cxx114whatEv, @function
_ZNKSt8ios_base7failureB5cxx114whatEv:
	.frame	$sp,0,$31		# vars= 0, regs= 0/0, args= 0, gp= 0
	.mask	0x00000000,0
	.fmask	0x00000000,0
	.set	noreorder
	.cpload	$25
	.set	nomacro
$LVL20 = .
$LM20:
$LM21:
	lw	$25,%call16(_ZNKSt13runtime_error4whatEv)($28)
	.reloc	1f,R_MIPS_JALR,_ZNKSt13runtime_error4whatEv
1:	jr	$25
	nop

$LVL21 = .
	.set	macro
	.set	reorder
	.end	_ZNKSt8ios_base7failureB5cxx114whatEv
	.cfi_endproc
$LFE1507:
	.size	_ZNKSt8ios_base7failureB5cxx114whatEv, .-_ZNKSt8ios_base7failureB5cxx114whatEv
	.section	.text._ZNSt19__iosfail_type_infoD2Ev,"ax",@progbits
	.align	2
	.globl	_ZNSt19__iosfail_type_infoD2Ev
$LFB1519 = .
$LM22:
	.cfi_startproc
	.set	nomips16
	.set	nomicromips
	.ent	_ZNSt19__iosfail_type_infoD2Ev
	.type	_ZNSt19__iosfail_type_infoD2Ev, @function
_ZNSt19__iosfail_type_infoD2Ev:
	.frame	$sp,0,$31		# vars= 0, regs= 0/0, args= 0, gp= 0
	.mask	0x00000000,0
	.fmask	0x00000000,0
	.set	noreorder
	.cpload	$25
	.set	nomacro
$LVL22 = .
$LBB382 = .
$LM23:
	lw	$2,%got(_ZTVSt19__iosfail_type_info)($28)
	lw	$25,%call16(_ZN10__cxxabiv120__si_class_type_infoD2Ev)($28)
	addiu	$2,$2,8
	.reloc	1f,R_MIPS_JALR,_ZN10__cxxabiv120__si_class_type_infoD2Ev
1:	jr	$25
$LVL23 = .
	sw	$2,0($4)

$LVL24 = .
$LBE382 = .
	.set	macro
	.set	reorder
	.end	_ZNSt19__iosfail_type_infoD2Ev
	.cfi_endproc
$LFE1519:
	.size	_ZNSt19__iosfail_type_infoD2Ev, .-_ZNSt19__iosfail_type_infoD2Ev
	.globl	_ZNSt19__iosfail_type_infoD1Ev
	_ZNSt19__iosfail_type_infoD1Ev = _ZNSt19__iosfail_type_infoD2Ev
	.section	.text._ZNSt19__iosfail_type_infoD0Ev,"ax",@progbits
	.align	2
	.globl	_ZNSt19__iosfail_type_infoD0Ev
$LFB1521 = .
$LM24:
	.cfi_startproc
	.set	nomips16
	.set	nomicromips
	.ent	_ZNSt19__iosfail_type_infoD0Ev
	.type	_ZNSt19__iosfail_type_infoD0Ev, @function
_ZNSt19__iosfail_type_infoD0Ev:
	.frame	$sp,32,$31		# vars= 0, regs= 2/0, args= 16, gp= 8
	.mask	0x80010000,-4
	.fmask	0x00000000,0
	.set	noreorder
	.cpload	$25
	.set	nomacro
$LVL25 = .
	addiu	$sp,$sp,-32
	.cfi_def_cfa_offset 32
	lw	$25,%call16(_ZNSt19__iosfail_type_infoD1Ev)($28)
	sw	$16,24($sp)
	sw	$31,28($sp)
	.cprestore	16
	.cfi_offset 16, -8
	.cfi_offset 31, -4
$LM25:
	.reloc	1f,R_MIPS_JALR,_ZNSt19__iosfail_type_infoD1Ev
1:	jalr	$25
$LVL26 = .
	move	$16,$4

$LVL27 = .
	lw	$28,16($sp)
	lw	$31,28($sp)
	move	$4,$16
	lw	$16,24($sp)
$LVL28 = .
	lw	$25,%call16(_ZdlPv)($28)
	.cfi_restore 16
	.cfi_restore 31
	.reloc	1f,R_MIPS_JALR,_ZdlPv
1:	jr	$25
$LVL29 = .
	addiu	$sp,$sp,32

	.cfi_def_cfa_offset 0
$LVL30 = .
	.set	macro
	.set	reorder
	.end	_ZNSt19__iosfail_type_infoD0Ev
	.cfi_endproc
$LFE1521:
	.size	_ZNSt19__iosfail_type_infoD0Ev, .-_ZNSt19__iosfail_type_infoD0Ev
	.section	.text._ZNKSt19__iosfail_type_info11__do_upcastEPKN10__cxxabiv117__class_type_infoEPPv,"ax",@progbits
	.align	2
	.globl	_ZNKSt19__iosfail_type_info11__do_upcastEPKN10__cxxabiv117__class_type_infoEPPv
$LFB1522 = .
$LM26:
	.cfi_startproc
	.set	nomips16
	.set	nomicromips
	.ent	_ZNKSt19__iosfail_type_info11__do_upcastEPKN10__cxxabiv117__class_type_infoEPPv
	.type	_ZNKSt19__iosfail_type_info11__do_upcastEPKN10__cxxabiv117__class_type_infoEPPv, @function
_ZNKSt19__iosfail_type_info11__do_upcastEPKN10__cxxabiv117__class_type_infoEPPv:
	.frame	$sp,40,$31		# vars= 0, regs= 4/0, args= 16, gp= 8
	.mask	0x80070000,-4
	.fmask	0x00000000,0
	.set	noreorder
	.cpload	$25
	.set	nomacro
$LVL31 = .
$LM27:
$LM28:
	addiu	$sp,$sp,-40
	.cfi_def_cfa_offset 40
$LM29:
	lw	$25,%call16(_ZSt24__is_ios_failure_handlerPKN10__cxxabiv117__class_type_infoE)($28)
$LM30:
	.cprestore	16
	sw	$18,32($sp)
	sw	$17,28($sp)
	sw	$16,24($sp)
	sw	$31,36($sp)
	.cfi_offset 18, -8
	.cfi_offset 17, -12
	.cfi_offset 16, -16
	.cfi_offset 31, -4
	move	$18,$4
$LM31:
	move	$4,$5
$LVL32 = .
$LM32:
	move	$17,$5
$LM33:
	.reloc	1f,R_MIPS_JALR,_ZSt24__is_ios_failure_handlerPKN10__cxxabiv117__class_type_infoE
1:	jalr	$25
$LVL33 = .
	move	$16,$6

$LVL34 = .
$LM34:
	bne	$2,$0,$L17
	lw	$28,16($sp)

$LM35:
$LM36:
	lw	$31,36($sp)
$LM37:
	move	$6,$16
	move	$5,$17
$LM38:
	lw	$16,24($sp)
$LVL35 = .
	lw	$17,28($sp)
$LVL36 = .
$LM39:
	move	$4,$18
	lw	$25,%call16(_ZNK10__cxxabiv117__class_type_info11__do_upcastEPKS0_PPv)($28)
$LM40:
	lw	$18,32($sp)
$LVL37 = .
	.cfi_remember_state
	.cfi_restore 16
	.cfi_restore 17
	.cfi_restore 18
	.cfi_restore 31
$LM41:
	.reloc	1f,R_MIPS_JALR,_ZNK10__cxxabiv117__class_type_info11__do_upcastEPKS0_PPv
1:	jr	$25
$LVL38 = .
	addiu	$sp,$sp,40

	.cfi_def_cfa_offset 0
$LVL39 = .
$L17:
	.cfi_restore_state
$LM42:
$LM43:
	lw	$3,0($16)
$LM44:
	lw	$31,36($sp)
$LM45:
	addiu	$3,$3,16
$LM46:
	lw	$18,32($sp)
$LVL40 = .
	lw	$17,28($sp)
$LVL41 = .
$LM47:
	sw	$3,0($16)
$LM48:
$LM49:
	lw	$16,24($sp)
$LVL42 = .
	jr	$31
	addiu	$sp,$sp,40

	.cfi_def_cfa_offset 0
	.cfi_restore 16
	.cfi_restore 17
	.cfi_restore 18
	.cfi_restore 31
	.set	macro
	.set	reorder
	.end	_ZNKSt19__iosfail_type_info11__do_upcastEPKN10__cxxabiv117__class_type_infoEPPv
	.cfi_endproc
$LFE1522:
	.size	_ZNKSt19__iosfail_type_info11__do_upcastEPKN10__cxxabiv117__class_type_infoEPPv, .-_ZNKSt19__iosfail_type_info11__do_upcastEPKN10__cxxabiv117__class_type_infoEPPv
	.section	.text._ZNSt13__ios_failureD2Ev,"axG",@progbits,_ZNSt13__ios_failureD5Ev,comdat
	.align	2
	.weak	_ZNSt13__ios_failureD2Ev
$LFB1515 = .
$LM50:
	.cfi_startproc
	.cfi_personality 0x80,DW.ref.__gxx_personality_v0
	.cfi_lsda 0,$LLSDA1515
	.set	nomips16
	.set	nomicromips
	.ent	_ZNSt13__ios_failureD2Ev
	.type	_ZNSt13__ios_failureD2Ev, @function
_ZNSt13__ios_failureD2Ev:
	.frame	$sp,32,$31		# vars= 0, regs= 2/0, args= 16, gp= 8
	.mask	0x80010000,-4
	.fmask	0x00000000,0
	.set	noreorder
	.cpload	$25
	.set	nomacro
$LVL43 = .
	addiu	$sp,$sp,-32
	.cfi_def_cfa_offset 32
$LBB383 = .
$LM51:
	lw	$2,%got(_ZTVSt13__ios_failure)($28)
$LM52:
	lw	$25,%call16(_ZSt21__destroy_ios_failurePv)($28)
$LBE383 = .
$LM53:
	.cprestore	16
$LBB384 = .
$LM54:
	addiu	$2,$2,8
$LBE384 = .
$LM55:
	sw	$16,24($sp)
	sw	$31,28($sp)
	.cfi_offset 16, -8
	.cfi_offset 31, -4
$LM56:
	move	$16,$4
$LBB385 = .
$LM57:
	sw	$2,0($4)
$LM58:
$LVL44 = .
$LM59:
	.reloc	1f,R_MIPS_JALR,_ZSt21__destroy_ios_failurePv
1:	jalr	$25
$LVL45 = .
	addiu	$4,$4,16

	lw	$28,16($sp)
$LBE385 = .
$LM60:
	lw	$31,28($sp)
$LBB386 = .
	move	$4,$16
$LM61:
$LBE386 = .
$LM62:
	lw	$16,24($sp)
$LVL46 = .
$LBB387 = .
	lw	$25,%call16(_ZNSt8ios_base7failureB5cxx11D2Ev)($28)
	.cfi_restore 16
	.cfi_restore 31
	.reloc	1f,R_MIPS_JALR,_ZNSt8ios_base7failureB5cxx11D2Ev
1:	jr	$25
$LVL47 = .
	addiu	$sp,$sp,32

	.cfi_def_cfa_offset 0
$LVL48 = .
$LBE387 = .
	.set	macro
	.set	reorder
	.end	_ZNSt13__ios_failureD2Ev
	.cfi_endproc
$LFE1515:
	.globl	__gxx_personality_v0
	.section	.gcc_except_table._ZNSt13__ios_failureD2Ev,"awG",@progbits,_ZNSt13__ios_failureD5Ev,comdat
$LLSDA1515:
	.byte	0xff
	.byte	0xff
	.byte	0x1
	.uleb128 $LLSDACSE1515-$LLSDACSB1515
$LLSDACSB1515:
$LLSDACSE1515:
	.section	.text._ZNSt13__ios_failureD2Ev,"axG",@progbits,_ZNSt13__ios_failureD5Ev,comdat
	.size	_ZNSt13__ios_failureD2Ev, .-_ZNSt13__ios_failureD2Ev
	.weak	_ZNSt13__ios_failureD1Ev
	_ZNSt13__ios_failureD1Ev = _ZNSt13__ios_failureD2Ev
	.section	.text._ZNSt13__ios_failureD0Ev,"axG",@progbits,_ZNSt13__ios_failureD5Ev,comdat
	.align	2
	.weak	_ZNSt13__ios_failureD0Ev
$LFB1517 = .
$LM63:
	.cfi_startproc
	.set	nomips16
	.set	nomicromips
	.ent	_ZNSt13__ios_failureD0Ev
	.type	_ZNSt13__ios_failureD0Ev, @function
_ZNSt13__ios_failureD0Ev:
	.frame	$sp,32,$31		# vars= 0, regs= 2/0, args= 16, gp= 8
	.mask	0x80010000,-4
	.fmask	0x00000000,0
	.set	noreorder
	.cpload	$25
	.set	nomacro
$LVL49 = .
	addiu	$sp,$sp,-32
	.cfi_def_cfa_offset 32
$LM64:
	lw	$25,%call16(_ZNSt13__ios_failureD1Ev)($28)
$LM65:
	sw	$16,24($sp)
	sw	$31,28($sp)
	.cprestore	16
	.cfi_offset 16, -8
	.cfi_offset 31, -4
$LM66:
	.reloc	1f,R_MIPS_JALR,_ZNSt13__ios_failureD1Ev
1:	jalr	$25
$LVL50 = .
	move	$16,$4

$LVL51 = .
	lw	$28,16($sp)
	lw	$31,28($sp)
	move	$4,$16
	lw	$16,24($sp)
$LVL52 = .
	lw	$25,%call16(_ZdlPv)($28)
	.cfi_restore 16
	.cfi_restore 31
	.reloc	1f,R_MIPS_JALR,_ZdlPv
1:	jr	$25
$LVL53 = .
	addiu	$sp,$sp,32

	.cfi_def_cfa_offset 0
$LVL54 = .
	.set	macro
	.set	reorder
	.end	_ZNSt13__ios_failureD0Ev
	.cfi_endproc
$LFE1517:
	.size	_ZNSt13__ios_failureD0Ev, .-_ZNSt13__ios_failureD0Ev
	.section	.rodata._ZNK12_GLOBAL__N_117io_error_category7messageB5cxx11Ei.str1.4,"aMS",@progbits,1
	.align	2
$LC1:
	.ascii	"iostream error\000"
	.align	2
$LC2:
	.ascii	"Unknown error\000"
	.section	.text._ZNK12_GLOBAL__N_117io_error_category7messageB5cxx11Ei,"ax",@progbits
	.align	2
$LFB1479 = .
$LM67:
	.cfi_startproc
	.cfi_personality 0x80,DW.ref.__gxx_personality_v0
	.cfi_lsda 0,$LLSDA1479
	.set	nomips16
	.set	nomicromips
	.ent	_ZNK12_GLOBAL__N_117io_error_category7messageB5cxx11Ei
	.type	_ZNK12_GLOBAL__N_117io_error_category7messageB5cxx11Ei, @function
_ZNK12_GLOBAL__N_117io_error_category7messageB5cxx11Ei:
	.frame	$sp,48,$31		# vars= 0, regs= 3/0, args= 24, gp= 8
	.mask	0x80030000,-4
	.fmask	0x00000000,0
	.set	noreorder
	.cpload	$25
	.set	nomacro
$LVL55 = .
$LM68:
$LM69:
	addiu	$sp,$sp,-48
	.cfi_def_cfa_offset 48
$LBB430 = .
$LBB431 = .
$LBB432 = .
$LM70:
	addiu	$2,$4,8
$LBE432 = .
$LBE431 = .
$LBE430 = .
$LM71:
	.cprestore	24
	sw	$16,36($sp)
	sw	$31,44($sp)
	sw	$17,40($sp)
	.cfi_offset 16, -12
	.cfi_offset 31, -4
	.cfi_offset 17, -8
$LBB440 = .
$LBB433 = .
$LBB434 = .
$LM72:
	sw	$2,0($4)
$LVL56 = .
$LBE434 = .
$LBE433 = .
$LBE440 = .
$LM73:
	li	$2,1			# 0x1
	lw	$25,%call16(_ZNSt7__cxx1112basic_stringIcSt11char_traitsIcESaIcEE10_M_replaceEjjPKcj)($28)
$LM74:
	move	$16,$4
$LBB441 = .
$LBB435 = .
$LBB436 = .
$LBB437 = .
$LM75:
	sw	$0,4($4)
$LVL57 = .
$LBE437 = .
$LBE436 = .
$LBB438 = .
$LBB439 = .
$LM76:
$LBE439 = .
$LBE438 = .
$LBE435 = .
$LBE441 = .
$LM77:
	bne	$6,$2,$L24
	sb	$0,8($4)

$LM78:
$LM79:
$LVL58 = .
$LBB442 = .
$LBB443 = .
$LBB444 = .
$LM80:
	lw	$7,%got($LC1)($28)
	li	$2,14			# 0xe
	sw	$2,16($sp)
	addiu	$7,$7,%lo($LC1)
$LVL59 = .
$L31:
$LBE444 = .
$LBE443 = .
$LBE442 = .
$LBB445 = .
$LBB446 = .
$LBB447 = .
	move	$6,$0
$LVL60 = .
$LEHB0 = .
	.reloc	1f,R_MIPS_JALR,_ZNSt7__cxx1112basic_stringIcSt11char_traitsIcESaIcEE10_M_replaceEjjPKcj
1:	jalr	$25
$LVL61 = .
	move	$5,$0

$LEHE0 = .
$LVL62 = .
$LBE447 = .
$LBE446 = .
$LBE445 = .
$LM81:
	b	$L32
	lw	$31,44($sp)

$LVL63 = .
$L24:
$LM82:
$LM83:
$LBB452 = .
$LBB450 = .
$LBB448 = .
$LM84:
	lw	$7,%got($LC2)($28)
	li	$2,13			# 0xd
	sw	$2,16($sp)
$LBE448 = .
$LBE450 = .
$LBE452 = .
	b	$L31
	addiu	$7,$7,%lo($LC2)

$LVL64 = .
$L32:
$LM85:
	lw	$17,40($sp)
	move	$2,$16
$LBB453 = .
$LBB451 = .
$LBB449 = .
$LM86:
$LBE449 = .
$LBE451 = .
$LBE453 = .
$LM87:
	lw	$16,36($sp)
$LVL65 = .
	jr	$31
	addiu	$sp,$sp,48

	.cfi_remember_state
	.cfi_def_cfa_offset 0
	.cfi_restore 16
	.cfi_restore 17
	.cfi_restore 31
$LVL66 = .
$L27:
	.cfi_restore_state
$LBB454 = .
$LBB455 = .
$LM88:
	lw	$28,24($sp)
	move	$17,$4
$LVL67 = .
	lw	$25,%call16(_ZNSt7__cxx1112basic_stringIcSt11char_traitsIcESaIcEE10_M_disposeEv)($28)
	.reloc	1f,R_MIPS_JALR,_ZNSt7__cxx1112basic_stringIcSt11char_traitsIcESaIcEE10_M_disposeEv
1:	jalr	$25
$LVL68 = .
	move	$4,$16

	lw	$28,24($sp)
$LVL69 = .
	lw	$25,%call16(_Unwind_Resume)($28)
$LEHB1 = .
	.reloc	1f,R_MIPS_JALR,_Unwind_Resume
1:	jalr	$25
$LVL70 = .
	move	$4,$17

$LEHE1 = .
$LBE455 = .
$LBE454 = .
	.set	macro
	.set	reorder
	.end	_ZNK12_GLOBAL__N_117io_error_category7messageB5cxx11Ei
	.cfi_endproc
$LFE1479:
	.section	.gcc_except_table._ZNK12_GLOBAL__N_117io_error_category7messageB5cxx11Ei,"aw",@progbits
$LLSDA1479:
	.byte	0xff
	.byte	0xff
	.byte	0x1
	.uleb128 $LLSDACSE1479-$LLSDACSB1479
$LLSDACSB1479:
	.uleb128 $LEHB0-$LFB1479
	.uleb128 $LEHE0-$LEHB0
	.uleb128 $L27-$LFB1479
	.uleb128 0
	.uleb128 $LEHB1-$LFB1479
	.uleb128 $LEHE1-$LEHB1
	.uleb128 0
	.uleb128 0
$LLSDACSE1479:
	.section	.text._ZNK12_GLOBAL__N_117io_error_category7messageB5cxx11Ei
	.size	_ZNK12_GLOBAL__N_117io_error_category7messageB5cxx11Ei, .-_ZNK12_GLOBAL__N_117io_error_category7messageB5cxx11Ei
	.section	.rodata._ZNSt12system_errorC2ESt10error_codeRKNSt7__cxx1112basic_stringIcSt11char_traitsIcESaIcEEE.str1.4,"aMS",@progbits,1
	.align	2
$LC3:
	.ascii	"basic_string::append\000"
	.align	2
$LC4:
	.ascii	": \000"
	.section	.text._ZNSt12system_errorC2ESt10error_codeRKNSt7__cxx1112basic_stringIcSt11char_traitsIcESaIcEEE,"axG",@progbits,_ZNSt12system_errorC5ESt10error_codeRKNSt7__cxx1112basic_stringIcSt11char_traitsIcESaIcEEE,comdat
	.align	2
	.weak	_ZNSt12system_errorC2ESt10error_codeRKNSt7__cxx1112basic_stringIcSt11char_traitsIcESaIcEEE
$LFB1129 = .
$LM89:
	.cfi_startproc
	.cfi_personality 0x80,DW.ref.__gxx_personality_v0
	.cfi_lsda 0,$LLSDA1129
	.set	nomips16
	.set	nomicromips
	.ent	_ZNSt12system_errorC2ESt10error_codeRKNSt7__cxx1112basic_stringIcSt11char_traitsIcESaIcEEE
	.type	_ZNSt12system_errorC2ESt10error_codeRKNSt7__cxx1112basic_stringIcSt11char_traitsIcESaIcEEE, @function
_ZNSt12system_errorC2ESt10error_codeRKNSt7__cxx1112basic_stringIcSt11char_traitsIcESaIcEEE:
	.frame	$sp,136,$31		# vars= 80, regs= 7/0, args= 16, gp= 8
	.mask	0x803f0000,-4
	.fmask	0x00000000,0
	.set	noreorder
	.cpload	$25
	.set	nomacro
$LVL71 = .
	addiu	$sp,$sp,-136
	.cfi_def_cfa_offset 136
$LBB519 = .
$LBB520 = .
$LBB521 = .
$LM90:
	lw	$25,%call16(_ZNSt7__cxx1112basic_stringIcSt11char_traitsIcESaIcEEC1ERKS4_)($28)
$LBE521 = .
$LBE520 = .
$LBE519 = .
$LM91:
	sw	$20,124($sp)
	.cfi_offset 20, -12
	lw	$20,%got(__stack_chk_guard)($28)
	sw	$17,112($sp)
	.cfi_offset 17, -24
$LBB575 = .
$LBB538 = .
$LBB534 = .
$LM92:
	addiu	$17,$sp,52
$LBE534 = .
$LBE538 = .
$LBE575 = .
$LM93:
	lw	$2,0($20)
	.cprestore	16
	sw	$16,108($sp)
	sw	$5,140($sp)
	sw	$2,100($sp)
	sw	$31,132($sp)
	sw	$21,128($sp)
	sw	$19,120($sp)
	sw	$18,116($sp)
	.cfi_offset 16, -28
	.cfi_offset 31, -4
	.cfi_offset 21, -8
	.cfi_offset 19, -16
	.cfi_offset 18, -20
	move	$16,$4
	sw	$6,144($sp)
	move	$5,$7
$LVL72 = .
$LEHB2 = .
$LBB576 = .
$LBB539 = .
$LBB535 = .
$LM94:
	.reloc	1f,R_MIPS_JALR,_ZNSt7__cxx1112basic_stringIcSt11char_traitsIcESaIcEEC1ERKS4_
1:	jalr	$25
$LVL73 = .
	move	$4,$17

$LEHE2 = .
$LVL74 = .
$LBB522 = .
$LBB523 = .
$LBB524 = .
$LBB525 = .
$LM95:
	lw	$3,56($sp)
	li	$2,1073676288			# 0x3fff0000
	ori	$2,$2,0xffff
	subu	$2,$2,$3
	sltu	$2,$2,2
$LBE525 = .
$LBE524 = .
$LBE523 = .
$LBE522 = .
$LM96:
$LVL75 = .
$LBB531 = .
$LBB528 = .
$LBB527 = .
$LBB526 = .
$LM97:
	beq	$2,$0,$L34
	lw	$28,16($sp)

$LM98:
	lw	$4,%got($LC3)($28)
	lw	$25,%call16(_ZSt20__throw_length_errorPKc)($28)
$LEHB3 = .
	.reloc	1f,R_MIPS_JALR,_ZSt20__throw_length_errorPKc
1:	jalr	$25
$LVL76 = .
	addiu	$4,$4,%lo($LC3)

$LVL77 = .
$L46:
$L51:
$LBE526 = .
$LBE527 = .
$LBE528 = .
$LBE531 = .
$LBE535 = .
$LBE539 = .
$LBB540 = .
$LBB541 = .
$LM99:
	lw	$28,16($sp)
$LVL78 = .
$LBE541 = .
$LBE540 = .
$LBE576 = .
	b	$L41
	move	$16,$4

$LVL79 = .
$L34:
$LBB577 = .
$LBB543 = .
$LBB536 = .
$LBB532 = .
$LBB529 = .
$LM100:
	lw	$5,%got($LC4)($28)
	lw	$25,%call16(_ZNSt7__cxx1112basic_stringIcSt11char_traitsIcESaIcEE9_M_appendEPKcj)($28)
	li	$6,2			# 0x2
	addiu	$5,$5,%lo($LC4)
	.reloc	1f,R_MIPS_JALR,_ZNSt7__cxx1112basic_stringIcSt11char_traitsIcESaIcEE9_M_appendEPKcj
1:	jalr	$25
$LVL80 = .
	move	$4,$17

$LEHE3 = .
$LBE529 = .
$LBE532 = .
$LBE536 = .
$LBE543 = .
$LBB544 = .
$LBB545 = .
$LBB546 = .
$LBB547 = .
$LM101:
	lw	$5,144($sp)
$LBE547 = .
$LBE546 = .
$LM102:
	addiu	$18,$sp,76
	lw	$6,140($sp)
$LM103:
	lw	$2,0($5)
$LBE545 = .
$LBE544 = .
$LBB553 = .
$LBB537 = .
$LBB533 = .
$LBB530 = .
$LM104:
$LVL81 = .
$LBE530 = .
$LBE533 = .
$LBE537 = .
$LBE553 = .
$LBB554 = .
$LBB552 = .
$LM105:
$LBB549 = .
$LBB548 = .
$LM106:
$LBE548 = .
$LBE549 = .
$LBB550 = .
$LBB551 = .
$LM107:
$LBE551 = .
$LBE550 = .
$LM108:
	lw	$25,16($2)
$LEHB4 = .
	jalr	$25
$LVL82 = .
	move	$4,$18

$LEHE4 = .
	lw	$28,16($sp)
$LVL83 = .
$LBE552 = .
$LBE554 = .
$LBB555 = .
$LBB556 = .
$LBB557 = .
$LM109:
	lw	$19,56($sp)
	lw	$2,80($sp)
$LM110:
	lw	$25,%call16(_ZNKSt7__cxx1112basic_stringIcSt11char_traitsIcESaIcEE8capacityEv)($28)
	move	$4,$17
$LVL84 = .
	.reloc	1f,R_MIPS_JALR,_ZNKSt7__cxx1112basic_stringIcSt11char_traitsIcESaIcEE8capacityEv
1:	jalr	$25
$LVL85 = .
	addu	$19,$19,$2

$LM111:
	sltu	$2,$2,$19
$LM112:
	lw	$28,16($sp)
$LM113:
	beq	$2,$0,$L37
	addiu	$21,$sp,28

$LM114:
	lw	$25,%call16(_ZNKSt7__cxx1112basic_stringIcSt11char_traitsIcESaIcEE8capacityEv)($28)
	.reloc	1f,R_MIPS_JALR,_ZNKSt7__cxx1112basic_stringIcSt11char_traitsIcESaIcEE8capacityEv
1:	jalr	$25
$LVL86 = .
	move	$4,$18

$LM115:
	sltu	$19,$2,$19
$LVL87 = .
$LM116:
$LM117:
	bne	$19,$0,$L37
	lw	$28,16($sp)

$LM118:
	lw	$25,%call16(_ZNSt7__cxx1112basic_stringIcSt11char_traitsIcESaIcEE6insertEjRKS4_)($28)
	move	$6,$17
	move	$5,$0
$LEHB5 = .
	.reloc	1f,R_MIPS_JALR,_ZNSt7__cxx1112basic_stringIcSt11char_traitsIcESaIcEE6insertEjRKS4_
1:	jalr	$25
$LVL88 = .
	move	$4,$18

$LBE557 = .
$LBE556 = .
$LBE555 = .
$LBE577 = .
	b	$L50
	lw	$28,16($sp)

$L37:
$LBB578 = .
$LBB559 = .
$LBB558 = .
$LM119:
	lw	$25,%call16(_ZNSt7__cxx1112basic_stringIcSt11char_traitsIcESaIcEE6appendERKS4_)($28)
	move	$5,$18
	.reloc	1f,R_MIPS_JALR,_ZNSt7__cxx1112basic_stringIcSt11char_traitsIcESaIcEE6appendERKS4_
1:	jalr	$25
$LVL89 = .
	move	$4,$17

$LEHE5 = .
	lw	$28,16($sp)
$L50:
$LM120:
	lw	$25,%call16(_ZNSt7__cxx1112basic_stringIcSt11char_traitsIcESaIcEEC1EOS4_)($28)
	move	$5,$2
	.reloc	1f,R_MIPS_JALR,_ZNSt7__cxx1112basic_stringIcSt11char_traitsIcESaIcEEC1EOS4_
1:	jalr	$25
$LVL90 = .
	move	$4,$21

	lw	$28,16($sp)
$LVL91 = .
$LBE558 = .
$LBE559 = .
$LM121:
	move	$5,$21
	lw	$25,%call16(_ZNSt13runtime_errorC2ERKNSt7__cxx1112basic_stringIcSt11char_traitsIcESaIcEEE)($28)
$LEHB6 = .
	.reloc	1f,R_MIPS_JALR,_ZNSt13runtime_errorC2ERKNSt7__cxx1112basic_stringIcSt11char_traitsIcESaIcEEE
1:	jalr	$25
$LVL92 = .
	move	$4,$16

$LEHE6 = .
	lw	$28,16($sp)
$LVL93 = .
$LBB560 = .
$LBB561 = .
$LM122:
	lw	$25,%call16(_ZNSt7__cxx1112basic_stringIcSt11char_traitsIcESaIcEE10_M_disposeEv)($28)
	.reloc	1f,R_MIPS_JALR,_ZNSt7__cxx1112basic_stringIcSt11char_traitsIcESaIcEE10_M_disposeEv
1:	jalr	$25
$LVL94 = .
	move	$4,$21

	lw	$28,16($sp)
$LVL95 = .
$LBE561 = .
$LBE560 = .
$LBB562 = .
$LBB563 = .
	lw	$25,%call16(_ZNSt7__cxx1112basic_stringIcSt11char_traitsIcESaIcEE10_M_disposeEv)($28)
	.reloc	1f,R_MIPS_JALR,_ZNSt7__cxx1112basic_stringIcSt11char_traitsIcESaIcEE10_M_disposeEv
1:	jalr	$25
$LVL96 = .
	move	$4,$18

	lw	$28,16($sp)
$LVL97 = .
$LBE563 = .
$LBE562 = .
$LBB564 = .
$LBB565 = .
	lw	$25,%call16(_ZNSt7__cxx1112basic_stringIcSt11char_traitsIcESaIcEE10_M_disposeEv)($28)
	.reloc	1f,R_MIPS_JALR,_ZNSt7__cxx1112basic_stringIcSt11char_traitsIcESaIcEE10_M_disposeEv
1:	jalr	$25
$LVL98 = .
	move	$4,$17

	lw	$28,16($sp)
$LBE565 = .
$LBE564 = .
$LBE578 = .
$LM123:
	lw	$3,100($sp)
$LBB579 = .
$LBB567 = .
$LBB566 = .
$LM124:
$LVL99 = .
$LBE566 = .
$LBE567 = .
$LM125:
	lw	$2,%got(_ZTVSt12system_error)($28)
	addiu	$2,$2,8
	sw	$2,0($16)
$LM126:
	lw	$2,140($sp)
	sw	$2,8($16)
	lw	$2,144($sp)
	sw	$2,12($16)
$LBE579 = .
$LM127:
	lw	$2,0($20)
	beq	$3,$2,$L42
	lw	$31,132($sp)

	lw	$25,%call16(__stack_chk_fail)($28)
	.reloc	1f,R_MIPS_JALR,__stack_chk_fail
1:	jalr	$25
	nop

$LVL100 = .
$L45:
$LBB580 = .
$LBB568 = .
$LBB569 = .
$LM128:
	lw	$28,16($sp)
	move	$16,$4
$LVL101 = .
	lw	$25,%call16(_ZNSt7__cxx1112basic_stringIcSt11char_traitsIcESaIcEE10_M_disposeEv)($28)
	.reloc	1f,R_MIPS_JALR,_ZNSt7__cxx1112basic_stringIcSt11char_traitsIcESaIcEE10_M_disposeEv
1:	jalr	$25
$LVL102 = .
	move	$4,$21

	lw	$28,16($sp)
$LVL103 = .
$L40:
$LBE569 = .
$LBE568 = .
$LBB570 = .
$LBB571 = .
$LM129:
	lw	$25,%call16(_ZNSt7__cxx1112basic_stringIcSt11char_traitsIcESaIcEE10_M_disposeEv)($28)
	.reloc	1f,R_MIPS_JALR,_ZNSt7__cxx1112basic_stringIcSt11char_traitsIcESaIcEE10_M_disposeEv
1:	jalr	$25
$LVL104 = .
	move	$4,$18

	lw	$28,16($sp)
$LVL105 = .
$L41:
$LBE571 = .
$LBE570 = .
$LBB573 = .
$LBB542 = .
$LM130:
	lw	$25,%call16(_ZNSt7__cxx1112basic_stringIcSt11char_traitsIcESaIcEE10_M_disposeEv)($28)
	.reloc	1f,R_MIPS_JALR,_ZNSt7__cxx1112basic_stringIcSt11char_traitsIcESaIcEE10_M_disposeEv
1:	jalr	$25
$LVL106 = .
	move	$4,$17

	lw	$28,16($sp)
$LVL107 = .
	lw	$25,%call16(_Unwind_Resume)($28)
$LEHB7 = .
	.reloc	1f,R_MIPS_JALR,_Unwind_Resume
1:	jalr	$25
$LVL108 = .
	move	$4,$16

$LEHE7 = .
$LVL109 = .
$L44:
$LBE542 = .
$LBE573 = .
$LBB574 = .
$LBB572 = .
$LM131:
	lw	$28,16($sp)
$LVL110 = .
$LBE572 = .
$LBE574 = .
$LBE580 = .
	b	$L40
	move	$16,$4

$LVL111 = .
$L43:
	b	$L51
	nop

$LVL112 = .
$L42:
$LM132:
	lw	$21,128($sp)
	lw	$20,124($sp)
	lw	$19,120($sp)
	lw	$18,116($sp)
	lw	$17,112($sp)
	lw	$16,108($sp)
$LVL113 = .
	jr	$31
	addiu	$sp,$sp,136

	.cfi_def_cfa_offset 0
	.cfi_restore 16
	.cfi_restore 17
	.cfi_restore 18
	.cfi_restore 19
	.cfi_restore 20
	.cfi_restore 21
	.cfi_restore 31
	.set	macro
	.set	reorder
	.end	_ZNSt12system_errorC2ESt10error_codeRKNSt7__cxx1112basic_stringIcSt11char_traitsIcESaIcEEE
	.cfi_endproc
$LFE1129:
	.section	.gcc_except_table._ZNSt12system_errorC2ESt10error_codeRKNSt7__cxx1112basic_stringIcSt11char_traitsIcESaIcEEE,"awG",@progbits,_ZNSt12system_errorC5ESt10error_codeRKNSt7__cxx1112basic_stringIcSt11char_traitsIcESaIcEEE,comdat
$LLSDA1129:
	.byte	0xff
	.byte	0xff
	.byte	0x1
	.uleb128 $LLSDACSE1129-$LLSDACSB1129
$LLSDACSB1129:
	.uleb128 $LEHB2-$LFB1129
	.uleb128 $LEHE2-$LEHB2
	.uleb128 0
	.uleb128 0
	.uleb128 $LEHB3-$LFB1129
	.uleb128 $LEHE3-$LEHB3
	.uleb128 $L46-$LFB1129
	.uleb128 0
	.uleb128 $LEHB4-$LFB1129
	.uleb128 $LEHE4-$LEHB4
	.uleb128 $L43-$LFB1129
	.uleb128 0
	.uleb128 $LEHB5-$LFB1129
	.uleb128 $LEHE5-$LEHB5
	.uleb128 $L44-$LFB1129
	.uleb128 0
	.uleb128 $LEHB6-$LFB1129
	.uleb128 $LEHE6-$LEHB6
	.uleb128 $L45-$LFB1129
	.uleb128 0
	.uleb128 $LEHB7-$LFB1129
	.uleb128 $LEHE7-$LEHB7
	.uleb128 0
	.uleb128 0
$LLSDACSE1129:
	.section	.text._ZNSt12system_errorC2ESt10error_codeRKNSt7__cxx1112basic_stringIcSt11char_traitsIcESaIcEEE,"axG",@progbits,_ZNSt12system_errorC5ESt10error_codeRKNSt7__cxx1112basic_stringIcSt11char_traitsIcESaIcEEE,comdat
	.size	_ZNSt12system_errorC2ESt10error_codeRKNSt7__cxx1112basic_stringIcSt11char_traitsIcESaIcEEE, .-_ZNSt12system_errorC2ESt10error_codeRKNSt7__cxx1112basic_stringIcSt11char_traitsIcESaIcEEE
	.weak	_ZNSt12system_errorC1ESt10error_codeRKNSt7__cxx1112basic_stringIcSt11char_traitsIcESaIcEEE
	_ZNSt12system_errorC1ESt10error_codeRKNSt7__cxx1112basic_stringIcSt11char_traitsIcESaIcEEE = _ZNSt12system_errorC2ESt10error_codeRKNSt7__cxx1112basic_stringIcSt11char_traitsIcESaIcEEE
	.section	.text._ZSt17iostream_categoryv,"ax",@progbits
	.align	2
	.globl	_ZSt17iostream_categoryv
$LFB1493 = .
$LM133:
	.cfi_startproc
	.set	nomips16
	.set	nomicromips
	.ent	_ZSt17iostream_categoryv
	.type	_ZSt17iostream_categoryv, @function
_ZSt17iostream_categoryv:
	.frame	$sp,0,$31		# vars= 0, regs= 0/0, args= 0, gp= 0
	.mask	0x00000000,0
	.fmask	0x00000000,0
	.set	noreorder
	.cpload	$25
	.set	nomacro
$LM134:
$LM135:
	lw	$2,%got(_ZN12_GLOBAL__N_120io_category_instanceE)($28)
	jr	$31
	addiu	$2,$2,%lo(_ZN12_GLOBAL__N_120io_category_instanceE)

	.set	macro
	.set	reorder
	.end	_ZSt17iostream_categoryv
	.cfi_endproc
$LFE1493:
	.size	_ZSt17iostream_categoryv, .-_ZSt17iostream_categoryv
	.section	.text._ZNSt8ios_base7failureB5cxx11C2ERKNSt7__cxx1112basic_stringIcSt11char_traitsIcESaIcEEE,"ax",@progbits
	.align	2
	.globl	_ZNSt8ios_base7failureB5cxx11C2ERKNSt7__cxx1112basic_stringIcSt11char_traitsIcESaIcEEE
$LFB1495 = .
$LM136:
	.cfi_startproc
	.set	nomips16
	.set	nomicromips
	.ent	_ZNSt8ios_base7failureB5cxx11C2ERKNSt7__cxx1112basic_stringIcSt11char_traitsIcESaIcEEE
	.type	_ZNSt8ios_base7failureB5cxx11C2ERKNSt7__cxx1112basic_stringIcSt11char_traitsIcESaIcEEE, @function
_ZNSt8ios_base7failureB5cxx11C2ERKNSt7__cxx1112basic_stringIcSt11char_traitsIcESaIcEEE:
	.frame	$sp,48,$31		# vars= 8, regs= 3/0, args= 16, gp= 8
	.mask	0x80030000,-4
	.fmask	0x00000000,0
	.set	noreorder
	.cpload	$25
	.set	nomacro
$LVL114 = .
	addiu	$sp,$sp,-48
	.cfi_def_cfa_offset 48
$LVL115 = .
$LBB581 = .
$LBB582 = .
$LBB583 = .
$LBB584 = .
$LBB585 = .
$LBB586 = .
$LM137:
$LM138:
	lw	$25,%call16(_ZSt17iostream_categoryv)($28)
$LBE586 = .
$LBE585 = .
$LBE584 = .
$LBE583 = .
$LBE582 = .
$LBE581 = .
$LM139:
	sw	$31,44($sp)
	sw	$17,40($sp)
	sw	$16,36($sp)
	.cprestore	16
	.cfi_offset 31, -4
	.cfi_offset 17, -8
	.cfi_offset 16, -12
$LM140:
	move	$16,$4
$LBB592 = .
$LBB591 = .
$LBB590 = .
$LBB589 = .
$LBB588 = .
$LBB587 = .
$LM141:
	.reloc	1f,R_MIPS_JALR,_ZSt17iostream_categoryv
1:	jalr	$25
$LVL116 = .
	move	$17,$5

$LVL117 = .
	lw	$28,16($sp)
$LBE587 = .
$LBE588 = .
$LBE589 = .
$LBE590 = .
$LBE591 = .
$LM142:
	move	$7,$17
	move	$6,$2
	lw	$25,%call16(_ZNSt12system_errorC2ESt10error_codeRKNSt7__cxx1112basic_stringIcSt11char_traitsIcESaIcEEE)($28)
	move	$4,$16
	.reloc	1f,R_MIPS_JALR,_ZNSt12system_errorC2ESt10error_codeRKNSt7__cxx1112basic_stringIcSt11char_traitsIcESaIcEEE
1:	jalr	$25
$LVL118 = .
	li	$5,1			# 0x1

	lw	$28,16($sp)
$LBE592 = .
$LM143:
	lw	$31,44($sp)
	lw	$17,40($sp)
$LVL119 = .
$LBB593 = .
$LM144:
	lw	$2,%got(_ZTVNSt8ios_base7failureB5cxx11E)($28)
	addiu	$2,$2,8
	sw	$2,0($16)
$LBE593 = .
$LM145:
	lw	$16,36($sp)
$LVL120 = .
	jr	$31
	addiu	$sp,$sp,48

	.cfi_def_cfa_offset 0
	.cfi_restore 16
	.cfi_restore 17
	.cfi_restore 31
	.set	macro
	.set	reorder
	.end	_ZNSt8ios_base7failureB5cxx11C2ERKNSt7__cxx1112basic_stringIcSt11char_traitsIcESaIcEEE
	.cfi_endproc
$LFE1495:
	.size	_ZNSt8ios_base7failureB5cxx11C2ERKNSt7__cxx1112basic_stringIcSt11char_traitsIcESaIcEEE, .-_ZNSt8ios_base7failureB5cxx11C2ERKNSt7__cxx1112basic_stringIcSt11char_traitsIcESaIcEEE
	.globl	_ZNSt8ios_base7failureB5cxx11C1ERKNSt7__cxx1112basic_stringIcSt11char_traitsIcESaIcEEE
	_ZNSt8ios_base7failureB5cxx11C1ERKNSt7__cxx1112basic_stringIcSt11char_traitsIcESaIcEEE = _ZNSt8ios_base7failureB5cxx11C2ERKNSt7__cxx1112basic_stringIcSt11char_traitsIcESaIcEEE
	.section	.text._ZNSt8ios_base7failureB5cxx11C2ERKNSt7__cxx1112basic_stringIcSt11char_traitsIcESaIcEEERKSt10error_code,"ax",@progbits
	.align	2
	.globl	_ZNSt8ios_base7failureB5cxx11C2ERKNSt7__cxx1112basic_stringIcSt11char_traitsIcESaIcEEERKSt10error_code
$LFB1498 = .
$LM146:
	.cfi_startproc
	.set	nomips16
	.set	nomicromips
	.ent	_ZNSt8ios_base7failureB5cxx11C2ERKNSt7__cxx1112basic_stringIcSt11char_traitsIcESaIcEEERKSt10error_code
	.type	_ZNSt8ios_base7failureB5cxx11C2ERKNSt7__cxx1112basic_stringIcSt11char_traitsIcESaIcEEERKSt10error_code, @function
_ZNSt8ios_base7failureB5cxx11C2ERKNSt7__cxx1112basic_stringIcSt11char_traitsIcESaIcEEERKSt10error_code:
	.frame	$sp,32,$31		# vars= 0, regs= 2/0, args= 16, gp= 8
	.mask	0x80010000,-4
	.fmask	0x00000000,0
	.set	noreorder
	.cpload	$25
	.set	nomacro
$LVL121 = .
	addiu	$sp,$sp,-32
	.cfi_def_cfa_offset 32
$LBB594 = .
$LM147:
	lw	$25,%call16(_ZNSt12system_errorC2ESt10error_codeRKNSt7__cxx1112basic_stringIcSt11char_traitsIcESaIcEEE)($28)
	move	$7,$5
	lw	$5,0($6)
$LVL122 = .
	lw	$6,4($6)
$LVL123 = .
$LBE594 = .
$LM148:
	sw	$16,24($sp)
	sw	$31,28($sp)
	.cprestore	16
	.cfi_offset 16, -8
	.cfi_offset 31, -4
$LBB595 = .
$LM149:
	.reloc	1f,R_MIPS_JALR,_ZNSt12system_errorC2ESt10error_codeRKNSt7__cxx1112basic_stringIcSt11char_traitsIcESaIcEEE
1:	jalr	$25
$LVL124 = .
	move	$16,$4

$LVL125 = .
	lw	$28,16($sp)
$LBE595 = .
$LM150:
	lw	$31,28($sp)
$LBB596 = .
$LM151:
	lw	$2,%got(_ZTVNSt8ios_base7failureB5cxx11E)($28)
	addiu	$2,$2,8
	sw	$2,0($16)
$LBE596 = .
$LM152:
	lw	$16,24($sp)
$LVL126 = .
	jr	$31
	addiu	$sp,$sp,32

	.cfi_def_cfa_offset 0
	.cfi_restore 16
	.cfi_restore 31
	.set	macro
	.set	reorder
	.end	_ZNSt8ios_base7failureB5cxx11C2ERKNSt7__cxx1112basic_stringIcSt11char_traitsIcESaIcEEERKSt10error_code
	.cfi_endproc
$LFE1498:
	.size	_ZNSt8ios_base7failureB5cxx11C2ERKNSt7__cxx1112basic_stringIcSt11char_traitsIcESaIcEEERKSt10error_code, .-_ZNSt8ios_base7failureB5cxx11C2ERKNSt7__cxx1112basic_stringIcSt11char_traitsIcESaIcEEERKSt10error_code
	.globl	_ZNSt8ios_base7failureB5cxx11C1ERKNSt7__cxx1112basic_stringIcSt11char_traitsIcESaIcEEERKSt10error_code
	_ZNSt8ios_base7failureB5cxx11C1ERKNSt7__cxx1112basic_stringIcSt11char_traitsIcESaIcEEERKSt10error_code = _ZNSt8ios_base7failureB5cxx11C2ERKNSt7__cxx1112basic_stringIcSt11char_traitsIcESaIcEEERKSt10error_code
	.section	.text._ZNSt8ios_base7failureB5cxx11C2EPKcRKSt10error_code,"ax",@progbits
	.align	2
	.globl	_ZNSt8ios_base7failureB5cxx11C2EPKcRKSt10error_code
$LFB1501 = .
$LM153:
	.cfi_startproc
	.cfi_personality 0x80,DW.ref.__gxx_personality_v0
	.cfi_lsda 0,$LLSDA1501
	.set	nomips16
	.set	nomicromips
	.ent	_ZNSt8ios_base7failureB5cxx11C2EPKcRKSt10error_code
	.type	_ZNSt8ios_base7failureB5cxx11C2EPKcRKSt10error_code, @function
_ZNSt8ios_base7failureB5cxx11C2EPKcRKSt10error_code:
	.frame	$sp,136,$31		# vars= 80, regs= 8/0, args= 16, gp= 8
	.mask	0x807f0000,-4
	.fmask	0x00000000,0
	.set	noreorder
	.cpload	$25
	.set	nomacro
$LVL127 = .
	addiu	$sp,$sp,-136
	.cfi_def_cfa_offset 136
	sw	$21,124($sp)
	.cfi_offset 21, -12
	lw	$21,%got(__stack_chk_guard)($28)
	sw	$20,120($sp)
	.cfi_offset 20, -16
	lw	$20,4($6)
	lw	$2,0($21)
	sw	$22,128($sp)
	sw	$2,100($sp)
$LBB641 = .
$LBB642 = .
$LBB643 = .
$LBB644 = .
$LBB645 = .
$LM154:
	lw	$2,0($20)
	.cfi_offset 22, -8
	lw	$22,0($6)
$LBE645 = .
$LBE644 = .
$LBE643 = .
$LBE642 = .
$LBE641 = .
$LM155:
	sw	$17,108($sp)
$LBB696 = .
$LBB687 = .
$LBB678 = .
$LBB652 = .
$LBB648 = .
$LM156:
	lw	$25,16($2)
	.cfi_offset 17, -28
	addiu	$17,$sp,28
$LBE648 = .
$LBE652 = .
$LBE678 = .
$LBE687 = .
$LBE696 = .
$LM157:
	.cprestore	16
	sw	$19,116($sp)
	sw	$16,104($sp)
$LBB697 = .
$LBB688 = .
$LBB679 = .
$LBB653 = .
$LBB649 = .
$LM158:
	move	$6,$22
$LVL128 = .
$LBE649 = .
$LBE653 = .
$LBE679 = .
$LBE688 = .
$LBE697 = .
$LM159:
	sw	$31,132($sp)
	sw	$18,112($sp)
	.cfi_offset 19, -20
	.cfi_offset 16, -32
	.cfi_offset 31, -4
	.cfi_offset 18, -24
	move	$16,$4
$LVL129 = .
	move	$19,$5
$LVL130 = .
$LBB698 = .
$LBB689 = .
$LBB680 = .
$LBB654 = .
$LBB650 = .
$LM160:
$LBB646 = .
$LM161:
$LBE646 = .
$LBB647 = .
$LM162:
$LBE647 = .
$LM163:
	move	$4,$17
$LVL131 = .
$LBE650 = .
$LBE654 = .
$LBE680 = .
$LBE689 = .
$LBE698 = .
$LM164:
$LEHB8 = .
$LBB699 = .
$LBB690 = .
$LBB681 = .
$LBB655 = .
$LBB651 = .
$LM165:
	jalr	$25
$LVL132 = .
	move	$5,$20

$LEHE8 = .
$LVL133 = .
	lw	$28,16($sp)
$LVL134 = .
$LBE651 = .
$LBE655 = .
$LBB656 = .
$LBB657 = .
$LM166:
	move	$5,$0
	move	$4,$17
	lw	$6,%got($LC4)($28)
	lw	$25,%call16(_ZNSt7__cxx1112basic_stringIcSt11char_traitsIcESaIcEE6insertEjPKc)($28)
$LEHB9 = .
	.reloc	1f,R_MIPS_JALR,_ZNSt7__cxx1112basic_stringIcSt11char_traitsIcESaIcEE6insertEjPKc
1:	jalr	$25
$LVL135 = .
	addiu	$6,$6,%lo($LC4)

$LEHE9 = .
	lw	$28,16($sp)
$LM167:
	addiu	$18,$sp,52
	move	$5,$2
	lw	$25,%call16(_ZNSt7__cxx1112basic_stringIcSt11char_traitsIcESaIcEEC1EOS4_)($28)
	.reloc	1f,R_MIPS_JALR,_ZNSt7__cxx1112basic_stringIcSt11char_traitsIcESaIcEEC1EOS4_
1:	jalr	$25
$LVL136 = .
	move	$4,$18

	lw	$28,16($sp)
$LVL137 = .
$LBE657 = .
$LBE656 = .
$LBB658 = .
$LBB659 = .
$LM168:
	move	$6,$19
	move	$5,$0
	lw	$25,%call16(_ZNSt7__cxx1112basic_stringIcSt11char_traitsIcESaIcEE6insertEjPKc)($28)
$LEHB10 = .
	.reloc	1f,R_MIPS_JALR,_ZNSt7__cxx1112basic_stringIcSt11char_traitsIcESaIcEE6insertEjPKc
1:	jalr	$25
$LVL138 = .
	move	$4,$18

$LEHE10 = .
	lw	$28,16($sp)
$LM169:
	addiu	$19,$sp,76
$LVL139 = .
	move	$5,$2
	lw	$25,%call16(_ZNSt7__cxx1112basic_stringIcSt11char_traitsIcESaIcEEC1EOS4_)($28)
	.reloc	1f,R_MIPS_JALR,_ZNSt7__cxx1112basic_stringIcSt11char_traitsIcESaIcEEC1EOS4_
1:	jalr	$25
$LVL140 = .
	move	$4,$19

	lw	$28,16($sp)
$LVL141 = .
$LBE659 = .
$LBE658 = .
$LM170:
	move	$5,$19
	lw	$25,%call16(_ZNSt13runtime_errorC2ERKNSt7__cxx1112basic_stringIcSt11char_traitsIcESaIcEEE)($28)
$LEHB11 = .
	.reloc	1f,R_MIPS_JALR,_ZNSt13runtime_errorC2ERKNSt7__cxx1112basic_stringIcSt11char_traitsIcESaIcEEE
1:	jalr	$25
$LVL142 = .
	move	$4,$16

$LEHE11 = .
	lw	$28,16($sp)
$LVL143 = .
$LBB660 = .
$LBB661 = .
$LM171:
	lw	$25,%call16(_ZNSt7__cxx1112basic_stringIcSt11char_traitsIcESaIcEE10_M_disposeEv)($28)
	.reloc	1f,R_MIPS_JALR,_ZNSt7__cxx1112basic_stringIcSt11char_traitsIcESaIcEE10_M_disposeEv
1:	jalr	$25
$LVL144 = .
	move	$4,$19

	lw	$28,16($sp)
$LVL145 = .
$LBE661 = .
$LBE660 = .
$LBB662 = .
$LBB663 = .
	lw	$25,%call16(_ZNSt7__cxx1112basic_stringIcSt11char_traitsIcESaIcEE10_M_disposeEv)($28)
	.reloc	1f,R_MIPS_JALR,_ZNSt7__cxx1112basic_stringIcSt11char_traitsIcESaIcEE10_M_disposeEv
1:	jalr	$25
$LVL146 = .
	move	$4,$18

	lw	$28,16($sp)
$LVL147 = .
$LBE663 = .
$LBE662 = .
$LBB664 = .
$LBB665 = .
	lw	$25,%call16(_ZNSt7__cxx1112basic_stringIcSt11char_traitsIcESaIcEE10_M_disposeEv)($28)
	.reloc	1f,R_MIPS_JALR,_ZNSt7__cxx1112basic_stringIcSt11char_traitsIcESaIcEE10_M_disposeEv
1:	jalr	$25
$LVL148 = .
	move	$4,$17

	lw	$28,16($sp)
$LBE665 = .
$LBE664 = .
$LBE681 = .
$LBE690 = .
$LBE699 = .
$LM172:
	lw	$3,100($sp)
$LBB700 = .
$LBB691 = .
$LBB682 = .
$LM173:
	sw	$22,8($16)
$LBE682 = .
$LBE691 = .
$LM174:
	lw	$2,%got(_ZTVNSt8ios_base7failureB5cxx11E)($28)
$LBB692 = .
$LBB683 = .
$LM175:
	sw	$20,12($16)
$LBE683 = .
$LBE692 = .
$LM176:
	addiu	$2,$2,8
	sw	$2,0($16)
$LBE700 = .
$LM177:
	lw	$2,0($21)
$LBB701 = .
$LBB693 = .
$LBB684 = .
$LBB667 = .
$LBB666 = .
$LM178:
$LVL149 = .
$LBE666 = .
$LBE667 = .
$LBE684 = .
$LBE693 = .
$LBE701 = .
$LM179:
	beq	$3,$2,$L61
	lw	$31,132($sp)

	lw	$25,%call16(__stack_chk_fail)($28)
	.reloc	1f,R_MIPS_JALR,__stack_chk_fail
1:	jalr	$25
	nop

$LVL150 = .
$L64:
$LBB702 = .
$LBB694 = .
$LBB685 = .
$LBB668 = .
$LBB669 = .
$LM180:
	lw	$28,16($sp)
	move	$16,$4
$LVL151 = .
	lw	$25,%call16(_ZNSt7__cxx1112basic_stringIcSt11char_traitsIcESaIcEE10_M_disposeEv)($28)
	.reloc	1f,R_MIPS_JALR,_ZNSt7__cxx1112basic_stringIcSt11char_traitsIcESaIcEE10_M_disposeEv
1:	jalr	$25
$LVL152 = .
	move	$4,$19

	lw	$28,16($sp)
$LVL153 = .
$L59:
$LBE669 = .
$LBE668 = .
$LBB670 = .
$LBB671 = .
	lw	$25,%call16(_ZNSt7__cxx1112basic_stringIcSt11char_traitsIcESaIcEE10_M_disposeEv)($28)
	.reloc	1f,R_MIPS_JALR,_ZNSt7__cxx1112basic_stringIcSt11char_traitsIcESaIcEE10_M_disposeEv
1:	jalr	$25
$LVL154 = .
	move	$4,$18

	lw	$28,16($sp)
$LVL155 = .
$L60:
$LBE671 = .
$LBE670 = .
$LBB673 = .
$LBB674 = .
	lw	$25,%call16(_ZNSt7__cxx1112basic_stringIcSt11char_traitsIcESaIcEE10_M_disposeEv)($28)
	.reloc	1f,R_MIPS_JALR,_ZNSt7__cxx1112basic_stringIcSt11char_traitsIcESaIcEE10_M_disposeEv
1:	jalr	$25
$LVL156 = .
	move	$4,$17

	lw	$28,16($sp)
$LVL157 = .
	lw	$25,%call16(_Unwind_Resume)($28)
$LEHB12 = .
	.reloc	1f,R_MIPS_JALR,_Unwind_Resume
1:	jalr	$25
$LVL158 = .
	move	$4,$16

$LEHE12 = .
$LVL159 = .
$L63:
$LBE674 = .
$LBE673 = .
$LBB676 = .
$LBB672 = .
	lw	$28,16($sp)
$LVL160 = .
$LBE672 = .
$LBE676 = .
$LBE685 = .
$LBE694 = .
$LBE702 = .
	b	$L59
	move	$16,$4

$LVL161 = .
$L62:
$LBB703 = .
$LBB695 = .
$LBB686 = .
$LBB677 = .
$LBB675 = .
	lw	$28,16($sp)
$LVL162 = .
$LBE675 = .
$LBE677 = .
$LBE686 = .
$LBE695 = .
$LBE703 = .
	b	$L60
	move	$16,$4

$LVL163 = .
$L61:
$LM181:
	lw	$22,128($sp)
	lw	$21,124($sp)
	lw	$20,120($sp)
	lw	$19,116($sp)
	lw	$18,112($sp)
	lw	$17,108($sp)
	lw	$16,104($sp)
$LVL164 = .
	jr	$31
	addiu	$sp,$sp,136

	.cfi_def_cfa_offset 0
	.cfi_restore 16
	.cfi_restore 17
	.cfi_restore 18
	.cfi_restore 19
	.cfi_restore 20
	.cfi_restore 21
	.cfi_restore 22
	.cfi_restore 31
	.set	macro
	.set	reorder
	.end	_ZNSt8ios_base7failureB5cxx11C2EPKcRKSt10error_code
	.cfi_endproc
$LFE1501:
	.section	.gcc_except_table._ZNSt8ios_base7failureB5cxx11C2EPKcRKSt10error_code,"aw",@progbits
$LLSDA1501:
	.byte	0xff
	.byte	0xff
	.byte	0x1
	.uleb128 $LLSDACSE1501-$LLSDACSB1501
$LLSDACSB1501:
	.uleb128 $LEHB8-$LFB1501
	.uleb128 $LEHE8-$LEHB8
	.uleb128 0
	.uleb128 0
	.uleb128 $LEHB9-$LFB1501
	.uleb128 $LEHE9-$LEHB9
	.uleb128 $L62-$LFB1501
	.uleb128 0
	.uleb128 $LEHB10-$LFB1501
	.uleb128 $LEHE10-$LEHB10
	.uleb128 $L63-$LFB1501
	.uleb128 0
	.uleb128 $LEHB11-$LFB1501
	.uleb128 $LEHE11-$LEHB11
	.uleb128 $L64-$LFB1501
	.uleb128 0
	.uleb128 $LEHB12-$LFB1501
	.uleb128 $LEHE12-$LEHB12
	.uleb128 0
	.uleb128 0
$LLSDACSE1501:
	.section	.text._ZNSt8ios_base7failureB5cxx11C2EPKcRKSt10error_code
	.size	_ZNSt8ios_base7failureB5cxx11C2EPKcRKSt10error_code, .-_ZNSt8ios_base7failureB5cxx11C2EPKcRKSt10error_code
	.globl	_ZNSt8ios_base7failureB5cxx11C1EPKcRKSt10error_code
	_ZNSt8ios_base7failureB5cxx11C1EPKcRKSt10error_code = _ZNSt8ios_base7failureB5cxx11C2EPKcRKSt10error_code
	.section	.text.unlikely._ZSt19__throw_ios_failurePKc,"ax",@progbits
	.align	2
	.globl	_ZSt19__throw_ios_failurePKc
$LFB1523 = .
$LM182:
	.cfi_startproc
	.cfi_personality 0x80,DW.ref.__gxx_personality_v0
	.cfi_lsda 0,$LLSDA1523
	.set	nomips16
	.set	nomicromips
	.ent	_ZSt19__throw_ios_failurePKc
	.type	_ZSt19__throw_ios_failurePKc, @function
_ZSt19__throw_ios_failurePKc:
	.frame	$sp,48,$31		# vars= 8, regs= 3/0, args= 16, gp= 8
	.mask	0x80030000,-4
	.fmask	0x00000000,0
	.set	noreorder
	.cpload	$25
	.set	nomacro
$LVL165 = .
$LM183:
$LM184:
	addiu	$sp,$sp,-48
	.cfi_def_cfa_offset 48
$LM185:
	lw	$25,%call16(__cxa_allocate_exception)($28)
$LM186:
	.cprestore	16
	sw	$31,44($sp)
	sw	$17,40($sp)
	sw	$16,36($sp)
	.cfi_offset 31, -4
	.cfi_offset 17, -8
	.cfi_offset 16, -12
	move	$17,$4
$LVL166 = .
$LM187:
	.reloc	1f,R_MIPS_JALR,__cxa_allocate_exception
1:	jalr	$25
$LVL167 = .
	li	$4,24			# 0x18

	lw	$28,16($sp)
$LVL168 = .
$LBB713 = .
$LBB714 = .
$LBB715 = .
$LBB716 = .
$LBB717 = .
$LBB718 = .
$LBB719 = .
$LM188:
$LM189:
	lw	$25,%call16(_ZSt17iostream_categoryv)($28)
	.reloc	1f,R_MIPS_JALR,_ZSt17iostream_categoryv
1:	jalr	$25
$LVL169 = .
	move	$16,$2

$LVL170 = .
	lw	$28,16($sp)
$LBE719 = .
$LBE718 = .
$LM190:
	li	$3,1			# 0x1
$LBB721 = .
$LBB720 = .
$LM191:
$LBE720 = .
$LBE721 = .
$LM192:
	sw	$3,24($sp)
$LBE717 = .
$LBE716 = .
$LBE715 = .
$LM193:
	lw	$25,%call16(_ZNSt8ios_base7failureB5cxx11C2EPKcRKSt10error_code)($28)
$LBB724 = .
$LBB723 = .
$LBB722 = .
$LM194:
	sw	$2,28($sp)
$LVL171 = .
$LBE722 = .
$LBE723 = .
$LBE724 = .
$LM195:
	addiu	$6,$sp,24
	move	$5,$17
$LEHB13 = .
	.reloc	1f,R_MIPS_JALR,_ZNSt8ios_base7failureB5cxx11C2EPKcRKSt10error_code
1:	jalr	$25
$LVL172 = .
	move	$4,$16

$LEHE13 = .
	lw	$28,16($sp)
$LM196:
	move	$4,$16
$LM197:
	lw	$2,%got(_ZTVSt13__ios_failure)($28)
$LM198:
	lw	$25,%call16(_ZNKSt13runtime_error4whatEv)($28)
$LM199:
	addiu	$2,$2,8
$LM200:
$LM201:
	.reloc	1f,R_MIPS_JALR,_ZNKSt13runtime_error4whatEv
1:	jalr	$25
$LVL173 = .
	sw	$2,0($16)

	lw	$28,16($sp)
	move	$5,$2
	lw	$25,%call16(_ZSt23__construct_ios_failurePvPKc)($28)
$LEHB14 = .
	.reloc	1f,R_MIPS_JALR,_ZSt23__construct_ios_failurePvPKc
1:	jalr	$25
$LVL174 = .
	addiu	$4,$16,16

$LEHE14 = .
	lw	$28,16($sp)
$LVL175 = .
$LBE714 = .
$LBE713 = .
$LM202:
	lw	$6,%got(_ZNSt13__ios_failureD1Ev)($28)
	lw	$5,%got(_ZTISt13__ios_failure)($28)
	lw	$25,%call16(__cxa_throw)($28)
$LEHB15 = .
	.reloc	1f,R_MIPS_JALR,__cxa_throw
1:	jalr	$25
$LVL176 = .
	move	$4,$16

$LVL177 = .
$L72:
$LBB726 = .
$LBB725 = .
$LM203:
	lw	$28,16($sp)
	move	$17,$4
$LVL178 = .
	lw	$25,%call16(_ZNSt8ios_base7failureB5cxx11D2Ev)($28)
	.reloc	1f,R_MIPS_JALR,_ZNSt8ios_base7failureB5cxx11D2Ev
1:	jalr	$25
$LVL179 = .
	move	$4,$16

	lw	$28,16($sp)
$L70:
$LBE725 = .
$LBE726 = .
$LM204:
	lw	$25,%call16(__cxa_free_exception)($28)
	.reloc	1f,R_MIPS_JALR,__cxa_free_exception
1:	jalr	$25
$LVL180 = .
	move	$4,$16

	lw	$28,16($sp)
	lw	$25,%call16(_Unwind_Resume)($28)
	.reloc	1f,R_MIPS_JALR,_Unwind_Resume
1:	jalr	$25
$LVL181 = .
	move	$4,$17

$LEHE15 = .
$LVL182 = .
$L71:
$LM205:
	lw	$28,16($sp)
$LVL183 = .
	b	$L70
	move	$17,$4

	.set	macro
	.set	reorder
	.end	_ZSt19__throw_ios_failurePKc
	.cfi_endproc
$LFE1523:
	.section	.gcc_except_table._ZSt19__throw_ios_failurePKc,"aw",@progbits
$LLSDA1523:
	.byte	0xff
	.byte	0xff
	.byte	0x1
	.uleb128 $LLSDACSE1523-$LLSDACSB1523
$LLSDACSB1523:
	.uleb128 $LEHB13-$LFB1523
	.uleb128 $LEHE13-$LEHB13
	.uleb128 $L71-$LFB1523
	.uleb128 0
	.uleb128 $LEHB14-$LFB1523
	.uleb128 $LEHE14-$LEHB14
	.uleb128 $L72-$LFB1523
	.uleb128 0
	.uleb128 $LEHB15-$LFB1523
	.uleb128 $LEHE15-$LEHB15
	.uleb128 0
	.uleb128 0
$LLSDACSE1523:
	.section	.text.unlikely._ZSt19__throw_ios_failurePKc
	.size	_ZSt19__throw_ios_failurePKc, .-_ZSt19__throw_ios_failurePKc
	.section	.text.unlikely._ZSt19__throw_ios_failurePKci,"ax",@progbits
	.align	2
	.globl	_ZSt19__throw_ios_failurePKci
$LFB1533 = .
$LM206:
	.cfi_startproc
	.cfi_personality 0x80,DW.ref.__gxx_personality_v0
	.cfi_lsda 0,$LLSDA1533
	.set	nomips16
	.set	nomicromips
	.ent	_ZSt19__throw_ios_failurePKci
	.type	_ZSt19__throw_ios_failurePKci, @function
_ZSt19__throw_ios_failurePKci:
	.frame	$sp,48,$31		# vars= 8, regs= 4/0, args= 16, gp= 8
	.mask	0x80070000,-4
	.fmask	0x00000000,0
	.set	noreorder
	.cpload	$25
	.set	nomacro
$LVL184 = .
$LM207:
$LM208:
	addiu	$sp,$sp,-48
	.cfi_def_cfa_offset 48
$LM209:
	lw	$25,%call16(__cxa_allocate_exception)($28)
$LM210:
	.cprestore	16
	sw	$18,40($sp)
	sw	$17,36($sp)
	sw	$16,32($sp)
	sw	$31,44($sp)
	.cfi_offset 18, -8
	.cfi_offset 17, -12
	.cfi_offset 16, -16
	.cfi_offset 31, -4
	move	$18,$4
$LM211:
	li	$4,24			# 0x18
$LVL185 = .
$LM212:
$LM213:
	.reloc	1f,R_MIPS_JALR,__cxa_allocate_exception
1:	jalr	$25
$LVL186 = .
	move	$17,$5

$LVL187 = .
	move	$16,$2
	beq	$17,$0,$L75
	lw	$28,16($sp)

$LM214:
	lw	$25,%call16(_ZNSt3_V216generic_categoryEv)($28)
	.reloc	1f,R_MIPS_JALR,_ZNSt3_V216generic_categoryEv
1:	jalr	$25
	nop

$LVL188 = .
	lw	$28,16($sp)
$LBB739 = .
$LBB740 = .
$LBB741 = .
$LM215:
	sw	$17,24($sp)
$LBE741 = .
$LBE740 = .
$LBE739 = .
$LM216:
$LVL189 = .
$L83:
$LBB742 = .
$LBB743 = .
$LM217:
	lw	$25,%call16(_ZNSt8ios_base7failureB5cxx11C2EPKcRKSt10error_code)($28)
$LBE743 = .
$LBE742 = .
$LBB747 = .
$LBB748 = .
$LBB749 = .
$LM218:
	sw	$2,28($sp)
$LVL190 = .
$LBE749 = .
$LBE748 = .
$LBE747 = .
$LBB756 = .
$LBB744 = .
$LM219:
	addiu	$6,$sp,24
$LVL191 = .
	move	$5,$18
$LEHB16 = .
	.reloc	1f,R_MIPS_JALR,_ZNSt8ios_base7failureB5cxx11C2EPKcRKSt10error_code
1:	jalr	$25
$LVL192 = .
	move	$4,$16

$LEHE16 = .
$LVL193 = .
$LBE744 = .
$LBE756 = .
	b	$L84
	lw	$28,16($sp)

$LVL194 = .
$L75:
$LBB757 = .
$LBB755 = .
$LBB754 = .
$LBB750 = .
$LBB751 = .
$LM220:
$LM221:
	lw	$25,%call16(_ZSt17iostream_categoryv)($28)
	.reloc	1f,R_MIPS_JALR,_ZSt17iostream_categoryv
1:	jalr	$25
	nop

$LVL195 = .
$LBE751 = .
$LBE750 = .
$LM222:
	li	$3,1			# 0x1
$LBB753 = .
$LBB752 = .
$LM223:
	lw	$28,16($sp)
$LBE752 = .
$LBE753 = .
$LBE754 = .
$LBE755 = .
$LBE757 = .
$LM224:
	b	$L83
	sw	$3,24($sp)

$LVL196 = .
$L84:
$LBB758 = .
$LBB745 = .
$LM225:
	lw	$2,%got(_ZTVSt13__ios_failure)($28)
$LM226:
	lw	$25,%call16(_ZNKSt13runtime_error4whatEv)($28)
$LM227:
	addiu	$2,$2,8
$LM228:
	move	$4,$16
$LM229:
$LM230:
	.reloc	1f,R_MIPS_JALR,_ZNKSt13runtime_error4whatEv
1:	jalr	$25
$LVL197 = .
	sw	$2,0($16)

	lw	$28,16($sp)
	move	$5,$2
	lw	$25,%call16(_ZSt23__construct_ios_failurePvPKc)($28)
$LEHB17 = .
	.reloc	1f,R_MIPS_JALR,_ZSt23__construct_ios_failurePvPKc
1:	jalr	$25
$LVL198 = .
	addiu	$4,$16,16

$LEHE17 = .
	lw	$28,16($sp)
$LVL199 = .
$LBE745 = .
$LBE758 = .
$LM231:
	lw	$6,%got(_ZNSt13__ios_failureD1Ev)($28)
	lw	$5,%got(_ZTISt13__ios_failure)($28)
	lw	$25,%call16(__cxa_throw)($28)
$LEHB18 = .
	.reloc	1f,R_MIPS_JALR,__cxa_throw
1:	jalr	$25
$LVL200 = .
	move	$4,$16

$LVL201 = .
$L81:
$LBB759 = .
$LBB746 = .
$LM232:
	lw	$28,16($sp)
	move	$17,$4
$LVL202 = .
	lw	$25,%call16(_ZNSt8ios_base7failureB5cxx11D2Ev)($28)
	.reloc	1f,R_MIPS_JALR,_ZNSt8ios_base7failureB5cxx11D2Ev
1:	jalr	$25
$LVL203 = .
	move	$4,$16

	lw	$28,16($sp)
$L79:
$LBE746 = .
$LBE759 = .
$LM233:
	lw	$25,%call16(__cxa_free_exception)($28)
	.reloc	1f,R_MIPS_JALR,__cxa_free_exception
1:	jalr	$25
$LVL204 = .
	move	$4,$16

	lw	$28,16($sp)
	lw	$25,%call16(_Unwind_Resume)($28)
	.reloc	1f,R_MIPS_JALR,_Unwind_Resume
1:	jalr	$25
$LVL205 = .
	move	$4,$17

$LEHE18 = .
$LVL206 = .
$L80:
	lw	$28,16($sp)
$LVL207 = .
	b	$L79
	move	$17,$4

	.set	macro
	.set	reorder
	.end	_ZSt19__throw_ios_failurePKci
	.cfi_endproc
$LFE1533:
	.section	.gcc_except_table._ZSt19__throw_ios_failurePKci,"aw",@progbits
$LLSDA1533:
	.byte	0xff
	.byte	0xff
	.byte	0x1
	.uleb128 $LLSDACSE1533-$LLSDACSB1533
$LLSDACSB1533:
	.uleb128 $LEHB16-$LFB1533
	.uleb128 $LEHE16-$LEHB16
	.uleb128 $L80-$LFB1533
	.uleb128 0
	.uleb128 $LEHB17-$LFB1533
	.uleb128 $LEHE17-$LEHB17
	.uleb128 $L81-$LFB1533
	.uleb128 0
	.uleb128 $LEHB18-$LFB1533
	.uleb128 $LEHE18-$LEHB18
	.uleb128 0
	.uleb128 0
$LLSDACSE1533:
	.section	.text.unlikely._ZSt19__throw_ios_failurePKci
	.size	_ZSt19__throw_ios_failurePKci, .-_ZSt19__throw_ios_failurePKci
	.section	.text.startup._GLOBAL__sub_I_cxx11_ios_failure.cc,"ax",@progbits
	.align	2
$LFB1885 = .
$LM234:
	.cfi_startproc
	.set	nomips16
	.set	nomicromips
	.ent	_GLOBAL__sub_I_cxx11_ios_failure.cc
	.type	_GLOBAL__sub_I_cxx11_ios_failure.cc, @function
_GLOBAL__sub_I_cxx11_ios_failure.cc:
	.frame	$sp,0,$31		# vars= 0, regs= 0/0, args= 0, gp= 0
	.mask	0x00000000,0
	.fmask	0x00000000,0
	.set	noreorder
	.cpload	$25
	.set	nomacro
$LVL208 = .
$LBB762 = .
$LBB763 = .
$LM235:
	lw	$5,%got(_ZN12_GLOBAL__N_120io_category_instanceE)($28)
	lw	$4,%got(_ZN12_GLOBAL__N_113constant_initD1Ev)($28)
	lw	$6,%got(__dso_handle)($28)
	lw	$25,%call16(__cxa_atexit)($28)
	addiu	$5,$5,%lo(_ZN12_GLOBAL__N_120io_category_instanceE)
	.reloc	1f,R_MIPS_JALR,__cxa_atexit
1:	jr	$25
$LVL209 = .
	addiu	$4,$4,%lo(_ZN12_GLOBAL__N_113constant_initD1Ev)

$LBE763 = .
$LBE762 = .
	.set	macro
	.set	reorder
	.end	_GLOBAL__sub_I_cxx11_ios_failure.cc
	.cfi_endproc
$LFE1885:
	.size	_GLOBAL__sub_I_cxx11_ios_failure.cc, .-_GLOBAL__sub_I_cxx11_ios_failure.cc
	.section	.init_array,"aw"
	.align	2
	.word	_GLOBAL__sub_I_cxx11_ios_failure.cc
	.weak	_ZTSNSt8ios_base7failureB5cxx11E
	.section	.rodata._ZTSNSt8ios_base7failureB5cxx11E,"aG",@progbits,_ZTSNSt8ios_base7failureB5cxx11E,comdat
	.align	2
	.type	_ZTSNSt8ios_base7failureB5cxx11E, @object
	.size	_ZTSNSt8ios_base7failureB5cxx11E, 29
_ZTSNSt8ios_base7failureB5cxx11E:
	.ascii	"NSt8ios_base7failureB5cxx11E\000"
	.weak	_ZTINSt8ios_base7failureB5cxx11E
	.section	.data.rel.ro._ZTINSt8ios_base7failureB5cxx11E,"awG",@progbits,_ZTINSt8ios_base7failureB5cxx11E,comdat
	.align	2
	.type	_ZTINSt8ios_base7failureB5cxx11E, @object
	.size	_ZTINSt8ios_base7failureB5cxx11E, 12
_ZTINSt8ios_base7failureB5cxx11E:
	.word	_ZTVN10__cxxabiv120__si_class_type_infoE+8
	.word	_ZTSNSt8ios_base7failureB5cxx11E
	.word	_ZTISt12system_error
	.section	.data.rel.ro._ZTIN12_GLOBAL__N_117io_error_categoryE,"aw"
	.align	2
	.type	_ZTIN12_GLOBAL__N_117io_error_categoryE, @object
	.size	_ZTIN12_GLOBAL__N_117io_error_categoryE, 12
_ZTIN12_GLOBAL__N_117io_error_categoryE:
	.word	_ZTVN10__cxxabiv120__si_class_type_infoE+8
	.word	_ZTSN12_GLOBAL__N_117io_error_categoryE
	.word	_ZTINSt3_V214error_categoryE
	.section	.rodata._ZTSN12_GLOBAL__N_117io_error_categoryE,"a"
	.align	2
	.type	_ZTSN12_GLOBAL__N_117io_error_categoryE, @object
	.size	_ZTSN12_GLOBAL__N_117io_error_categoryE, 37
_ZTSN12_GLOBAL__N_117io_error_categoryE:
	.ascii	"*N12_GLOBAL__N_117io_error_categoryE\000"
	.weak	_ZTSSt13__ios_failure
	.section	.rodata._ZTSSt13__ios_failure,"aG",@progbits,_ZTSSt13__ios_failure,comdat
	.align	2
	.type	_ZTSSt13__ios_failure, @object
	.size	_ZTSSt13__ios_failure, 18
_ZTSSt13__ios_failure:
	.ascii	"St13__ios_failure\000"
	.weak	_ZTISt13__ios_failure
	.section	.data.rel.ro._ZTISt13__ios_failure,"awG",@progbits,_ZTISt13__ios_failure,comdat
	.align	2
	.type	_ZTISt13__ios_failure, @object
	.size	_ZTISt13__ios_failure, 12
_ZTISt13__ios_failure:
	.word	_ZTVSt19__iosfail_type_info+8
	.word	_ZTSSt13__ios_failure
	.word	_ZTINSt8ios_base7failureB5cxx11E
	.weak	_ZTSSt19__iosfail_type_info
	.section	.rodata._ZTSSt19__iosfail_type_info,"aG",@progbits,_ZTSSt19__iosfail_type_info,comdat
	.align	2
	.type	_ZTSSt19__iosfail_type_info, @object
	.size	_ZTSSt19__iosfail_type_info, 24
_ZTSSt19__iosfail_type_info:
	.ascii	"St19__iosfail_type_info\000"
	.weak	_ZTISt19__iosfail_type_info
	.section	.data.rel.ro._ZTISt19__iosfail_type_info,"awG",@progbits,_ZTISt19__iosfail_type_info,comdat
	.align	2
	.type	_ZTISt19__iosfail_type_info, @object
	.size	_ZTISt19__iosfail_type_info, 24
_ZTISt19__iosfail_type_info:
	.word	_ZTVN10__cxxabiv121__vmi_class_type_infoE+8
	.word	_ZTSSt19__iosfail_type_info
	.word	0
	.word	1
	.word	_ZTIN10__cxxabiv120__si_class_type_infoE
	.word	0
	.section	.data.rel.ro._ZTVN12_GLOBAL__N_117io_error_categoryE,"aw"
	.align	2
	.type	_ZTVN12_GLOBAL__N_117io_error_categoryE, @object
	.size	_ZTVN12_GLOBAL__N_117io_error_categoryE, 40
_ZTVN12_GLOBAL__N_117io_error_categoryE:
	.word	0
	.word	_ZTIN12_GLOBAL__N_117io_error_categoryE
	.word	_ZN12_GLOBAL__N_117io_error_categoryD1Ev
	.word	_ZN12_GLOBAL__N_117io_error_categoryD0Ev
	.word	_ZNK12_GLOBAL__N_117io_error_category4nameEv
	.word	_ZNKSt3_V214error_category10_M_messageB5cxx11Ei
	.word	_ZNK12_GLOBAL__N_117io_error_category7messageB5cxx11Ei
	.word	_ZNKSt3_V214error_category23default_error_conditionEi
	.word	_ZNKSt3_V214error_category10equivalentEiRKSt15error_condition
	.word	_ZNKSt3_V214error_category10equivalentERKSt10error_codei
	.weak	_ZTVNSt8ios_base7failureB5cxx11E
	.section	.data.rel.ro._ZTVNSt8ios_base7failureB5cxx11E,"awG",@progbits,_ZTVNSt8ios_base7failureB5cxx11E,comdat
	.align	2
	.type	_ZTVNSt8ios_base7failureB5cxx11E, @object
	.size	_ZTVNSt8ios_base7failureB5cxx11E, 20
_ZTVNSt8ios_base7failureB5cxx11E:
	.word	0
	.word	_ZTINSt8ios_base7failureB5cxx11E
	.word	_ZNSt8ios_base7failureB5cxx11D1Ev
	.word	_ZNSt8ios_base7failureB5cxx11D0Ev
	.word	_ZNKSt8ios_base7failureB5cxx114whatEv
	.weak	_ZTVSt13__ios_failure
	.section	.data.rel.ro._ZTVSt13__ios_failure,"awG",@progbits,_ZTVSt13__ios_failure,comdat
	.align	2
	.type	_ZTVSt13__ios_failure, @object
	.size	_ZTVSt13__ios_failure, 20
_ZTVSt13__ios_failure:
	.word	0
	.word	_ZTISt13__ios_failure
	.word	_ZNSt13__ios_failureD1Ev
	.word	_ZNSt13__ios_failureD0Ev
	.word	_ZNKSt8ios_base7failureB5cxx114whatEv
	.weak	_ZTVSt19__iosfail_type_info
	.section	.data.rel.ro._ZTVSt19__iosfail_type_info,"awG",@progbits,_ZTVSt19__iosfail_type_info,comdat
	.align	2
	.type	_ZTVSt19__iosfail_type_info, @object
	.size	_ZTVSt19__iosfail_type_info, 44
_ZTVSt19__iosfail_type_info:
	.word	0
	.word	_ZTISt19__iosfail_type_info
	.word	_ZNSt19__iosfail_type_infoD1Ev
	.word	_ZNSt19__iosfail_type_infoD0Ev
	.word	_ZNKSt9type_info14__is_pointer_pEv
	.word	_ZNKSt9type_info15__is_function_pEv
	.word	_ZNK10__cxxabiv117__class_type_info10__do_catchEPKSt9type_infoPPvj
	.word	_ZNKSt19__iosfail_type_info11__do_upcastEPKN10__cxxabiv117__class_type_infoEPPv
	.word	_ZNK10__cxxabiv120__si_class_type_info11__do_upcastEPKNS_17__class_type_infoEPKvRNS1_15__upcast_resultE
	.word	_ZNK10__cxxabiv120__si_class_type_info12__do_dyncastEiNS_17__class_type_info10__sub_kindEPKS1_PKvS4_S6_RNS1_16__dyncast_resultE
	.word	_ZNK10__cxxabiv120__si_class_type_info20__do_find_public_srcEiPKvPKNS_17__class_type_infoES2_
	.section	.data.rel.local._ZN12_GLOBAL__N_120io_category_instanceE,"aw"
	.align	2
	.type	_ZN12_GLOBAL__N_120io_category_instanceE, @object
	.size	_ZN12_GLOBAL__N_120io_category_instanceE, 4
_ZN12_GLOBAL__N_120io_category_instanceE:
	.word	_ZTVN12_GLOBAL__N_117io_error_categoryE+8
	.text
$Letext0:
	.section	.data.rel.local.DW.ref.__gxx_personality_v0,"awG",@progbits,DW.ref.__gxx_personality_v0,comdat
	.align	2
	.type	DW.ref.__gxx_personality_v0, @object
	.size	DW.ref.__gxx_personality_v0, 4
DW.ref.__gxx_personality_v0:
	.word	__gxx_personality_v0
	.hidden	__dso_handle
	.ident	"GCC: (OpenWrt GCC 12.3.0 r23809-234f1a2efa) 12.3.0"
	.section	.note.GNU-stack,"",@progbits
