Archive member included to satisfy reference by file (symbol)

libbb/lib.a(appletlib.o)      /home/notlean/openwrt-uboost/staging_dir/toolchain-mipsel_24kc_gcc-12.3.0_musl/lib/gcc/mipsel-openwrt-linux-musl/12.3.0/../../../../mipsel-openwrt-linux-musl/lib/crt1.o (main)
libbb/lib.a(compare_string_array.o)
                              appletlib.o (symbol from plugin) (is_prefixed_with)
libbb/lib.a(default_error_retval.o)
                              appletlib.o (symbol from plugin) (xfunc_error_retval)
libbb/lib.a(get_last_path_component.o)
                              appletlib.o (symbol from plugin) (bb_basename)
libbb/lib.a(last_char_is.o)   get_last_path_component.o (symbol from plugin) (last_char_is)
libbb/lib.a(messages.o)       appletlib.o (symbol from plugin) (bb_banner)
libbb/lib.a(ptr_to_globals.o)
                              appletlib.o (symbol from plugin) (bb_errno)
libbb/lib.a(vfork_daemon_rexec.o)
                              appletlib.o (symbol from plugin) (re_execed_comm)
libbb/lib.a(xfunc_die.o)      appletlib.o (symbol from plugin) (xfunc_die)
libbb/lib.a(xfuncs.o)         appletlib.o (symbol from plugin) (full_write2_str)
libbb/lib.a(xfuncs_printf.o)  vfork_daemon_rexec.o (symbol from plugin) (xopen)
libbb/lib.a(copyfd.o)         xfuncs_printf.o (symbol from plugin) (bb_copyfd_eof)
libbb/lib.a(executable.o)     vfork_daemon_rexec.o (symbol from plugin) (BB_EXECVP)
libbb/lib.a(full_write.o)     xfuncs.o (symbol from plugin) (full_write)
libbb/lib.a(getopt32.o)       vfork_daemon_rexec.o (symbol from plugin) (option_mask32)
libbb/lib.a(llist.o)          getopt32.o (symbol from plugin) (llist_add_to_end)
libbb/lib.a(perror_msg.o)     xfuncs_printf.o (symbol from plugin) (bb_perror_msg)
libbb/lib.a(read.o)           copyfd.o (symbol from plugin) (safe_read)
libbb/lib.a(safe_strncpy.o)   getopt32.o (symbol from plugin) (overlapping_strcpy)
libbb/lib.a(safe_write.o)     full_write.o (symbol from plugin) (safe_write)
libbb/lib.a(signals.o)        xfuncs_printf.o (symbol from plugin) (kill_myself_with_sig)
libbb/lib.a(time.o)           xfuncs_printf.o (symbol from plugin) (monotonic_us)
libbb/lib.a(verror_msg.o)     xfuncs_printf.o (symbol from plugin) (bb_verror_msg)
libbb/lib.a(xatonum.o)        getopt32.o (symbol from plugin) (xatoi_positive)
libbb/lib.a(bb_strtonum.o)    time.o (symbol from plugin) (bb_strtoll)
libbb/lib.a(concat_path_file.o)
                              executable.o (symbol from plugin) (concat_path_file)
loginutils/lib.a(login.o)     appletlib.o (symbol from plugin) (login_main)
loginutils/lib.a(passwd.o)    appletlib.o (symbol from plugin) (passwd_main)
miscutils/lib.a(crond.o)      appletlib.o (symbol from plugin) (crond_main)
miscutils/lib.a(crontab.o)    appletlib.o (symbol from plugin) (crontab_main)
miscutils/lib.a(less.o)       appletlib.o (symbol from plugin) (less_main)
miscutils/lib.a(lock.o)       appletlib.o (symbol from plugin) (lock_main)
miscutils/lib.a(strings.o)    appletlib.o (symbol from plugin) (strings_main)
miscutils/lib.a(time.o)       appletlib.o (symbol from plugin) (time_main)
networking/lib.a(brctl.o)     appletlib.o (symbol from plugin) (brctl_main)
networking/lib.a(ifconfig.o)  appletlib.o (symbol from plugin) (ifconfig_main)
networking/lib.a(interface.o)
                              ifconfig.o (symbol from plugin) (display_interfaces)
networking/lib.a(ip.o)        appletlib.o (symbol from plugin) (ip_main)
networking/lib.a(nc.o)        appletlib.o (symbol from plugin) (nc_main)
networking/lib.a(netmsg.o)    appletlib.o (symbol from plugin) (netmsg_main)
networking/lib.a(netstat.o)   appletlib.o (symbol from plugin) (netstat_main)
networking/lib.a(nslookup.o)  appletlib.o (symbol from plugin) (nslookup_main)
networking/lib.a(ntpd.o)      appletlib.o (symbol from plugin) (ntpd_main)
networking/lib.a(ping.o)      appletlib.o (symbol from plugin) (ping_main)
networking/lib.a(route.o)     netstat.o (symbol from plugin) (bb_displayroutes)
networking/lib.a(traceroute.o)
                              appletlib.o (symbol from plugin) (traceroute_main)
networking/libiproute/lib.a(ip_parse_common_args.o)
                              ip.o (symbol from plugin) (ip_parse_common_args)
networking/libiproute/lib.a(ipaddress.o)
                              ip.o (symbol from plugin) (do_ipaddr)
networking/libiproute/lib.a(iplink.o)
                              ip.o (symbol from plugin) (do_iplink)
networking/libiproute/lib.a(ipneigh.o)
                              ip.o (symbol from plugin) (do_ipneigh)
networking/libiproute/lib.a(iproute.o)
                              ip.o (symbol from plugin) (do_iproute)
networking/libiproute/lib.a(iprule.o)
                              ip.o (symbol from plugin) (do_iprule)
networking/libiproute/lib.a(libnetlink.o)
                              ipaddress.o (symbol from plugin) (xrtnl_open)
networking/libiproute/lib.a(ll_addr.o)
                              ipaddress.o (symbol from plugin) (ll_addr_n2a)
networking/libiproute/lib.a(ll_map.o)
                              ipaddress.o (symbol from plugin) (ll_remember_index)
networking/libiproute/lib.a(ll_types.o)
                              ipaddress.o (symbol from plugin) (ll_type_n2a)
networking/libiproute/lib.a(rt_names.o)
                              iproute.o (symbol from plugin) (rtnl_rtprot_a2n)
networking/libiproute/lib.a(rtm_map.o)
                              iproute.o (symbol from plugin) (rtnl_rtntype_n2a)
networking/libiproute/lib.a(utils.o)
                              ipneigh.o (symbol from plugin) (get_hz)
networking/udhcp/lib.a(dhcpc.o)
                              appletlib.o (symbol from plugin) (udhcpc_main)
networking/udhcp/lib.a(domain_codec.o)
                              dhcpc.o (symbol from plugin) (dname_dec)
networking/udhcp/lib.a(packet.o)
                              dhcpc.o (symbol from plugin) (udhcp_init_header)
networking/udhcp/lib.a(signalpipe.o)
                              dhcpc.o (symbol from plugin) (udhcp_sp_setup)
networking/udhcp/lib.a(socket.o)
                              dhcpc.o (symbol from plugin) (udhcp_read_interface)
networking/udhcp/lib.a(common.o)
                              dhcpc.o (symbol from plugin) (udhcp_option_idx)
procps/lib.a(free.o)          appletlib.o (symbol from plugin) (free_main)
procps/lib.a(kill.o)          appletlib.o (symbol from plugin) (kill_main)
procps/lib.a(pgrep.o)         appletlib.o (symbol from plugin) (pgrep_main)
procps/lib.a(pidof.o)         appletlib.o (symbol from plugin) (pidof_main)
procps/lib.a(ps.o)            appletlib.o (symbol from plugin) (ps_main)
procps/lib.a(sysctl.o)        appletlib.o (symbol from plugin) (sysctl_main)
procps/lib.a(top.o)           appletlib.o (symbol from plugin) (top_main)
procps/lib.a(uptime.o)        appletlib.o (symbol from plugin) (uptime_main)
shell/lib.a(ash.o)            appletlib.o (symbol from plugin) (ash_main)
shell/lib.a(ash_ptr_hack.o)   ash.o (symbol from plugin) (ash_ptr_to_globals_var)
shell/lib.a(math.o)           ash.o (symbol from plugin) (arith)
shell/lib.a(random.o)         ash.o (symbol from plugin) (next_random)
shell/lib.a(shell_common.o)   ash.o (symbol from plugin) (shell_builtin_read)
sysklogd/lib.a(syslogd_and_logger.o)
                              appletlib.o (symbol from plugin) (logger_main)
util-linux/lib.a(dmesg.o)     appletlib.o (symbol from plugin) (dmesg_main)
util-linux/lib.a(flock.o)     appletlib.o (symbol from plugin) (flock_main)
util-linux/lib.a(hexdump.o)   appletlib.o (symbol from plugin) (hexdump_main)
util-linux/lib.a(hwclock.o)   appletlib.o (symbol from plugin) (hwclock_main)
util-linux/lib.a(mkswap.o)    appletlib.o (symbol from plugin) (mkswap_main)
util-linux/lib.a(mount.o)     appletlib.o (symbol from plugin) (mount_main)
util-linux/lib.a(pivot_root.o)
                              appletlib.o (symbol from plugin) (pivot_root_main)
util-linux/lib.a(swaponoff.o)
                              appletlib.o (symbol from plugin) (swap_on_off_main)
util-linux/lib.a(switch_root.o)
                              appletlib.o (symbol from plugin) (switch_root_main)
util-linux/lib.a(taskset.o)   appletlib.o (symbol from plugin) (taskset_main)
util-linux/lib.a(umount.o)    appletlib.o (symbol from plugin) (umount_main)
archival/lib.a(bbunzip.o)     appletlib.o (symbol from plugin) (gunzip_main)
archival/lib.a(gzip.o)        appletlib.o (symbol from plugin) (gzip_main)
archival/lib.a(tar.o)         appletlib.o (symbol from plugin) (tar_main)
archival/lib.a(chksum_and_xwrite_tar_header.o)
                              tar.o (symbol from plugin) (chksum_and_xwrite_tar_header)
archival/libarchive/lib.a(data_extract_all.o)
                              tar.o (symbol from plugin) (data_extract_all)
archival/libarchive/lib.a(data_extract_to_stdout.o)
                              tar.o (symbol from plugin) (data_extract_to_stdout)
archival/libarchive/lib.a(data_skip.o)
                              data_extract_all.o (symbol from plugin) (data_skip)
archival/libarchive/lib.a(decompress_gunzip.o)
                              bbunzip.o (symbol from plugin) (unpack_gz_stream)
archival/libarchive/lib.a(filter_accept_reject_list.o)
                              tar.o (symbol from plugin) (filter_accept_reject_list)
archival/libarchive/lib.a(find_list_entry.o)
                              tar.o (symbol from plugin) (find_list_entry)
archival/libarchive/lib.a(get_header_tar.o)
                              tar.o (symbol from plugin) (get_header_tar)
archival/libarchive/lib.a(header_list.o)
                              tar.o (symbol from plugin) (header_list)
archival/libarchive/lib.a(header_verbose_list.o)
                              tar.o (symbol from plugin) (header_verbose_list)
archival/libarchive/lib.a(init_handle.o)
                              tar.o (symbol from plugin) (init_handle)
archival/libarchive/lib.a(open_transformer.o)
                              bbunzip.o (symbol from plugin) (init_transformer_state)
archival/libarchive/lib.a(seek_by_jump.o)
                              init_handle.o (symbol from plugin) (seek_by_jump)
archival/libarchive/lib.a(seek_by_read.o)
                              tar.o (symbol from plugin) (seek_by_read)
archival/libarchive/lib.a(unsafe_prefix.o)
                              tar.o (symbol from plugin) (strip_unsafe_prefix)
archival/libarchive/lib.a(unsafe_symlink_target.o)
                              data_extract_all.o (symbol from plugin) (create_or_remember_link)
archival/libarchive/lib.a(data_align.o)
                              get_header_tar.o (symbol from plugin) (data_align)
archival/libarchive/lib.a(filter_accept_all.o)
                              init_handle.o (symbol from plugin) (filter_accept_all)
archival/libarchive/lib.a(header_skip.o)
                              init_handle.o (symbol from plugin) (header_skip)
console-tools/lib.a(clear.o)  appletlib.o (symbol from plugin) (clear_main)
console-tools/lib.a(reset.o)  appletlib.o (symbol from plugin) (reset_main)
console-tools/lib.a(resize.o)
                              appletlib.o (symbol from plugin) (resize_main)
coreutils/lib.a(basename.o)   appletlib.o (symbol from plugin) (basename_main)
coreutils/lib.a(cat.o)        appletlib.o (symbol from plugin) (cat_main)
coreutils/lib.a(chgrp.o)      appletlib.o (symbol from plugin) (chgrp_main)
coreutils/lib.a(chmod.o)      appletlib.o (symbol from plugin) (chmod_main)
coreutils/lib.a(chown.o)      appletlib.o (symbol from plugin) (chown_main)
coreutils/lib.a(chroot.o)     appletlib.o (symbol from plugin) (chroot_main)
coreutils/lib.a(cp.o)         appletlib.o (symbol from plugin) (cp_main)
coreutils/lib.a(cut.o)        appletlib.o (symbol from plugin) (cut_main)
coreutils/lib.a(date.o)       appletlib.o (symbol from plugin) (date_main)
coreutils/lib.a(dd.o)         appletlib.o (symbol from plugin) (dd_main)
coreutils/lib.a(df.o)         appletlib.o (symbol from plugin) (df_main)
coreutils/lib.a(dirname.o)    appletlib.o (symbol from plugin) (dirname_main)
coreutils/lib.a(du.o)         appletlib.o (symbol from plugin) (du_main)
coreutils/lib.a(echo.o)       appletlib.o (symbol from plugin) (echo_main)
coreutils/lib.a(env.o)        appletlib.o (symbol from plugin) (env_main)
coreutils/lib.a(expr.o)       appletlib.o (symbol from plugin) (expr_main)
coreutils/lib.a(false.o)      appletlib.o (symbol from plugin) (false_main)
coreutils/lib.a(head.o)       appletlib.o (symbol from plugin) (head_main)
coreutils/lib.a(id.o)         appletlib.o (symbol from plugin) (id_main)
coreutils/lib.a(ln.o)         appletlib.o (symbol from plugin) (ln_main)
coreutils/lib.a(ls.o)         appletlib.o (symbol from plugin) (ls_main)
coreutils/lib.a(md5_sha1_sum.o)
                              appletlib.o (symbol from plugin) (md5_sha1_sum_main)
coreutils/lib.a(mkdir.o)      appletlib.o (symbol from plugin) (mkdir_main)
coreutils/lib.a(mkfifo.o)     appletlib.o (symbol from plugin) (mkfifo_main)
coreutils/lib.a(mknod.o)      appletlib.o (symbol from plugin) (mknod_main)
coreutils/lib.a(mktemp.o)     appletlib.o (symbol from plugin) (mktemp_main)
coreutils/lib.a(mv.o)         appletlib.o (symbol from plugin) (mv_main)
coreutils/lib.a(nice.o)       appletlib.o (symbol from plugin) (nice_main)
coreutils/lib.a(printf.o)     appletlib.o (symbol from plugin) (printf_main)
coreutils/lib.a(pwd.o)        appletlib.o (symbol from plugin) (pwd_main)
coreutils/lib.a(readlink.o)   appletlib.o (symbol from plugin) (readlink_main)
coreutils/lib.a(rm.o)         appletlib.o (symbol from plugin) (rm_main)
coreutils/lib.a(rmdir.o)      appletlib.o (symbol from plugin) (rmdir_main)
coreutils/lib.a(seq.o)        appletlib.o (symbol from plugin) (seq_main)
coreutils/lib.a(sleep.o)      appletlib.o (symbol from plugin) (sleep_main)
coreutils/lib.a(sort.o)       appletlib.o (symbol from plugin) (sort_main)
coreutils/lib.a(sync.o)       appletlib.o (symbol from plugin) (sync_main)
coreutils/lib.a(tail.o)       appletlib.o (symbol from plugin) (tail_main)
coreutils/lib.a(tee.o)        appletlib.o (symbol from plugin) (tee_main)
coreutils/lib.a(test.o)       appletlib.o (symbol from plugin) (test_main)
coreutils/lib.a(test_ptr_hack.o)
                              test.o (symbol from plugin) (test_ptr_to_statics)
coreutils/lib.a(touch.o)      appletlib.o (symbol from plugin) (touch_main)
coreutils/lib.a(tr.o)         appletlib.o (symbol from plugin) (tr_main)
coreutils/lib.a(true.o)       appletlib.o (symbol from plugin) (true_main)
coreutils/lib.a(uname.o)      appletlib.o (symbol from plugin) (uname_main)
coreutils/lib.a(uniq.o)       appletlib.o (symbol from plugin) (uniq_main)
coreutils/lib.a(wc.o)         appletlib.o (symbol from plugin) (wc_main)
coreutils/lib.a(yes.o)        appletlib.o (symbol from plugin) (yes_main)
coreutils/libcoreutils/lib.a(cp_mv_stat.o)
                              cp.o (symbol from plugin) (cp_mv_stat2)
coreutils/libcoreutils/lib.a(getopt_mk_fifo_nod.o)
                              mkfifo.o (symbol from plugin) (getopt_mk_fifo_nod)
debianutils/lib.a(start_stop_daemon.o)
                              appletlib.o (symbol from plugin) (start_stop_daemon_main)
debianutils/lib.a(which.o)    appletlib.o (symbol from plugin) (which_main)
editors/lib.a(awk.o)          appletlib.o (symbol from plugin) (awk_main)
editors/lib.a(cmp.o)          appletlib.o (symbol from plugin) (cmp_main)
editors/lib.a(sed.o)          appletlib.o (symbol from plugin) (sed_main)
editors/lib.a(vi.o)           appletlib.o (symbol from plugin) (vi_main)
findutils/lib.a(find.o)       appletlib.o (symbol from plugin) (find_main)
findutils/lib.a(grep.o)       appletlib.o (symbol from plugin) (grep_main)
findutils/lib.a(xargs.o)      appletlib.o (symbol from plugin) (xargs_main)
init/lib.a(halt.o)            appletlib.o (symbol from plugin) (halt_main)
libbb/lib.a(ask_confirmation.o)
                              xargs.o (symbol from plugin) (bb_ask_y_confirmation_FILE)
libbb/lib.a(auto_string.o)    interface.o (symbol from plugin) (auto_string)
libbb/lib.a(bb_askpass.o)     passwd.o (symbol from plugin) (bb_ask_noecho_stdin)
libbb/lib.a(bb_cat.o)         crontab.o (symbol from plugin) (bb_cat)
libbb/lib.a(bb_do_delay.o)    login.o (symbol from plugin) (pause_after_failed_login)
libbb/lib.a(bb_getgroups.o)   test.o (symbol from plugin) (bb_getgroups)
libbb/lib.a(bb_getsockname.o)
                              iplink.o (symbol from plugin) (bb_getsockname)
libbb/lib.a(bb_pwd.o)         passwd.o (symbol from plugin) (xgetpwnam)
libbb/lib.a(change_identity.o)
                              login.o (symbol from plugin) (change_identity)
libbb/lib.a(chomp.o)          netstat.o (symbol from plugin) (chomp)
libbb/lib.a(common_bufsiz.o)  login.o (symbol from plugin) (bb_common_bufsiz1)
libbb/lib.a(concat_subpath_file.o)
                              sysctl.o (symbol from plugin) (concat_subpath_file)
libbb/lib.a(copy_file.o)      cp.o (symbol from plugin) (copy_file)
libbb/lib.a(correct_password.o)
                              login.o (symbol from plugin) (ask_and_check_password)
libbb/lib.a(crc32.o)          decompress_gunzip.o (symbol from plugin) (crc32_new_table_le)
libbb/lib.a(dump.o)           hexdump.o (symbol from plugin) (alloc_dumper)
libbb/lib.a(duration.o)       ping.o (symbol from plugin) (parse_duration_str)
libbb/lib.a(endofname.o)      ash.o (symbol from plugin) (endofname)
libbb/lib.a(fclose_nonstdin.o)
                              strings.o (symbol from plugin) (fclose_if_not_stdin)
libbb/lib.a(fflush_stdout_and_exit.o)
                              strings.o (symbol from plugin) (fflush_stdout_and_exit)
libbb/lib.a(fgets_str.o)      netstat.o (symbol from plugin) (xmalloc_fgets_str)
libbb/lib.a(find_mount_point.o)
                              mount.o (symbol from plugin) (find_mount_point)
libbb/lib.a(find_pid_by_name.o)
                              kill.o (symbol from plugin) (find_pid_by_name)
libbb/lib.a(get_line_from_file.o)
                              sed.o (symbol from plugin) (bb_get_chunk_from_file)
libbb/lib.a(get_shell_name.o)
                              crond.o (symbol from plugin) (get_shell_name)
libbb/lib.a(get_volsize.o)    mkswap.o (symbol from plugin) (get_volume_size_in_bytes)
libbb/lib.a(getopt_allopts.o)
                              ps.o (symbol from plugin) (make_all_argv_opts)
libbb/lib.a(hash_md5_sha.o)   ntpd.o (symbol from plugin) (md5_begin)
libbb/lib.a(human_readable.o)
                              free.o (symbol from plugin) (make_human_readable_str)
libbb/lib.a(in_ether.o)       ifconfig.o (symbol from plugin) (in_ether)
libbb/lib.a(inet_cksum.o)     ping.o (symbol from plugin) (inet_cksum)
libbb/lib.a(inet_common.o)    interface.o (symbol from plugin) (INET_resolve)
libbb/lib.a(inode_hash.o)     du.o (symbol from plugin) (is_in_ino_dev_hashtable)
libbb/lib.a(isdirectory.o)    ln.o (symbol from plugin) (is_directory)
libbb/lib.a(iterate_on_dir.o)
                              switch_root.o (symbol from plugin) (iterate_on_dir)
libbb/lib.a(lineedit.o)       ash.o (symbol from plugin) (new_line_input_t)
libbb/lib.a(lineedit_ptr_hack.o)
                              lineedit.o (symbol from plugin) (lineedit_ptr_to_statics)
libbb/lib.a(login.o)          login.o (symbol from plugin) (print_login_prompt)
libbb/lib.a(loop.o)           mount.o (symbol from plugin) (del_loop)
libbb/lib.a(make_directory.o)
                              data_extract_all.o (symbol from plugin) (bb_make_directory)
libbb/lib.a(match_fstype.o)   mount.o (symbol from plugin) (fstype_matches)
libbb/lib.a(mode_string.o)    header_verbose_list.o (symbol from plugin) (bb_mode_string)
libbb/lib.a(nuke_str.o)       passwd.o (symbol from plugin) (nuke_str)
libbb/lib.a(obscure.o)        passwd.o (symbol from plugin) (obscure)
libbb/lib.a(parse_config.o)   rt_names.o (symbol from plugin) (config_open2)
libbb/lib.a(parse_mode.o)     ash.o (symbol from plugin) (bb_parse_mode)
libbb/lib.a(perror_nomsg_and_die.o)
                              flock.o (symbol from plugin) (bb_perror_nomsg_and_die)
libbb/lib.a(pidfile.o)        dhcpc.o (symbol from plugin) (write_pidfile)
libbb/lib.a(print_flags.o)    ipaddress.o (symbol from plugin) (print_flags_separated)
libbb/lib.a(printable.o)      netstat.o (symbol from plugin) (fputc_printable)
libbb/lib.a(printable_string.o)
                              ls.o (symbol from plugin) (printable_string2)
libbb/lib.a(process_escape_sequence.o)
                              ash.o (symbol from plugin) (bb_process_escape_sequence)
libbb/lib.a(procps.o)         top.o (symbol from plugin) (clear_username_cache)
libbb/lib.a(pw_encrypt.o)     passwd.o (symbol from plugin) (crypt_make_pw_salt)
libbb/lib.a(read_key.o)       lineedit.o (symbol from plugin) (read_key)
libbb/lib.a(read_printf.o)    ash.o (symbol from plugin) (nonblock_immune_read)
libbb/lib.a(recursive_action.o)
                              netstat.o (symbol from plugin) (recursive_action)
libbb/lib.a(remove_file.o)    mv.o (symbol from plugin) (remove_file)
libbb/lib.a(replace.o)        find.o (symbol from plugin) (count_strstr)
libbb/lib.a(rtc.o)            hwclock.o (symbol from plugin) (rtc_adjtime_is_utc)
libbb/lib.a(run_shell.o)      login.o (symbol from plugin) (exec_login_shell)
libbb/lib.a(safe_gethostname.o)
                              nslookup.o (symbol from plugin) (safe_gethostname)
libbb/lib.a(safe_poll.o)      less.o (symbol from plugin) (safe_poll)
libbb/lib.a(setup_environment.o)
                              login.o (symbol from plugin) (setup_environment)
libbb/lib.a(simplify_path.o)  mount.o (symbol from plugin) (bb_simplify_path)
libbb/lib.a(single_argv.o)    dirname.o (symbol from plugin) (single_argv)
libbb/lib.a(skip_whitespace.o)
                              interface.o (symbol from plugin) (skip_whitespace)
libbb/lib.a(str_tolower.o)    iplink.o (symbol from plugin) (str_tolower)
libbb/lib.a(sysconf.o)        route.o (symbol from plugin) (bb_clk_tck)
libbb/lib.a(trim.o)           common.o (symbol from plugin) (trim)
libbb/lib.a(u_signal_names.o)
                              kill.o (symbol from plugin) (get_signum)
libbb/lib.a(udp_io.o)         ntpd.o (symbol from plugin) (socket_want_pktinfo)
libbb/lib.a(update_passwd.o)  passwd.o (symbol from plugin) (update_passwd)
libbb/lib.a(wfopen.o)         interface.o (symbol from plugin) (fopen_or_warn)
libbb/lib.a(wfopen_input.o)   strings.o (symbol from plugin) (fopen_or_warn_stdin)
libbb/lib.a(xconnect.o)       ntpd.o (symbol from plugin) (setsockopt_int)
libbb/lib.a(xgetcwd.o)        pwd.o (symbol from plugin) (xrealloc_getcwd_or_warn)
libbb/lib.a(xreadlink.o)      netstat.o (symbol from plugin) (xmalloc_readlink)
libbb/lib.a(xrealloc_vector.o)
                              less.o (symbol from plugin) (xrealloc_vector_helper)
libbb/lib.a(xregcomp.o)       pgrep.o (symbol from plugin) (xregcomp)
libbb/lib.a(bb_bswap_64.o)    hash_md5_sha.o (symbol from plugin) (bb_bswap_64)
libbb/lib.a(bb_qsort.o)       lineedit.o (symbol from plugin) (qsort_string_vector)
libbb/lib.a(perror_nomsg.o)   update_passwd.o (symbol from plugin) (bb_perror_nomsg)
libpwdgrp/lib.a(uidgid_get.o)
                              chown.o (symbol from plugin) (parse_chown_usergroup_or_die)

Discarded input sections

 .data          0x00000000        0x0 /home/notlean/openwrt-uboost/staging_dir/toolchain-mipsel_24kc_gcc-12.3.0_musl/lib/gcc/mipsel-openwrt-linux-musl/12.3.0/../../../../mipsel-openwrt-linux-musl/lib/crt1.o
 .bss           0x00000000        0x0 /home/notlean/openwrt-uboost/staging_dir/toolchain-mipsel_24kc_gcc-12.3.0_musl/lib/gcc/mipsel-openwrt-linux-musl/12.3.0/../../../../mipsel-openwrt-linux-musl/lib/crt1.o
 .reginfo       0x00000000       0x18 /home/notlean/openwrt-uboost/staging_dir/toolchain-mipsel_24kc_gcc-12.3.0_musl/lib/gcc/mipsel-openwrt-linux-musl/12.3.0/../../../../mipsel-openwrt-linux-musl/lib/crt1.o
 .pdr           0x00000000       0x20 /home/notlean/openwrt-uboost/staging_dir/toolchain-mipsel_24kc_gcc-12.3.0_musl/lib/gcc/mipsel-openwrt-linux-musl/12.3.0/../../../../mipsel-openwrt-linux-musl/lib/crt1.o
 .note.GNU-stack
                0x00000000        0x0 /home/notlean/openwrt-uboost/staging_dir/toolchain-mipsel_24kc_gcc-12.3.0_musl/lib/gcc/mipsel-openwrt-linux-musl/12.3.0/../../../../mipsel-openwrt-linux-musl/lib/crt1.o
 .text          0x00000000        0x0 /home/notlean/openwrt-uboost/staging_dir/toolchain-mipsel_24kc_gcc-12.3.0_musl/lib/gcc/mipsel-openwrt-linux-musl/12.3.0/../../../../mipsel-openwrt-linux-musl/lib/crti.o
 .data          0x00000000        0x0 /home/notlean/openwrt-uboost/staging_dir/toolchain-mipsel_24kc_gcc-12.3.0_musl/lib/gcc/mipsel-openwrt-linux-musl/12.3.0/../../../../mipsel-openwrt-linux-musl/lib/crti.o
 .bss           0x00000000        0x0 /home/notlean/openwrt-uboost/staging_dir/toolchain-mipsel_24kc_gcc-12.3.0_musl/lib/gcc/mipsel-openwrt-linux-musl/12.3.0/../../../../mipsel-openwrt-linux-musl/lib/crti.o
 .reginfo       0x00000000       0x18 /home/notlean/openwrt-uboost/staging_dir/toolchain-mipsel_24kc_gcc-12.3.0_musl/lib/gcc/mipsel-openwrt-linux-musl/12.3.0/../../../../mipsel-openwrt-linux-musl/lib/crti.o
 .MIPS.abiflags
                0x00000000       0x18 /home/notlean/openwrt-uboost/staging_dir/toolchain-mipsel_24kc_gcc-12.3.0_musl/lib/gcc/mipsel-openwrt-linux-musl/12.3.0/../../../../mipsel-openwrt-linux-musl/lib/crti.o
 .note.GNU-stack
                0x00000000        0x0 /home/notlean/openwrt-uboost/staging_dir/toolchain-mipsel_24kc_gcc-12.3.0_musl/lib/gcc/mipsel-openwrt-linux-musl/12.3.0/../../../../mipsel-openwrt-linux-musl/lib/crti.o
 .data          0x00000000        0x0 /home/notlean/openwrt-uboost/staging_dir/toolchain-mipsel_24kc_gcc-12.3.0_musl/lib/gcc/mipsel-openwrt-linux-musl/12.3.0/crtbegin.o
 .reginfo       0x00000000       0x18 /home/notlean/openwrt-uboost/staging_dir/toolchain-mipsel_24kc_gcc-12.3.0_musl/lib/gcc/mipsel-openwrt-linux-musl/12.3.0/crtbegin.o
 .MIPS.abiflags
                0x00000000       0x18 /home/notlean/openwrt-uboost/staging_dir/toolchain-mipsel_24kc_gcc-12.3.0_musl/lib/gcc/mipsel-openwrt-linux-musl/12.3.0/crtbegin.o
 .sdata         0x00000000        0x4 /home/notlean/openwrt-uboost/staging_dir/toolchain-mipsel_24kc_gcc-12.3.0_musl/lib/gcc/mipsel-openwrt-linux-musl/12.3.0/crtbegin.o
 .note.GNU-stack
                0x00000000        0x0 /home/notlean/openwrt-uboost/staging_dir/toolchain-mipsel_24kc_gcc-12.3.0_musl/lib/gcc/mipsel-openwrt-linux-musl/12.3.0/crtbegin.o
 .text          0x00000000        0x0 /home/notlean/openwrt-uboost/tmp/ccV1QtaS.ltrans0.ltrans.o
 .data          0x00000000        0x0 /home/notlean/openwrt-uboost/tmp/ccV1QtaS.ltrans0.ltrans.o
 .bss           0x00000000        0x0 /home/notlean/openwrt-uboost/tmp/ccV1QtaS.ltrans0.ltrans.o
 .reginfo       0x00000000       0x18 /home/notlean/openwrt-uboost/tmp/ccV1QtaS.ltrans0.ltrans.o
 .MIPS.abiflags
                0x00000000       0x18 /home/notlean/openwrt-uboost/tmp/ccV1QtaS.ltrans0.ltrans.o
 .pdr           0x00000000     0x1ae0 /home/notlean/openwrt-uboost/tmp/ccV1QtaS.ltrans0.ltrans.o
 .note.GNU-stack
                0x00000000        0x0 /home/notlean/openwrt-uboost/tmp/ccV1QtaS.ltrans0.ltrans.o
 .text          0x00000000        0x0 /home/notlean/openwrt-uboost/tmp/ccV1QtaS.ltrans1.ltrans.o
 .data          0x00000000        0x0 /home/notlean/openwrt-uboost/tmp/ccV1QtaS.ltrans1.ltrans.o
 .bss           0x00000000        0x0 /home/notlean/openwrt-uboost/tmp/ccV1QtaS.ltrans1.ltrans.o
 .reginfo       0x00000000       0x18 /home/notlean/openwrt-uboost/tmp/ccV1QtaS.ltrans1.ltrans.o
 .MIPS.abiflags
                0x00000000       0x18 /home/notlean/openwrt-uboost/tmp/ccV1QtaS.ltrans1.ltrans.o
 .pdr           0x00000000      0xa60 /home/notlean/openwrt-uboost/tmp/ccV1QtaS.ltrans1.ltrans.o
 .note.GNU-stack
                0x00000000        0x0 /home/notlean/openwrt-uboost/tmp/ccV1QtaS.ltrans1.ltrans.o
 .text          0x00000000        0x0 /home/notlean/openwrt-uboost/tmp/ccV1QtaS.ltrans2.ltrans.o
 .data          0x00000000        0x0 /home/notlean/openwrt-uboost/tmp/ccV1QtaS.ltrans2.ltrans.o
 .bss           0x00000000        0x0 /home/notlean/openwrt-uboost/tmp/ccV1QtaS.ltrans2.ltrans.o
 .reginfo       0x00000000       0x18 /home/notlean/openwrt-uboost/tmp/ccV1QtaS.ltrans2.ltrans.o
 .MIPS.abiflags
                0x00000000       0x18 /home/notlean/openwrt-uboost/tmp/ccV1QtaS.ltrans2.ltrans.o
 .pdr           0x00000000     0x1640 /home/notlean/openwrt-uboost/tmp/ccV1QtaS.ltrans2.ltrans.o
 .note.GNU-stack
                0x00000000        0x0 /home/notlean/openwrt-uboost/tmp/ccV1QtaS.ltrans2.ltrans.o
 .text          0x00000000        0x0 /home/notlean/openwrt-uboost/tmp/ccV1QtaS.ltrans3.ltrans.o
 .data          0x00000000        0x0 /home/notlean/openwrt-uboost/tmp/ccV1QtaS.ltrans3.ltrans.o
 .bss           0x00000000        0x0 /home/notlean/openwrt-uboost/tmp/ccV1QtaS.ltrans3.ltrans.o
 .reginfo       0x00000000       0x18 /home/notlean/openwrt-uboost/tmp/ccV1QtaS.ltrans3.ltrans.o
 .MIPS.abiflags
                0x00000000       0x18 /home/notlean/openwrt-uboost/tmp/ccV1QtaS.ltrans3.ltrans.o
 .pdr           0x00000000      0xc60 /home/notlean/openwrt-uboost/tmp/ccV1QtaS.ltrans3.ltrans.o
 .note.GNU-stack
                0x00000000        0x0 /home/notlean/openwrt-uboost/tmp/ccV1QtaS.ltrans3.ltrans.o
 .text          0x00000000        0x0 /home/notlean/openwrt-uboost/tmp/ccV1QtaS.ltrans4.ltrans.o
 .data          0x00000000        0x0 /home/notlean/openwrt-uboost/tmp/ccV1QtaS.ltrans4.ltrans.o
 .bss           0x00000000        0x0 /home/notlean/openwrt-uboost/tmp/ccV1QtaS.ltrans4.ltrans.o
 .reginfo       0x00000000       0x18 /home/notlean/openwrt-uboost/tmp/ccV1QtaS.ltrans4.ltrans.o
 .MIPS.abiflags
                0x00000000       0x18 /home/notlean/openwrt-uboost/tmp/ccV1QtaS.ltrans4.ltrans.o
 .pdr           0x00000000      0xdc0 /home/notlean/openwrt-uboost/tmp/ccV1QtaS.ltrans4.ltrans.o
 .note.GNU-stack
                0x00000000        0x0 /home/notlean/openwrt-uboost/tmp/ccV1QtaS.ltrans4.ltrans.o
 .text          0x00000000        0x0 /home/notlean/openwrt-uboost/tmp/ccV1QtaS.ltrans5.ltrans.o
 .data          0x00000000        0x0 /home/notlean/openwrt-uboost/tmp/ccV1QtaS.ltrans5.ltrans.o
 .bss           0x00000000        0x0 /home/notlean/openwrt-uboost/tmp/ccV1QtaS.ltrans5.ltrans.o
 .reginfo       0x00000000       0x18 /home/notlean/openwrt-uboost/tmp/ccV1QtaS.ltrans5.ltrans.o
 .MIPS.abiflags
                0x00000000       0x18 /home/notlean/openwrt-uboost/tmp/ccV1QtaS.ltrans5.ltrans.o
 .pdr           0x00000000      0xf60 /home/notlean/openwrt-uboost/tmp/ccV1QtaS.ltrans5.ltrans.o
 .note.GNU-stack
                0x00000000        0x0 /home/notlean/openwrt-uboost/tmp/ccV1QtaS.ltrans5.ltrans.o
 .text          0x00000000        0x0 /home/notlean/openwrt-uboost/tmp/ccV1QtaS.ltrans6.ltrans.o
 .data          0x00000000        0x0 /home/notlean/openwrt-uboost/tmp/ccV1QtaS.ltrans6.ltrans.o
 .bss           0x00000000        0x0 /home/notlean/openwrt-uboost/tmp/ccV1QtaS.ltrans6.ltrans.o
 .reginfo       0x00000000       0x18 /home/notlean/openwrt-uboost/tmp/ccV1QtaS.ltrans6.ltrans.o
 .MIPS.abiflags
                0x00000000       0x18 /home/notlean/openwrt-uboost/tmp/ccV1QtaS.ltrans6.ltrans.o
 .pdr           0x00000000      0xe00 /home/notlean/openwrt-uboost/tmp/ccV1QtaS.ltrans6.ltrans.o
 .note.GNU-stack
                0x00000000        0x0 /home/notlean/openwrt-uboost/tmp/ccV1QtaS.ltrans6.ltrans.o
 .text          0x00000000        0x0 /home/notlean/openwrt-uboost/tmp/ccV1QtaS.ltrans7.ltrans.o
 .data          0x00000000        0x0 /home/notlean/openwrt-uboost/tmp/ccV1QtaS.ltrans7.ltrans.o
 .bss           0x00000000        0x0 /home/notlean/openwrt-uboost/tmp/ccV1QtaS.ltrans7.ltrans.o
 .reginfo       0x00000000       0x18 /home/notlean/openwrt-uboost/tmp/ccV1QtaS.ltrans7.ltrans.o
 .MIPS.abiflags
                0x00000000       0x18 /home/notlean/openwrt-uboost/tmp/ccV1QtaS.ltrans7.ltrans.o
 .pdr           0x00000000     0x1780 /home/notlean/openwrt-uboost/tmp/ccV1QtaS.ltrans7.ltrans.o
 .note.GNU-stack
                0x00000000        0x0 /home/notlean/openwrt-uboost/tmp/ccV1QtaS.ltrans7.ltrans.o
 .text          0x00000000        0x0 /home/notlean/openwrt-uboost/staging_dir/toolchain-mipsel_24kc_gcc-12.3.0_musl/lib/gcc/mipsel-openwrt-linux-musl/12.3.0/crtend.o
 .data          0x00000000        0x0 /home/notlean/openwrt-uboost/staging_dir/toolchain-mipsel_24kc_gcc-12.3.0_musl/lib/gcc/mipsel-openwrt-linux-musl/12.3.0/crtend.o
 .bss           0x00000000        0x0 /home/notlean/openwrt-uboost/staging_dir/toolchain-mipsel_24kc_gcc-12.3.0_musl/lib/gcc/mipsel-openwrt-linux-musl/12.3.0/crtend.o
 .reginfo       0x00000000       0x18 /home/notlean/openwrt-uboost/staging_dir/toolchain-mipsel_24kc_gcc-12.3.0_musl/lib/gcc/mipsel-openwrt-linux-musl/12.3.0/crtend.o
 .MIPS.abiflags
                0x00000000       0x18 /home/notlean/openwrt-uboost/staging_dir/toolchain-mipsel_24kc_gcc-12.3.0_musl/lib/gcc/mipsel-openwrt-linux-musl/12.3.0/crtend.o
 .note.GNU-stack
                0x00000000        0x0 /home/notlean/openwrt-uboost/staging_dir/toolchain-mipsel_24kc_gcc-12.3.0_musl/lib/gcc/mipsel-openwrt-linux-musl/12.3.0/crtend.o
 .text          0x00000000        0x0 /home/notlean/openwrt-uboost/staging_dir/toolchain-mipsel_24kc_gcc-12.3.0_musl/lib/gcc/mipsel-openwrt-linux-musl/12.3.0/../../../../mipsel-openwrt-linux-musl/lib/crtn.o
 .data          0x00000000        0x0 /home/notlean/openwrt-uboost/staging_dir/toolchain-mipsel_24kc_gcc-12.3.0_musl/lib/gcc/mipsel-openwrt-linux-musl/12.3.0/../../../../mipsel-openwrt-linux-musl/lib/crtn.o
 .bss           0x00000000        0x0 /home/notlean/openwrt-uboost/staging_dir/toolchain-mipsel_24kc_gcc-12.3.0_musl/lib/gcc/mipsel-openwrt-linux-musl/12.3.0/../../../../mipsel-openwrt-linux-musl/lib/crtn.o
 .reginfo       0x00000000       0x18 /home/notlean/openwrt-uboost/staging_dir/toolchain-mipsel_24kc_gcc-12.3.0_musl/lib/gcc/mipsel-openwrt-linux-musl/12.3.0/../../../../mipsel-openwrt-linux-musl/lib/crtn.o
 .MIPS.abiflags
                0x00000000       0x18 /home/notlean/openwrt-uboost/staging_dir/toolchain-mipsel_24kc_gcc-12.3.0_musl/lib/gcc/mipsel-openwrt-linux-musl/12.3.0/../../../../mipsel-openwrt-linux-musl/lib/crtn.o
 .note.GNU-stack
                0x00000000        0x0 /home/notlean/openwrt-uboost/staging_dir/toolchain-mipsel_24kc_gcc-12.3.0_musl/lib/gcc/mipsel-openwrt-linux-musl/12.3.0/../../../../mipsel-openwrt-linux-musl/lib/crtn.o

Memory Configuration

Name             Origin             Length             Attributes
*default*        0x00000000         0xffffffff

Linker script and memory map

LOAD /home/notlean/openwrt-uboost/staging_dir/toolchain-mipsel_24kc_gcc-12.3.0_musl/lib/gcc/mipsel-openwrt-linux-musl/12.3.0/../../../../mipsel-openwrt-linux-musl/lib/crt1.o
LOAD /home/notlean/openwrt-uboost/staging_dir/toolchain-mipsel_24kc_gcc-12.3.0_musl/lib/gcc/mipsel-openwrt-linux-musl/12.3.0/../../../../mipsel-openwrt-linux-musl/lib/crti.o
LOAD /home/notlean/openwrt-uboost/staging_dir/toolchain-mipsel_24kc_gcc-12.3.0_musl/lib/gcc/mipsel-openwrt-linux-musl/12.3.0/crtbegin.o
START GROUP
LOAD applets/built-in.o
LOAD /home/notlean/openwrt-uboost/tmp/ccV1QtaS.ltrans0.ltrans.o
LOAD /home/notlean/openwrt-uboost/tmp/ccV1QtaS.ltrans1.ltrans.o
LOAD /home/notlean/openwrt-uboost/tmp/ccV1QtaS.ltrans2.ltrans.o
LOAD /home/notlean/openwrt-uboost/tmp/ccV1QtaS.ltrans3.ltrans.o
LOAD /home/notlean/openwrt-uboost/tmp/ccV1QtaS.ltrans4.ltrans.o
LOAD /home/notlean/openwrt-uboost/tmp/ccV1QtaS.ltrans5.ltrans.o
LOAD /home/notlean/openwrt-uboost/tmp/ccV1QtaS.ltrans6.ltrans.o
LOAD /home/notlean/openwrt-uboost/tmp/ccV1QtaS.ltrans7.ltrans.o
LOAD archival/lib.a
LOAD archival/libarchive/lib.a
LOAD console-tools/lib.a
LOAD coreutils/lib.a
LOAD coreutils/libcoreutils/lib.a
LOAD debianutils/lib.a
LOAD klibc-utils/lib.a
LOAD e2fsprogs/lib.a
LOAD editors/lib.a
LOAD findutils/lib.a
LOAD init/lib.a
LOAD libbb/lib.a
LOAD libpwdgrp/lib.a
LOAD loginutils/lib.a
LOAD mailutils/lib.a
LOAD miscutils/lib.a
LOAD modutils/lib.a
LOAD networking/lib.a
LOAD networking/libiproute/lib.a
LOAD networking/udhcp/lib.a
LOAD printutils/lib.a
LOAD procps/lib.a
LOAD runit/lib.a
LOAD selinux/lib.a
LOAD shell/lib.a
LOAD sysklogd/lib.a
LOAD util-linux/lib.a
LOAD util-linux/volume_id/lib.a
LOAD archival/built-in.o
LOAD archival/libarchive/built-in.o
LOAD console-tools/built-in.o
LOAD coreutils/built-in.o
LOAD coreutils/libcoreutils/built-in.o
LOAD debianutils/built-in.o
LOAD klibc-utils/built-in.o
LOAD e2fsprogs/built-in.o
LOAD editors/built-in.o
LOAD findutils/built-in.o
LOAD init/built-in.o
LOAD libbb/built-in.o
LOAD libpwdgrp/built-in.o
LOAD loginutils/built-in.o
LOAD mailutils/built-in.o
LOAD miscutils/built-in.o
LOAD modutils/built-in.o
LOAD networking/built-in.o
LOAD networking/libiproute/built-in.o
LOAD networking/udhcp/built-in.o
LOAD printutils/built-in.o
LOAD procps/built-in.o
LOAD runit/built-in.o
LOAD selinux/built-in.o
LOAD shell/built-in.o
LOAD sysklogd/built-in.o
LOAD util-linux/built-in.o
LOAD util-linux/volume_id/built-in.o
END GROUP
LOAD /home/notlean/openwrt-uboost/staging_dir/toolchain-mipsel_24kc_gcc-12.3.0_musl/lib/libssp_nonshared.a
LOAD /home/notlean/openwrt-uboost/staging_dir/toolchain-mipsel_24kc_gcc-12.3.0_musl/lib/libgcc_s.so
START GROUP
LOAD /home/notlean/openwrt-uboost/staging_dir/toolchain-mipsel_24kc_gcc-12.3.0_musl/lib/libgcc_s.so.1
LOAD /home/notlean/openwrt-uboost/staging_dir/toolchain-mipsel_24kc_gcc-12.3.0_musl/lib/gcc/mipsel-openwrt-linux-musl/12.3.0/libgcc.a
END GROUP
LOAD /home/notlean/openwrt-uboost/staging_dir/toolchain-mipsel_24kc_gcc-12.3.0_musl/lib/libc.so
LOAD /home/notlean/openwrt-uboost/staging_dir/toolchain-mipsel_24kc_gcc-12.3.0_musl/lib/libgcc_s.so
START GROUP
LOAD /home/notlean/openwrt-uboost/staging_dir/toolchain-mipsel_24kc_gcc-12.3.0_musl/lib/libgcc_s.so.1
LOAD /home/notlean/openwrt-uboost/staging_dir/toolchain-mipsel_24kc_gcc-12.3.0_musl/lib/gcc/mipsel-openwrt-linux-musl/12.3.0/libgcc.a
END GROUP
LOAD /home/notlean/openwrt-uboost/staging_dir/toolchain-mipsel_24kc_gcc-12.3.0_musl/lib/gcc/mipsel-openwrt-linux-musl/12.3.0/crtend.o
LOAD /home/notlean/openwrt-uboost/staging_dir/toolchain-mipsel_24kc_gcc-12.3.0_musl/lib/gcc/mipsel-openwrt-linux-musl/12.3.0/../../../../mipsel-openwrt-linux-musl/lib/crtn.o
                [!provide]                        PROVIDE (__executable_start = SEGMENT_START ("text-segment", 0x400000))
                0x00400154                        . = (SEGMENT_START ("text-segment", 0x400000) + SIZEOF_HEADERS)

.interp         0x00400154       0x1c
 *(SORT_BY_ALIGNMENT(.interp))
 .interp        0x00400154       0x1c /home/notlean/openwrt-uboost/staging_dir/toolchain-mipsel_24kc_gcc-12.3.0_musl/lib/gcc/mipsel-openwrt-linux-musl/12.3.0/../../../../mipsel-openwrt-linux-musl/lib/crt1.o

.MIPS.abiflags  0x00400170       0x18
 *(SORT_BY_ALIGNMENT(.MIPS.abiflags))
 .MIPS.abiflags
                0x00400170       0x18 /home/notlean/openwrt-uboost/staging_dir/toolchain-mipsel_24kc_gcc-12.3.0_musl/lib/gcc/mipsel-openwrt-linux-musl/12.3.0/../../../../mipsel-openwrt-linux-musl/lib/crt1.o

.reginfo
 *(SORT_BY_ALIGNMENT(.reginfo))

.MIPS.xhash
 *(SORT_BY_ALIGNMENT(.MIPS.xhash))

.note.gnu.build-id
 *(SORT_BY_ALIGNMENT(.note.gnu.build-id))

.dynamic        0x00400188      0x150
 *(SORT_BY_ALIGNMENT(.dynamic))
 .dynamic       0x00400188      0x150 /home/notlean/openwrt-uboost/staging_dir/toolchain-mipsel_24kc_gcc-12.3.0_musl/lib/gcc/mipsel-openwrt-linux-musl/12.3.0/../../../../mipsel-openwrt-linux-musl/lib/crt1.o
                0x00400188                _DYNAMIC

.hash           0x004002d8      0x970
 *(SORT_BY_ALIGNMENT(.hash))
 .hash          0x004002d8      0x970 /home/notlean/openwrt-uboost/staging_dir/toolchain-mipsel_24kc_gcc-12.3.0_musl/lib/gcc/mipsel-openwrt-linux-musl/12.3.0/../../../../mipsel-openwrt-linux-musl/lib/crt1.o

.gnu.hash
 *(SORT_BY_ALIGNMENT(.gnu.hash))

.dynsym         0x00400c48     0x1530
 *(SORT_BY_ALIGNMENT(.dynsym))
 .dynsym        0x00400c48     0x1530 /home/notlean/openwrt-uboost/staging_dir/toolchain-mipsel_24kc_gcc-12.3.0_musl/lib/gcc/mipsel-openwrt-linux-musl/12.3.0/../../../../mipsel-openwrt-linux-musl/lib/crt1.o

.dynstr         0x00402178      0xb8a
 *(SORT_BY_ALIGNMENT(.dynstr))
 .dynstr        0x00402178      0xb8a /home/notlean/openwrt-uboost/staging_dir/toolchain-mipsel_24kc_gcc-12.3.0_musl/lib/gcc/mipsel-openwrt-linux-musl/12.3.0/../../../../mipsel-openwrt-linux-musl/lib/crt1.o

.gnu.version    0x00402d02      0x2a6
 *(SORT_BY_ALIGNMENT(.gnu.version))
 .gnu.version   0x00402d02      0x2a6 /home/notlean/openwrt-uboost/staging_dir/toolchain-mipsel_24kc_gcc-12.3.0_musl/lib/gcc/mipsel-openwrt-linux-musl/12.3.0/../../../../mipsel-openwrt-linux-musl/lib/crt1.o

.gnu.version_d  0x00402fa8        0x0
 *(SORT_BY_ALIGNMENT(.gnu.version_d))
 .gnu.version_d
                0x00402fa8        0x0 /home/notlean/openwrt-uboost/staging_dir/toolchain-mipsel_24kc_gcc-12.3.0_musl/lib/gcc/mipsel-openwrt-linux-musl/12.3.0/../../../../mipsel-openwrt-linux-musl/lib/crt1.o

.gnu.version_r  0x00402fa8       0x50
 *(SORT_BY_ALIGNMENT(.gnu.version_r))
 .gnu.version_r
                0x00402fa8       0x50 /home/notlean/openwrt-uboost/staging_dir/toolchain-mipsel_24kc_gcc-12.3.0_musl/lib/gcc/mipsel-openwrt-linux-musl/12.3.0/../../../../mipsel-openwrt-linux-musl/lib/crt1.o

.rel.dyn        0x00402ff8       0x40
 *(SORT_BY_ALIGNMENT(.rel.init))
 *(SORT_BY_ALIGNMENT(.rel.text) SORT_BY_ALIGNMENT(.rel.text.*) SORT_BY_ALIGNMENT(.rel.gnu.linkonce.t.*))
 *(SORT_BY_ALIGNMENT(.rel.fini))
 *(SORT_BY_ALIGNMENT(.rel.rodata) SORT_BY_ALIGNMENT(.rel.rodata.*) SORT_BY_ALIGNMENT(.rel.gnu.linkonce.r.*))
 *(SORT_BY_ALIGNMENT(.rel.data.rel.ro) SORT_BY_ALIGNMENT(.rel.data.rel.ro.*) SORT_BY_ALIGNMENT(.rel.gnu.linkonce.d.rel.ro.*))
 .rel.data.rel.ro
                0x00402ff8        0x0 /home/notlean/openwrt-uboost/staging_dir/toolchain-mipsel_24kc_gcc-12.3.0_musl/lib/gcc/mipsel-openwrt-linux-musl/12.3.0/../../../../mipsel-openwrt-linux-musl/lib/crt1.o
 *(SORT_BY_ALIGNMENT(.rel.data) SORT_BY_ALIGNMENT(.rel.data.*) SORT_BY_ALIGNMENT(.rel.gnu.linkonce.d.*))
 *(SORT_BY_ALIGNMENT(.rel.tdata) SORT_BY_ALIGNMENT(.rel.tdata.*) SORT_BY_ALIGNMENT(.rel.gnu.linkonce.td.*))
 *(SORT_BY_ALIGNMENT(.rel.tbss) SORT_BY_ALIGNMENT(.rel.tbss.*) SORT_BY_ALIGNMENT(.rel.gnu.linkonce.tb.*))
 *(SORT_BY_ALIGNMENT(.rel.ctors))
 *(SORT_BY_ALIGNMENT(.rel.dtors))
 *(SORT_BY_ALIGNMENT(.rel.got))
 *(SORT_BY_ALIGNMENT(.rel.dyn))
 .rel.dyn       0x00402ff8       0x40 /home/notlean/openwrt-uboost/staging_dir/toolchain-mipsel_24kc_gcc-12.3.0_musl/lib/gcc/mipsel-openwrt-linux-musl/12.3.0/../../../../mipsel-openwrt-linux-musl/lib/crt1.o
 *(SORT_BY_ALIGNMENT(.rel.sdata) SORT_BY_ALIGNMENT(.rel.sdata.*) SORT_BY_ALIGNMENT(.rel.gnu.linkonce.s.*))
 *(SORT_BY_ALIGNMENT(.rel.sbss) SORT_BY_ALIGNMENT(.rel.sbss.*) SORT_BY_ALIGNMENT(.rel.gnu.linkonce.sb.*))
 *(SORT_BY_ALIGNMENT(.rel.sdata2) SORT_BY_ALIGNMENT(.rel.sdata2.*) SORT_BY_ALIGNMENT(.rel.gnu.linkonce.s2.*))
 *(SORT_BY_ALIGNMENT(.rel.sbss2) SORT_BY_ALIGNMENT(.rel.sbss2.*) SORT_BY_ALIGNMENT(.rel.gnu.linkonce.sb2.*))
 *(SORT_BY_ALIGNMENT(.rel.bss) SORT_BY_ALIGNMENT(.rel.bss.*) SORT_BY_ALIGNMENT(.rel.gnu.linkonce.b.*))
 .rel.bss       0x00403038        0x0 /home/notlean/openwrt-uboost/staging_dir/toolchain-mipsel_24kc_gcc-12.3.0_musl/lib/gcc/mipsel-openwrt-linux-musl/12.3.0/../../../../mipsel-openwrt-linux-musl/lib/crt1.o
                [!provide]                        PROVIDE (__rel_iplt_start = .)
 *(SORT_BY_ALIGNMENT(.rel.iplt))
                [!provide]                        PROVIDE (__rel_iplt_end = .)

.rela.dyn       0x00403038        0x0
 *(SORT_BY_ALIGNMENT(.rela.init))
 *(SORT_BY_ALIGNMENT(.rela.text) SORT_BY_ALIGNMENT(.rela.text.*) SORT_BY_ALIGNMENT(.rela.gnu.linkonce.t.*))
 *(SORT_BY_ALIGNMENT(.rela.fini))
 *(SORT_BY_ALIGNMENT(.rela.rodata) SORT_BY_ALIGNMENT(.rela.rodata.*) SORT_BY_ALIGNMENT(.rela.gnu.linkonce.r.*))
 *(SORT_BY_ALIGNMENT(.rela.data) SORT_BY_ALIGNMENT(.rela.data.*) SORT_BY_ALIGNMENT(.rela.gnu.linkonce.d.*))
 *(SORT_BY_ALIGNMENT(.rela.tdata) SORT_BY_ALIGNMENT(.rela.tdata.*) SORT_BY_ALIGNMENT(.rela.gnu.linkonce.td.*))
 *(SORT_BY_ALIGNMENT(.rela.tbss) SORT_BY_ALIGNMENT(.rela.tbss.*) SORT_BY_ALIGNMENT(.rela.gnu.linkonce.tb.*))
 *(SORT_BY_ALIGNMENT(.rela.ctors))
 *(SORT_BY_ALIGNMENT(.rela.dtors))
 *(SORT_BY_ALIGNMENT(.rela.got))
 *(SORT_BY_ALIGNMENT(.rela.sdata) SORT_BY_ALIGNMENT(.rela.sdata.*) SORT_BY_ALIGNMENT(.rela.gnu.linkonce.s.*))
 *(SORT_BY_ALIGNMENT(.rela.sbss) SORT_BY_ALIGNMENT(.rela.sbss.*) SORT_BY_ALIGNMENT(.rela.gnu.linkonce.sb.*))
 *(SORT_BY_ALIGNMENT(.rela.sdata2) SORT_BY_ALIGNMENT(.rela.sdata2.*) SORT_BY_ALIGNMENT(.rela.gnu.linkonce.s2.*))
 *(SORT_BY_ALIGNMENT(.rela.sbss2) SORT_BY_ALIGNMENT(.rela.sbss2.*) SORT_BY_ALIGNMENT(.rela.gnu.linkonce.sb2.*))
 *(SORT_BY_ALIGNMENT(.rela.bss) SORT_BY_ALIGNMENT(.rela.bss.*) SORT_BY_ALIGNMENT(.rela.gnu.linkonce.b.*))
                [!provide]                        PROVIDE (__rela_iplt_start = .)
 *(SORT_BY_ALIGNMENT(.rela.iplt))
                [!provide]                        PROVIDE (__rela_iplt_end = .)

.rel.plt        0x00403038      0xa38
 *(SORT_BY_ALIGNMENT(.rel.plt))
 .rel.plt       0x00403038      0xa38 /home/notlean/openwrt-uboost/staging_dir/toolchain-mipsel_24kc_gcc-12.3.0_musl/lib/gcc/mipsel-openwrt-linux-musl/12.3.0/../../../../mipsel-openwrt-linux-musl/lib/crt1.o

.rela.plt
 *(SORT_BY_ALIGNMENT(.rela.plt))

.init           0x00403a70       0x1c
 *(SORT_NONE(.init))
 .init          0x00403a70        0xc /home/notlean/openwrt-uboost/staging_dir/toolchain-mipsel_24kc_gcc-12.3.0_musl/lib/gcc/mipsel-openwrt-linux-musl/12.3.0/../../../../mipsel-openwrt-linux-musl/lib/crti.o
                0x00403a70                _init
 .init          0x00403a7c       0x10 /home/notlean/openwrt-uboost/staging_dir/toolchain-mipsel_24kc_gcc-12.3.0_musl/lib/gcc/mipsel-openwrt-linux-musl/12.3.0/../../../../mipsel-openwrt-linux-musl/lib/crtn.o

.text           0x00403a90    0x38678
                0x00403a90                        _ftext = .
 *(SORT_BY_ALIGNMENT(.text.unlikely) SORT_BY_ALIGNMENT(.text.*_unlikely) SORT_BY_ALIGNMENT(.text.unlikely.*))
 *(SORT_BY_ALIGNMENT(.text.exit) SORT_BY_ALIGNMENT(.text.exit.*))
 *(SORT_BY_ALIGNMENT(.text.startup) SORT_BY_ALIGNMENT(.text.startup.*))
 *(SORT_BY_ALIGNMENT(.text.hot) SORT_BY_ALIGNMENT(.text.hot.*))
 *(SORT_BY_NAME(SORT_BY_ALIGNMENT(.text.sorted.*)))
 *(SORT_BY_ALIGNMENT(.text) SORT_BY_ALIGNMENT(.stub) SORT_BY_ALIGNMENT(.text.*) SORT_BY_ALIGNMENT(.gnu.linkonce.t.*))
 .text          0x00403a90       0x40 /home/notlean/openwrt-uboost/staging_dir/toolchain-mipsel_24kc_gcc-12.3.0_musl/lib/gcc/mipsel-openwrt-linux-musl/12.3.0/../../../../mipsel-openwrt-linux-musl/lib/crt1.o
                0x00403a90                __start
                0x00403a90                _start
 .text          0x00403ad0       0x90 /home/notlean/openwrt-uboost/staging_dir/toolchain-mipsel_24kc_gcc-12.3.0_musl/lib/gcc/mipsel-openwrt-linux-musl/12.3.0/crtbegin.o
 .text.my_SQRT  0x00403b60       0x88 /home/notlean/openwrt-uboost/tmp/ccV1QtaS.ltrans0.ltrans.o
 .text.bb_full_fd_action.lto_priv.0
                0x00403be8      0x150 /home/notlean/openwrt-uboost/tmp/ccV1QtaS.ltrans0.ltrans.o
                0x00403be9                bb_full_fd_action.lto_priv.0
 .text.passwd_main
                0x00403d38      0x4e0 /home/notlean/openwrt-uboost/tmp/ccV1QtaS.ltrans0.ltrans.o
 .text.brctl_main
                0x00404218      0x5f8 /home/notlean/openwrt-uboost/tmp/ccV1QtaS.ltrans0.ltrans.o
 .text.gettime1900d.lto_priv.0
                0x00404810       0x68 /home/notlean/openwrt-uboost/tmp/ccV1QtaS.ltrans0.ltrans.o
                0x00404811                gettime1900d.lto_priv.0
 .text.lfp_to_d.lto_priv.0
                0x00404878       0x50 /home/notlean/openwrt-uboost/tmp/ccV1QtaS.ltrans0.ltrans.o
                0x00404879                lfp_to_d.lto_priv.0
 .text.sfp_to_d.lto_priv.0
                0x004048c8       0x58 /home/notlean/openwrt-uboost/tmp/ccV1QtaS.ltrans0.ltrans.o
                0x004048c9                sfp_to_d.lto_priv.0
 .text.d_to_lfp.lto_priv.0
                0x00404920       0x58 /home/notlean/openwrt-uboost/tmp/ccV1QtaS.ltrans0.ltrans.o
                0x00404921                d_to_lfp.lto_priv.0
 .text.d_to_sfp.lto_priv.0
                0x00404978       0x58 /home/notlean/openwrt-uboost/tmp/ccV1QtaS.ltrans0.ltrans.o
                0x00404979                d_to_sfp.lto_priv.0
 .text.filter_datapoints.lto_priv.0
                0x004049d0      0x180 /home/notlean/openwrt-uboost/tmp/ccV1QtaS.ltrans0.ltrans.o
                0x004049d1                filter_datapoints.lto_priv.0
 .text.step_time
                0x00404b50      0x260 /home/notlean/openwrt-uboost/tmp/ccV1QtaS.ltrans0.ltrans.o
 .text.select_and_cluster.lto_priv.0
                0x00404db0      0x5b0 /home/notlean/openwrt-uboost/tmp/ccV1QtaS.ltrans0.ltrans.o
                0x00404db1                select_and_cluster.lto_priv.0
 .text.update_local_clock.lto_priv.0
                0x00405360      0x398 /home/notlean/openwrt-uboost/tmp/ccV1QtaS.ltrans0.ltrans.o
                0x00405361                update_local_clock.lto_priv.0
 .text.recv_and_process_peer_pkt
                0x004056f8      0x3e8 /home/notlean/openwrt-uboost/tmp/ccV1QtaS.ltrans1.ltrans.o
 .text.ntp_init
                0x00405ae0      0x288 /home/notlean/openwrt-uboost/tmp/ccV1QtaS.ltrans1.ltrans.o
 .text.ntpd_main
                0x00405d68      0x460 /home/notlean/openwrt-uboost/tmp/ccV1QtaS.ltrans1.ltrans.o
                0x00405d69                ntpd_main
 .text.subevalvar
                0x004061c8      0x600 /home/notlean/openwrt-uboost/tmp/ccV1QtaS.ltrans2.ltrans.o
 .text.hexdump_main
                0x004067c8      0x1a0 /home/notlean/openwrt-uboost/tmp/ccV1QtaS.ltrans3.ltrans.o
                0x004067c9                hexdump_main
 .text.mkswap_main
                0x00406968      0x160 /home/notlean/openwrt-uboost/tmp/ccV1QtaS.ltrans3.ltrans.o
                0x00406969                mkswap_main
 .text.nice_main
                0x00406ac8       0xf0 /home/notlean/openwrt-uboost/tmp/ccV1QtaS.ltrans5.ltrans.o
                0x00406ac9                nice_main
 .text.conv_strtod
                0x00406bb8       0x38 /home/notlean/openwrt-uboost/tmp/ccV1QtaS.ltrans5.ltrans.o
 .text.getvar_i
                0x00406bf0       0x70 /home/notlean/openwrt-uboost/tmp/ccV1QtaS.ltrans5.ltrans.o
 .text.getvar_i_int
                0x00406c60       0x48 /home/notlean/openwrt-uboost/tmp/ccV1QtaS.ltrans5.ltrans.o
 .text.istrue   0x00406ca8       0x48 /home/notlean/openwrt-uboost/tmp/ccV1QtaS.ltrans5.ltrans.o
 .text.seq_main
                0x00406cf0      0x1b8 /home/notlean/openwrt-uboost/tmp/ccV1QtaS.ltrans5.ltrans.o
                0x00406cf1                seq_main
 .text.incvar   0x00406ea8       0x30 /home/notlean/openwrt-uboost/tmp/ccV1QtaS.ltrans5.ltrans.o
 .text.next_input_file
                0x00406ed8       0xc0 /home/notlean/openwrt-uboost/tmp/ccV1QtaS.ltrans5.ltrans.o
 .text.evaluate.lto_priv.0
                0x00406f98      0xc90 /home/notlean/openwrt-uboost/tmp/ccV1QtaS.ltrans5.ltrans.o
                0x00406f99                evaluate.lto_priv.0
 .text.exec_builtin
                0x00407c28      0x3d0 /home/notlean/openwrt-uboost/tmp/ccV1QtaS.ltrans5.ltrans.o
 .text.awk_main
                0x00407ff8      0x358 /home/notlean/openwrt-uboost/tmp/ccV1QtaS.ltrans5.ltrans.o
                0x00407ff9                awk_main
 .text.file_insert
                0x00408350      0x110 /home/notlean/openwrt-uboost/tmp/ccV1QtaS.ltrans6.ltrans.o
 .text._start_c
                0x00408460       0x40 /home/notlean/openwrt-uboost/staging_dir/toolchain-mipsel_24kc_gcc-12.3.0_musl/lib/gcc/mipsel-openwrt-linux-musl/12.3.0/../../../../mipsel-openwrt-linux-musl/lib/crt1.o
                0x00408460                _start_c
 .text.record_signo
                0x004084a0        0xc /home/notlean/openwrt-uboost/tmp/ccV1QtaS.ltrans0.ltrans.o
                0x004084a1                record_signo
 .text.at_end   0x004084ac       0x1c /home/notlean/openwrt-uboost/tmp/ccV1QtaS.ltrans0.ltrans.o
 .text.cap_cur_fline
                0x004084c8       0x28 /home/notlean/openwrt-uboost/tmp/ccV1QtaS.ltrans0.ltrans.o
 .text.ptok     0x004084f0       0x28 /home/notlean/openwrt-uboost/tmp/ccV1QtaS.ltrans0.ltrans.o
 .text.prg_cache_get
                0x00408518       0x30 /home/notlean/openwrt-uboost/tmp/ccV1QtaS.ltrans0.ltrans.o
 .text.compare_point_edge
                0x00408548       0x3c /home/notlean/openwrt-uboost/tmp/ccV1QtaS.ltrans0.ltrans.o
 .text.compare_survivor_metric
                0x00408584       0x3c /home/notlean/openwrt-uboost/tmp/ccV1QtaS.ltrans0.ltrans.o
 .text.bb_get_last_path_component_nostrip
                0x004085c0       0x20 /home/notlean/openwrt-uboost/tmp/ccV1QtaS.ltrans0.ltrans.o
 .text.jump     0x004085e0       0x1c /home/notlean/openwrt-uboost/tmp/ccV1QtaS.ltrans0.ltrans.o
 .text.delete_cronfile
                0x004085fc       0x70 /home/notlean/openwrt-uboost/tmp/ccV1QtaS.ltrans0.ltrans.o
 .text.clear_line
                0x0040866c       0x1c /home/notlean/openwrt-uboost/tmp/ccV1QtaS.ltrans0.ltrans.o
 .text.print_statusline
                0x00408688       0x24 /home/notlean/openwrt-uboost/tmp/ccV1QtaS.ltrans0.ltrans.o
 .text.show_bridge_timer
                0x004086ac       0x50 /home/notlean/openwrt-uboost/tmp/ccV1QtaS.ltrans0.ltrans.o
 .text.print_bytes_scaled
                0x004086fc       0x60 /home/notlean/openwrt-uboost/tmp/ccV1QtaS.ltrans0.ltrans.o
 .text.status_print
                0x0040875c       0x58 /home/notlean/openwrt-uboost/tmp/ccV1QtaS.ltrans0.ltrans.o
 .text.exit_unlock
                0x004087b4       0x18 /home/notlean/openwrt-uboost/tmp/ccV1QtaS.ltrans0.ltrans.o
 .text.lock_main
                0x004087cc      0x1e8 /home/notlean/openwrt-uboost/tmp/ccV1QtaS.ltrans0.ltrans.o
 .text.compare_fdbs
                0x004089b4        0xc /home/notlean/openwrt-uboost/tmp/ccV1QtaS.ltrans0.ltrans.o
 .text.add_ns   0x004089c0       0x3c /home/notlean/openwrt-uboost/tmp/ccV1QtaS.ltrans0.ltrans.o
 .text.INET_sprint
                0x004089fc       0x2c /home/notlean/openwrt-uboost/tmp/ccV1QtaS.ltrans0.ltrans.o
 .text.INET_input
                0x00408a28        0xc /home/notlean/openwrt-uboost/tmp/ccV1QtaS.ltrans0.ltrans.o
 .text.INET6_input
                0x00408a34        0xc /home/notlean/openwrt-uboost/tmp/ccV1QtaS.ltrans0.ltrans.o
 .text.netmsg_main
                0x00408a40      0x104 /home/notlean/openwrt-uboost/tmp/ccV1QtaS.ltrans0.ltrans.o
 .text.build_ipv6_addr
                0x00408b44       0x54 /home/notlean/openwrt-uboost/tmp/ccV1QtaS.ltrans0.ltrans.o
 .text.scan_inet_proc_line
                0x00408b98       0x90 /home/notlean/openwrt-uboost/tmp/ccV1QtaS.ltrans0.ltrans.o
 .text.parse_reply
                0x00408c28      0x348 /home/notlean/openwrt-uboost/tmp/ccV1QtaS.ltrans0.ltrans.o
 .text.add_query
                0x00408f70       0x54 /home/notlean/openwrt-uboost/tmp/ccV1QtaS.ltrans0.ltrans.o
 .text.string_array_len
                0x00408fc4       0x10 /home/notlean/openwrt-uboost/tmp/ccV1QtaS.ltrans0.ltrans.o
                0x00408fc5                string_array_len
 .text.find_applet_by_name
                0x00408fd4       0x7c /home/notlean/openwrt-uboost/tmp/ccV1QtaS.ltrans0.ltrans.o
                0x00408fd5                find_applet_by_name
 .text.is_prefixed_with
                0x00409050       0x18 /home/notlean/openwrt-uboost/tmp/ccV1QtaS.ltrans0.ltrans.o
                0x00409051                is_prefixed_with
 .text.index_in_strings
                0x00409068       0x28 /home/notlean/openwrt-uboost/tmp/ccV1QtaS.ltrans0.ltrans.o
                0x00409069                index_in_strings
 .text.index_in_substrings
                0x00409090       0x58 /home/notlean/openwrt-uboost/tmp/ccV1QtaS.ltrans0.ltrans.o
                0x00409091                index_in_substrings
 .text.nth_string
                0x004090e8       0x14 /home/notlean/openwrt-uboost/tmp/ccV1QtaS.ltrans0.ltrans.o
                0x004090e9                nth_string
 .text.bb_basename
                0x004090fc       0x14 /home/notlean/openwrt-uboost/tmp/ccV1QtaS.ltrans0.ltrans.o
                0x004090fd                bb_basename
 .text.last_char_is
                0x00409110       0x20 /home/notlean/openwrt-uboost/tmp/ccV1QtaS.ltrans0.ltrans.o
                0x00409111                last_char_is
 .text.bb_get_last_path_component_strip
                0x00409130       0x28 /home/notlean/openwrt-uboost/tmp/ccV1QtaS.ltrans0.ltrans.o
                0x00409131                bb_get_last_path_component_strip
 .text.unix_do_one
                0x00409158      0x250 /home/notlean/openwrt-uboost/tmp/ccV1QtaS.ltrans0.ltrans.o
 .text.xfunc_die
                0x004093a8       0x1c /home/notlean/openwrt-uboost/tmp/ccV1QtaS.ltrans0.ltrans.o
                0x004093a9                xfunc_die
 .text.bb_show_usage
                0x004093c4       0x8c /home/notlean/openwrt-uboost/tmp/ccV1QtaS.ltrans0.ltrans.o
                0x004093c5                bb_show_usage
 .text.show_usage_if_dash_dash_help
                0x00409450       0x40 /home/notlean/openwrt-uboost/tmp/ccV1QtaS.ltrans0.ltrans.o
 .text.ip_print_help
                0x00409490        0x8 /home/notlean/openwrt-uboost/tmp/ccV1QtaS.ltrans0.ltrans.o
 .text.ip_main  0x00409498       0xd0 /home/notlean/openwrt-uboost/tmp/ccV1QtaS.ltrans0.ltrans.o
 .text.run_applet_no_and_exit
                0x00409568       0x3c /home/notlean/openwrt-uboost/tmp/ccV1QtaS.ltrans0.ltrans.o
 .text.main     0x004095a4       0xa4 /home/notlean/openwrt-uboost/tmp/ccV1QtaS.ltrans0.ltrans.o
                0x004095a5                main
 .text.ndelay_on
                0x00409648       0x24 /home/notlean/openwrt-uboost/tmp/ccV1QtaS.ltrans0.ltrans.o
                0x00409649                ndelay_on
 .text.close_on_exec_on
                0x0040966c       0x10 /home/notlean/openwrt-uboost/tmp/ccV1QtaS.ltrans0.ltrans.o
                0x0040966d                close_on_exec_on
 .text.utoa_to_buf
                0x0040967c       0x4c /home/notlean/openwrt-uboost/tmp/ccV1QtaS.ltrans0.ltrans.o
                0x0040967d                utoa_to_buf
 .text.utoa     0x004096c8       0x18 /home/notlean/openwrt-uboost/tmp/ccV1QtaS.ltrans0.ltrans.o
                0x004096c9                utoa
 .text.itoa     0x004096e0       0x30 /home/notlean/openwrt-uboost/tmp/ccV1QtaS.ltrans0.ltrans.o
                0x004096e1                itoa
 .text.bin2hex  0x00409710       0x50 /home/notlean/openwrt-uboost/tmp/ccV1QtaS.ltrans0.ltrans.o
                0x00409711                bin2hex
 .text.get_terminal_width_height
                0x00409760       0x80 /home/notlean/openwrt-uboost/tmp/ccV1QtaS.ltrans0.ltrans.o
                0x00409761                get_terminal_width_height
 .text.is_TERM_dumb
                0x004097e0       0x2c /home/notlean/openwrt-uboost/tmp/ccV1QtaS.ltrans0.ltrans.o
                0x004097e1                is_TERM_dumb
 .text.safe_waitpid
                0x0040980c       0x28 /home/notlean/openwrt-uboost/tmp/ccV1QtaS.ltrans0.ltrans.o
                0x0040980d                safe_waitpid
 .text.wait4pid
                0x00409834       0x40 /home/notlean/openwrt-uboost/tmp/ccV1QtaS.ltrans0.ltrans.o
 .text._exit_SUCCESS
                0x00409874        0x8 /home/notlean/openwrt-uboost/tmp/ccV1QtaS.ltrans0.ltrans.o
                0x00409875                _exit_SUCCESS
 .text.fflush_all
                0x0040987c        0xc /home/notlean/openwrt-uboost/tmp/ccV1QtaS.ltrans0.ltrans.o
                0x0040987d                fflush_all
 .text.run_nofork_applet
                0x00409888      0x19c /home/notlean/openwrt-uboost/tmp/ccV1QtaS.ltrans0.ltrans.o
 .text.spawn    0x00409a24       0x50 /home/notlean/openwrt-uboost/tmp/ccV1QtaS.ltrans0.ltrans.o
 .text.spawn_and_wait
                0x00409a74       0xa4 /home/notlean/openwrt-uboost/tmp/ccV1QtaS.ltrans0.ltrans.o
                0x00409a75                spawn_and_wait
 .text.alarm_handler
                0x00409b18       0x34 /home/notlean/openwrt-uboost/tmp/ccV1QtaS.ltrans0.ltrans.o
 .text.set_tty_cooked
                0x00409b4c       0x20 /home/notlean/openwrt-uboost/tmp/ccV1QtaS.ltrans0.ltrans.o
 .text.restore_tty
                0x00409b6c       0x28 /home/notlean/openwrt-uboost/tmp/ccV1QtaS.ltrans0.ltrans.o
 .text.less_exit
                0x00409b94       0x10 /home/notlean/openwrt-uboost/tmp/ccV1QtaS.ltrans0.ltrans.o
 .text.buffer_print
                0x00409ba4      0x178 /home/notlean/openwrt-uboost/tmp/ccV1QtaS.ltrans0.ltrans.o
 .text.buffer_fill_and_print
                0x00409d1c       0x4c /home/notlean/openwrt-uboost/tmp/ccV1QtaS.ltrans0.ltrans.o
 .text.file_is_executable
                0x00409d68       0x34 /home/notlean/openwrt-uboost/tmp/ccV1QtaS.ltrans0.ltrans.o
                0x00409d69                file_is_executable
 .text.llist_pop
                0x00409d9c       0x1c /home/notlean/openwrt-uboost/tmp/ccV1QtaS.ltrans0.ltrans.o
                0x00409d9d                llist_pop
 .text.safe_read
                0x00409db8       0x2c /home/notlean/openwrt-uboost/tmp/ccV1QtaS.ltrans0.ltrans.o
                0x00409db9                safe_read
 .text.full_read
                0x00409de4       0x30 /home/notlean/openwrt-uboost/tmp/ccV1QtaS.ltrans0.ltrans.o
                0x00409de5                full_read
 .text.open_read_close
                0x00409e14       0x2c /home/notlean/openwrt-uboost/tmp/ccV1QtaS.ltrans0.ltrans.o
                0x00409e15                open_read_close
 .text.read_file
                0x00409e40       0x3c /home/notlean/openwrt-uboost/tmp/ccV1QtaS.ltrans0.ltrans.o
 .text.show_bridge
                0x00409e7c      0x12c /home/notlean/openwrt-uboost/tmp/ccV1QtaS.ltrans0.ltrans.o
 .text.safe_strncpy
                0x00409fa8       0x1c /home/notlean/openwrt-uboost/tmp/ccV1QtaS.ltrans0.ltrans.o
                0x00409fa9                safe_strncpy
 .text.overlapping_strcpy
                0x00409fc4       0x14 /home/notlean/openwrt-uboost/tmp/ccV1QtaS.ltrans0.ltrans.o
                0x00409fc5                overlapping_strcpy
 .text.safe_write
                0x00409fd8       0x2c /home/notlean/openwrt-uboost/tmp/ccV1QtaS.ltrans0.ltrans.o
                0x00409fd9                safe_write
 .text.full_write
                0x0040a004       0x30 /home/notlean/openwrt-uboost/tmp/ccV1QtaS.ltrans0.ltrans.o
                0x0040a005                full_write
 .text.bb_signals
                0x0040a034       0x2c /home/notlean/openwrt-uboost/tmp/ccV1QtaS.ltrans0.ltrans.o
                0x0040a035                bb_signals
 .text.kill_myself_with_sig
                0x0040a060       0x34 /home/notlean/openwrt-uboost/tmp/ccV1QtaS.ltrans0.ltrans.o
                0x0040a061                kill_myself_with_sig
 .text.sig_catcher
                0x0040a094       0x10 /home/notlean/openwrt-uboost/tmp/ccV1QtaS.ltrans0.ltrans.o
 .text.strftime_fmt.lto_priv.0
                0x0040a0a4       0x30 /home/notlean/openwrt-uboost/tmp/ccV1QtaS.ltrans0.ltrans.o
                0x0040a0a5                strftime_fmt.lto_priv.0
 .text.bb_verror_msg
                0x0040a0d4      0x174 /home/notlean/openwrt-uboost/tmp/ccV1QtaS.ltrans0.ltrans.o
                0x0040a0d5                bb_verror_msg
 .text.ioctl_or_perror_and_die
                0x0040a248       0x34 /home/notlean/openwrt-uboost/tmp/ccV1QtaS.ltrans0.ltrans.o
 .text.bb_perror_msg
                0x0040a27c       0x30 /home/notlean/openwrt-uboost/tmp/ccV1QtaS.ltrans0.ltrans.o
                0x0040a27d                bb_perror_msg
 .text.open3_or_warn
                0x0040a2ac       0x20 /home/notlean/openwrt-uboost/tmp/ccV1QtaS.ltrans0.ltrans.o
                0x0040a2ad                open3_or_warn
 .text.chdir_or_warn
                0x0040a2cc       0x20 /home/notlean/openwrt-uboost/tmp/ccV1QtaS.ltrans0.ltrans.o
                0x0040a2cd                chdir_or_warn
 .text.xchdir   0x0040a2ec       0x14 /home/notlean/openwrt-uboost/tmp/ccV1QtaS.ltrans0.ltrans.o
                0x0040a2ed                xchdir
 .text.bb_simple_perror_msg
                0x0040a300       0x14 /home/notlean/openwrt-uboost/tmp/ccV1QtaS.ltrans0.ltrans.o
                0x0040a301                bb_simple_perror_msg
 .text.bb_copyfd_eof
                0x0040a314       0x10 /home/notlean/openwrt-uboost/tmp/ccV1QtaS.ltrans0.ltrans.o
                0x0040a315                bb_copyfd_eof
 .text.bb_perror_msg_and_die
                0x0040a324       0x30 /home/notlean/openwrt-uboost/tmp/ccV1QtaS.ltrans0.ltrans.o
                0x0040a325                bb_perror_msg_and_die
 .text.xfopen   0x0040a354       0x1c /home/notlean/openwrt-uboost/tmp/ccV1QtaS.ltrans0.ltrans.o
                0x0040a355                xfopen
 .text.xopen3   0x0040a370       0x1c /home/notlean/openwrt-uboost/tmp/ccV1QtaS.ltrans0.ltrans.o
                0x0040a371                xopen3
 .text.xopen    0x0040a38c       0x10 /home/notlean/openwrt-uboost/tmp/ccV1QtaS.ltrans0.ltrans.o
                0x0040a38d                xopen
 .text.xrename  0x0040a39c       0x20 /home/notlean/openwrt-uboost/tmp/ccV1QtaS.ltrans0.ltrans.o
                0x0040a39d                xrename
 .text.xlseek   0x0040a3bc       0x2c /home/notlean/openwrt-uboost/tmp/ccV1QtaS.ltrans0.ltrans.o
                0x0040a3bd                xlseek
 .text.xchroot  0x0040a3e8       0x28 /home/notlean/openwrt-uboost/tmp/ccV1QtaS.ltrans0.ltrans.o
                0x0040a3e9                xchroot
 .text.xopendir
                0x0040a410       0x1c /home/notlean/openwrt-uboost/tmp/ccV1QtaS.ltrans0.ltrans.o
                0x0040a411                xopendir
 .text.xsocket  0x0040a42c       0x48 /home/notlean/openwrt-uboost/tmp/ccV1QtaS.ltrans0.ltrans.o
                0x0040a42d                xsocket
 .text.xstat    0x0040a474       0x1c /home/notlean/openwrt-uboost/tmp/ccV1QtaS.ltrans0.ltrans.o
                0x0040a475                xstat
 .text.BB_EXECVP_or_die
                0x0040a490       0x34 /home/notlean/openwrt-uboost/tmp/ccV1QtaS.ltrans0.ltrans.o
                0x0040a491                BB_EXECVP_or_die
 .text.bb_simple_perror_msg_and_die
                0x0040a4c4       0x10 /home/notlean/openwrt-uboost/tmp/ccV1QtaS.ltrans0.ltrans.o
                0x0040a4c5                bb_simple_perror_msg_and_die
 .text.xpipe    0x0040a4d4       0x1c /home/notlean/openwrt-uboost/tmp/ccV1QtaS.ltrans0.ltrans.o
                0x0040a4d5                xpipe
 .text.xdup2    0x0040a4f0       0x1c /home/notlean/openwrt-uboost/tmp/ccV1QtaS.ltrans0.ltrans.o
                0x0040a4f1                xdup2
 .text.bb_daemonize_or_rexec
                0x0040a50c       0xac /home/notlean/openwrt-uboost/tmp/ccV1QtaS.ltrans0.ltrans.o
                0x0040a50d                bb_daemonize_or_rexec
 .text.xmove_fd
                0x0040a5b8       0x18 /home/notlean/openwrt-uboost/tmp/ccV1QtaS.ltrans0.ltrans.o
                0x0040a5b9                xmove_fd
 .text.reopen_logfile_to_stderr
                0x0040a5d0       0x2c /home/notlean/openwrt-uboost/tmp/ccV1QtaS.ltrans0.ltrans.o
 .text.xwrite   0x0040a5fc       0x2c /home/notlean/openwrt-uboost/tmp/ccV1QtaS.ltrans0.ltrans.o
                0x0040a5fd                xwrite
 .text.xclose   0x0040a628       0x1c /home/notlean/openwrt-uboost/tmp/ccV1QtaS.ltrans0.ltrans.o
                0x0040a629                xclose
 .text.xsetgid  0x0040a644       0x1c /home/notlean/openwrt-uboost/tmp/ccV1QtaS.ltrans0.ltrans.o
                0x0040a645                xsetgid
 .text.xsetuid  0x0040a660       0x1c /home/notlean/openwrt-uboost/tmp/ccV1QtaS.ltrans0.ltrans.o
                0x0040a661                xsetuid
 .text.xbind    0x0040a67c       0x1c /home/notlean/openwrt-uboost/tmp/ccV1QtaS.ltrans0.ltrans.o
                0x0040a67d                xbind
 .text.xsendto  0x0040a698       0x24 /home/notlean/openwrt-uboost/tmp/ccV1QtaS.ltrans0.ltrans.o
                0x0040a699                xsendto
 .text.xsettimeofday
                0x0040a6bc       0x1c /home/notlean/openwrt-uboost/tmp/ccV1QtaS.ltrans0.ltrans.o
                0x0040a6bd                xsettimeofday
 .text.write_uint
                0x0040a6d8       0x54 /home/notlean/openwrt-uboost/tmp/ccV1QtaS.ltrans0.ltrans.o
 .text.edit_file
                0x0040a72c       0x94 /home/notlean/openwrt-uboost/tmp/ccV1QtaS.ltrans0.ltrans.o
 .text.log8     0x0040a7c0       0x20 /home/notlean/openwrt-uboost/tmp/ccV1QtaS.ltrans0.ltrans.o
 .text.log5     0x0040a7e0       0x20 /home/notlean/openwrt-uboost/tmp/ccV1QtaS.ltrans0.ltrans.o
 .text.bb_error_msg_and_die
                0x0040a800       0x14 /home/notlean/openwrt-uboost/tmp/ccV1QtaS.ltrans0.ltrans.o
                0x0040a801                bb_error_msg_and_die
 .text.die_if_ferror
                0x0040a814       0x1c /home/notlean/openwrt-uboost/tmp/ccV1QtaS.ltrans0.ltrans.o
                0x0040a815                die_if_ferror
 .text.parse_datestr
                0x0040a830      0x328 /home/notlean/openwrt-uboost/tmp/ccV1QtaS.ltrans0.ltrans.o
                0x0040a831                parse_datestr
 .text.bb_error_msg
                0x0040ab58       0x14 /home/notlean/openwrt-uboost/tmp/ccV1QtaS.ltrans0.ltrans.o
                0x0040ab59                bb_error_msg
 .text.ParseField
                0x0040ab6c      0x170 /home/notlean/openwrt-uboost/tmp/ccV1QtaS.ltrans0.ltrans.o
 .text.do_if_fetch
                0x0040acdc      0x1f0 /home/notlean/openwrt-uboost/tmp/ccV1QtaS.ltrans0.ltrans.o
 .text.bb_simple_error_msg
                0x0040aecc       0x14 /home/notlean/openwrt-uboost/tmp/ccV1QtaS.ltrans0.ltrans.o
                0x0040aecd                bb_simple_error_msg
 .text.bb_simple_error_msg_and_die
                0x0040aee0       0x10 /home/notlean/openwrt-uboost/tmp/ccV1QtaS.ltrans0.ltrans.o
                0x0040aee1                bb_simple_error_msg_and_die
 .text.bb_die_memory_exhausted
                0x0040aef0       0x10 /home/notlean/openwrt-uboost/tmp/ccV1QtaS.ltrans0.ltrans.o
                0x0040aef1                bb_die_memory_exhausted
 .text.xmalloc  0x0040af00       0x18 /home/notlean/openwrt-uboost/tmp/ccV1QtaS.ltrans0.ltrans.o
                0x0040af01                xmalloc
 .text.xzalloc  0x0040af18       0x1c /home/notlean/openwrt-uboost/tmp/ccV1QtaS.ltrans0.ltrans.o
                0x0040af19                xzalloc
 .text.llist_add_to_end
                0x0040af34       0x1c /home/notlean/openwrt-uboost/tmp/ccV1QtaS.ltrans0.ltrans.o
                0x0040af35                llist_add_to_end
 .text.xmemdup  0x0040af50       0x30 /home/notlean/openwrt-uboost/tmp/ccV1QtaS.ltrans0.ltrans.o
                0x0040af51                xmemdup
 .text.llist_add_to
                0x0040af80       0x18 /home/notlean/openwrt-uboost/tmp/ccV1QtaS.ltrans0.ltrans.o
                0x0040af81                llist_add_to
 .text.UNSPEC_print
                0x0040af98       0x44 /home/notlean/openwrt-uboost/tmp/ccV1QtaS.ltrans0.ltrans.o
 .text.UNSPEC_sprint
                0x0040afdc       0x24 /home/notlean/openwrt-uboost/tmp/ccV1QtaS.ltrans0.ltrans.o
 .text.xrealloc
                0x0040b000       0x18 /home/notlean/openwrt-uboost/tmp/ccV1QtaS.ltrans0.ltrans.o
                0x0040b001                xrealloc
 .text.read_lines
                0x0040b018      0x23c /home/notlean/openwrt-uboost/tmp/ccV1QtaS.ltrans0.ltrans.o
 .text.buffer_down
                0x0040b254       0x24 /home/notlean/openwrt-uboost/tmp/ccV1QtaS.ltrans0.ltrans.o
 .text.buffer_up
                0x0040b278       0x24 /home/notlean/openwrt-uboost/tmp/ccV1QtaS.ltrans0.ltrans.o
 .text.buffer_to_line
                0x0040b29c       0x88 /home/notlean/openwrt-uboost/tmp/ccV1QtaS.ltrans0.ltrans.o
 .text.getch_nowait
                0x0040b324       0xc0 /home/notlean/openwrt-uboost/tmp/ccV1QtaS.ltrans0.ltrans.o
 .text.less_getch
                0x0040b3e4       0x2c /home/notlean/openwrt-uboost/tmp/ccV1QtaS.ltrans0.ltrans.o
 .text.less_gets
                0x0040b410       0x8c /home/notlean/openwrt-uboost/tmp/ccV1QtaS.ltrans0.ltrans.o
 .text.do_info  0x0040b49c       0xcc /home/notlean/openwrt-uboost/tmp/ccV1QtaS.ltrans0.ltrans.o
 .text.xstrdup  0x0040b568       0x1c /home/notlean/openwrt-uboost/tmp/ccV1QtaS.ltrans0.ltrans.o
                0x0040b569                xstrdup
 .text.xmalloc_ttyname
                0x0040b584       0x20 /home/notlean/openwrt-uboost/tmp/ccV1QtaS.ltrans0.ltrans.o
 .text.load_crontab
                0x0040b5a4      0x234 /home/notlean/openwrt-uboost/tmp/ccV1QtaS.ltrans0.ltrans.o
 .text.rescan_crontab_dir
                0x0040b7d8       0x70 /home/notlean/openwrt-uboost/tmp/ccV1QtaS.ltrans0.ltrans.o
 .text.reinitialize
                0x0040b848       0x84 /home/notlean/openwrt-uboost/tmp/ccV1QtaS.ltrans0.ltrans.o
 .text.examine_file
                0x0040b8cc       0x64 /home/notlean/openwrt-uboost/tmp/ccV1QtaS.ltrans0.ltrans.o
 .text.change_file
                0x0040b930       0x5c /home/notlean/openwrt-uboost/tmp/ccV1QtaS.ltrans0.ltrans.o
 .text.INET6_sprint
                0x0040b98c       0x7c /home/notlean/openwrt-uboost/tmp/ccV1QtaS.ltrans0.ltrans.o
 .text.ife_print
                0x0040ba08      0x4bc /home/notlean/openwrt-uboost/tmp/ccV1QtaS.ltrans0.ltrans.o
 .text.parse_resolvconf
                0x0040bec4       0xdc /home/notlean/openwrt-uboost/tmp/ccV1QtaS.ltrans0.ltrans.o
 .text.xstrndup
                0x0040bfa0       0x14 /home/notlean/openwrt-uboost/tmp/ccV1QtaS.ltrans0.ltrans.o
                0x0040bfa1                xstrndup
 .text.bb_unsetenv
                0x0040bfb4       0x48 /home/notlean/openwrt-uboost/tmp/ccV1QtaS.ltrans0.ltrans.o
                0x0040bfb5                bb_unsetenv
 .text.xasprintf
                0x0040bffc       0x20 /home/notlean/openwrt-uboost/tmp/ccV1QtaS.ltrans0.ltrans.o
                0x0040bffd                xasprintf
 .text.safe_setenv
                0x0040c01c       0x30 /home/notlean/openwrt-uboost/tmp/ccV1QtaS.ltrans0.ltrans.o
 .text.start_one_job
                0x0040c04c      0x108 /home/notlean/openwrt-uboost/tmp/ccV1QtaS.ltrans0.ltrans.o
 .text.ether_print
                0x0040c154       0x2c /home/notlean/openwrt-uboost/tmp/ccV1QtaS.ltrans0.ltrans.o
 .text.ip_port_str
                0x0040c180       0x74 /home/notlean/openwrt-uboost/tmp/ccV1QtaS.ltrans0.ltrans.o
 .text.print_inet_line
                0x0040c1f4       0xa0 /home/notlean/openwrt-uboost/tmp/ccV1QtaS.ltrans0.ltrans.o
 .text.tcp_do_one
                0x0040c294       0x58 /home/notlean/openwrt-uboost/tmp/ccV1QtaS.ltrans0.ltrans.o
 .text.udp_do_one
                0x0040c2ec       0x90 /home/notlean/openwrt-uboost/tmp/ccV1QtaS.ltrans0.ltrans.o
 .text.raw_do_one
                0x0040c37c       0x78 /home/notlean/openwrt-uboost/tmp/ccV1QtaS.ltrans0.ltrans.o
 .text.add_query_with_search
                0x0040c3f4       0x58 /home/notlean/openwrt-uboost/tmp/ccV1QtaS.ltrans0.ltrans.o
 .text.xsetenv  0x0040c44c       0x14 /home/notlean/openwrt-uboost/tmp/ccV1QtaS.ltrans0.ltrans.o
                0x0040c44d                xsetenv
 .text.bb_copyfd_exact_size
                0x0040c460       0x4c /home/notlean/openwrt-uboost/tmp/ccV1QtaS.ltrans0.ltrans.o
                0x0040c461                bb_copyfd_exact_size
 .text.get_mono
                0x0040c4ac       0x1c /home/notlean/openwrt-uboost/tmp/ccV1QtaS.ltrans0.ltrans.o
 .text.monotonic_us
                0x0040c4c8       0x40 /home/notlean/openwrt-uboost/tmp/ccV1QtaS.ltrans0.ltrans.o
                0x0040c4c9                monotonic_us
 .text.monotonic_ms
                0x0040c508       0x40 /home/notlean/openwrt-uboost/tmp/ccV1QtaS.ltrans0.ltrans.o
                0x0040c509                monotonic_ms
 .text.run_command
                0x0040c548       0xa0 /home/notlean/openwrt-uboost/tmp/ccV1QtaS.ltrans0.ltrans.o
 .text.send_queries
                0x0040c5e8      0x254 /home/notlean/openwrt-uboost/tmp/ccV1QtaS.ltrans0.ltrans.o
 .text.monotonic_sec
                0x0040c83c       0x10 /home/notlean/openwrt-uboost/tmp/ccV1QtaS.ltrans0.ltrans.o
                0x0040c83d                monotonic_sec
 .text.xatoull_sfx
                0x0040c84c       0x18 /home/notlean/openwrt-uboost/tmp/ccV1QtaS.ltrans0.ltrans.o
                0x0040c84d                xatoull_sfx
 .text.xstrtoul_range_sfx
                0x0040c864       0xa8 /home/notlean/openwrt-uboost/tmp/ccV1QtaS.ltrans0.ltrans.o
                0x0040c865                xstrtoul_range_sfx
 .text.printf_xstrtou
                0x0040c90c       0x28 /home/notlean/openwrt-uboost/tmp/ccV1QtaS.ltrans0.ltrans.o
 .text.show_bridge_port
                0x0040c934      0x2b8 /home/notlean/openwrt-uboost/tmp/ccV1QtaS.ltrans0.ltrans.o
 .text.xatoul_range
                0x0040cbec       0x14 /home/notlean/openwrt-uboost/tmp/ccV1QtaS.ltrans0.ltrans.o
                0x0040cbed                xatoul_range
 .text.nslookup_main
                0x0040cc00      0x2ec /home/notlean/openwrt-uboost/tmp/ccV1QtaS.ltrans0.ltrans.o
 .text.xatoul_sfx
                0x0040ceec       0x14 /home/notlean/openwrt-uboost/tmp/ccV1QtaS.ltrans0.ltrans.o
                0x0040ceed                xatoul_sfx
 .text.xatoi_positive
                0x0040cf00       0x14 /home/notlean/openwrt-uboost/tmp/ccV1QtaS.ltrans0.ltrans.o
                0x0040cf01                xatoi_positive
 .text.vgetopt32
                0x0040cf14      0x3fc /home/notlean/openwrt-uboost/tmp/ccV1QtaS.ltrans0.ltrans.o
 .text.getopt32
                0x0040d310       0x14 /home/notlean/openwrt-uboost/tmp/ccV1QtaS.ltrans0.ltrans.o
                0x0040d311                getopt32
 .text.crond_main
                0x0040d324      0x330 /home/notlean/openwrt-uboost/tmp/ccV1QtaS.ltrans0.ltrans.o
 .text.crontab_main
                0x0040d654      0x230 /home/notlean/openwrt-uboost/tmp/ccV1QtaS.ltrans0.ltrans.o
 .text.strings_main
                0x0040d884      0x190 /home/notlean/openwrt-uboost/tmp/ccV1QtaS.ltrans0.ltrans.o
 .text.time_main
                0x0040da14      0x434 /home/notlean/openwrt-uboost/tmp/ccV1QtaS.ltrans0.ltrans.o
 .text.netstat_main
                0x0040de48      0x248 /home/notlean/openwrt-uboost/tmp/ccV1QtaS.ltrans0.ltrans.o
 .text.getopt32long
                0x0040e090       0x10 /home/notlean/openwrt-uboost/tmp/ccV1QtaS.ltrans0.ltrans.o
                0x0040e091                getopt32long
 .text.login_main
                0x0040e0a0      0x38c /home/notlean/openwrt-uboost/tmp/ccV1QtaS.ltrans0.ltrans.o
 .text.bb_strtoull
                0x0040e42c       0x4c /home/notlean/openwrt-uboost/tmp/ccV1QtaS.ltrans0.ltrans.o
                0x0040e42d                bb_strtoull
 .text.bb_strtoul
                0x0040e478       0x48 /home/notlean/openwrt-uboost/tmp/ccV1QtaS.ltrans0.ltrans.o
                0x0040e479                bb_strtoul
 .text.less_main
                0x0040e4c0      0x550 /home/notlean/openwrt-uboost/tmp/ccV1QtaS.ltrans0.ltrans.o
 .text.nc_main  0x0040ea10      0x124 /home/notlean/openwrt-uboost/tmp/ccV1QtaS.ltrans0.ltrans.o
 .text.add_to_prg_cache_if_socket
                0x0040eb34       0xbc /home/notlean/openwrt-uboost/tmp/ccV1QtaS.ltrans0.ltrans.o
 .text.bb_strtol
                0x0040ebf0       0x54 /home/notlean/openwrt-uboost/tmp/ccV1QtaS.ltrans0.ltrans.o
                0x0040ebf1                bb_strtol
 .text.concat_path_file
                0x0040ec44       0x38 /home/notlean/openwrt-uboost/tmp/ccV1QtaS.ltrans0.ltrans.o
                0x0040ec45                concat_path_file
 .text.dir_act  0x0040ec7c       0xac /home/notlean/openwrt-uboost/tmp/ccV1QtaS.ltrans0.ltrans.o
 .text.add_interface.lto_priv.0
                0x0040ed28       0x50 /home/notlean/openwrt-uboost/tmp/ccV1QtaS.ltrans0.ltrans.o
                0x0040ed29                add_interface.lto_priv.0
 .text.ifconfig_main
                0x0040ed78      0x430 /home/notlean/openwrt-uboost/tmp/ccV1QtaS.ltrans0.ltrans.o
 .text.set_next.lto_priv.0
                0x0040f1a8       0x28 /home/notlean/openwrt-uboost/tmp/ccV1QtaS.ltrans0.ltrans.o
                0x0040f1a9                set_next.lto_priv.0
 .text.resolve_peer_hostname.lto_priv.0
                0x0040f1d0       0xe4 /home/notlean/openwrt-uboost/tmp/ccV1QtaS.ltrans0.ltrans.o
                0x0040f1d1                resolve_peer_hostname.lto_priv.0
 .text.run_script.lto_priv.0
                0x0040f2b4       0xe8 /home/notlean/openwrt-uboost/tmp/ccV1QtaS.ltrans0.ltrans.o
                0x0040f2b5                run_script.lto_priv.0
 .text.clamp_pollexp_and_set_MAXSTRAT.lto_priv.0
                0x0040f39c       0x2c /home/notlean/openwrt-uboost/tmp/ccV1QtaS.ltrans0.ltrans.o
                0x0040f39d                clamp_pollexp_and_set_MAXSTRAT.lto_priv.0
 .text.adjust_poll
                0x0040f3c8       0x80 /home/notlean/openwrt-uboost/tmp/ccV1QtaS.ltrans1.ltrans.o
 .text.set_flags
                0x0040f448       0x24 /home/notlean/openwrt-uboost/tmp/ccV1QtaS.ltrans1.ltrans.o
 .text.find_by_index
                0x0040f46c       0x20 /home/notlean/openwrt-uboost/tmp/ccV1QtaS.ltrans1.ltrans.o
 .text.poll_interval
                0x0040f48c       0x30 /home/notlean/openwrt-uboost/tmp/ccV1QtaS.ltrans1.ltrans.o
 .text.iproute_reset_filter
                0x0040f4bc       0x24 /home/notlean/openwrt-uboost/tmp/ccV1QtaS.ltrans1.ltrans.o
 .text.parse_rtattr
                0x0040f4e0       0x54 /home/notlean/openwrt-uboost/tmp/ccV1QtaS.ltrans1.ltrans.o
 .text.recv_and_process_client_pkt
                0x0040f534      0x240 /home/notlean/openwrt-uboost/tmp/ccV1QtaS.ltrans1.ltrans.o
 .text.kw_lookup
                0x0040f774       0x58 /home/notlean/openwrt-uboost/tmp/ccV1QtaS.ltrans1.ltrans.o
 .text.print_stats_and_exit.lto_priv.0
                0x0040f7cc       0xb8 /home/notlean/openwrt-uboost/tmp/ccV1QtaS.ltrans1.ltrans.o
                0x0040f7cd                print_stats_and_exit.lto_priv.0
 .text.sendping4.lto_priv.0
                0x0040f884       0x54 /home/notlean/openwrt-uboost/tmp/ccV1QtaS.ltrans1.ltrans.o
                0x0040f885                sendping4.lto_priv.0
 .text.sendping6.lto_priv.0
                0x0040f8d8       0x48 /home/notlean/openwrt-uboost/tmp/ccV1QtaS.ltrans1.ltrans.o
                0x0040f8d9                sendping6.lto_priv.0
 .text.ping_main
                0x0040f920        0x8 /home/notlean/openwrt-uboost/tmp/ccV1QtaS.ltrans1.ltrans.o
                0x0040f921                ping_main
 .text.ping6_main
                0x0040f928        0xc /home/notlean/openwrt-uboost/tmp/ccV1QtaS.ltrans1.ltrans.o
                0x0040f929                ping6_main
 .text.next_arg
                0x0040f934       0x18 /home/notlean/openwrt-uboost/tmp/ccV1QtaS.ltrans1.ltrans.o
 .text.duparg   0x0040f94c       0x14 /home/notlean/openwrt-uboost/tmp/ccV1QtaS.ltrans1.ltrans.o
 .text.INET_setroute
                0x0040f960      0x2c8 /home/notlean/openwrt-uboost/tmp/ccV1QtaS.ltrans1.ltrans.o
 .text.INET6_setroute
                0x0040fc28      0x1cc /home/notlean/openwrt-uboost/tmp/ccV1QtaS.ltrans1.ltrans.o
 .text.get_hz   0x0040fdf4       0x58 /home/notlean/openwrt-uboost/tmp/ccV1QtaS.ltrans1.ltrans.o
 .text.INET6_displayroutes
                0x0040fe4c      0x198 /home/notlean/openwrt-uboost/tmp/ccV1QtaS.ltrans1.ltrans.o
 .text.hexdump_if_verbose
                0x0040ffe4       0xe0 /home/notlean/openwrt-uboost/tmp/ccV1QtaS.ltrans1.ltrans.o
 .text.traceroute_init
                0x004100c4      0x358 /home/notlean/openwrt-uboost/tmp/ccV1QtaS.ltrans1.ltrans.o
 .text.inet_addr_match
                0x0041041c       0x54 /home/notlean/openwrt-uboost/tmp/ccV1QtaS.ltrans1.ltrans.o
 .text.common_traceroute_main
                0x00410470      0x528 /home/notlean/openwrt-uboost/tmp/ccV1QtaS.ltrans1.ltrans.o
 .text.traceroute_main
                0x00410998        0xc /home/notlean/openwrt-uboost/tmp/ccV1QtaS.ltrans1.ltrans.o
                0x00410999                traceroute_main
 .text.traceroute6_main
                0x004109a4       0x14 /home/notlean/openwrt-uboost/tmp/ccV1QtaS.ltrans1.ltrans.o
                0x004109a5                traceroute6_main
 .text.get_ctl_fd
                0x004109b8       0x2c /home/notlean/openwrt-uboost/tmp/ccV1QtaS.ltrans1.ltrans.o
 .text.rtnl_rtntype_n2a
                0x004109e4       0x94 /home/notlean/openwrt-uboost/tmp/ccV1QtaS.ltrans1.ltrans.o
 .text.rtnl_rtntype_a2n
                0x00410a78       0x54 /home/notlean/openwrt-uboost/tmp/ccV1QtaS.ltrans1.ltrans.o
 .text.rtnl_send_check
                0x00410acc       0x88 /home/notlean/openwrt-uboost/tmp/ccV1QtaS.ltrans1.ltrans.o
 .text.flush_update.lto_priv.0
                0x00410b54       0x30 /home/notlean/openwrt-uboost/tmp/ccV1QtaS.ltrans1.ltrans.o
 .text.flush_update.lto_priv.1
                0x00410b84       0x30 /home/notlean/openwrt-uboost/tmp/ccV1QtaS.ltrans1.ltrans.o
 .text.flush_update.lto_priv.2
                0x00410bb4       0x30 /home/notlean/openwrt-uboost/tmp/ccV1QtaS.ltrans1.ltrans.o
 .text.xrtnl_open
                0x00410be4       0x44 /home/notlean/openwrt-uboost/tmp/ccV1QtaS.ltrans1.ltrans.o
 .text.rtnl_talk
                0x00410c28      0x1dc /home/notlean/openwrt-uboost/tmp/ccV1QtaS.ltrans1.ltrans.o
 .text.ll_remember_index
                0x00410e04       0xdc /home/notlean/openwrt-uboost/tmp/ccV1QtaS.ltrans1.ltrans.o
                0x00410e05                ll_remember_index
 .text.store_nlmsg
                0x00410ee0       0x50 /home/notlean/openwrt-uboost/tmp/ccV1QtaS.ltrans1.ltrans.o
 .text.ll_idx_n2a
                0x00410f30       0x30 /home/notlean/openwrt-uboost/tmp/ccV1QtaS.ltrans1.ltrans.o
 .text.print_linkinfo
                0x00410f60      0x334 /home/notlean/openwrt-uboost/tmp/ccV1QtaS.ltrans1.ltrans.o
 .text.xll_name_to_index
                0x00411294       0x1c /home/notlean/openwrt-uboost/tmp/ccV1QtaS.ltrans1.ltrans.o
 .text.set_master
                0x004112b0       0x68 /home/notlean/openwrt-uboost/tmp/ccV1QtaS.ltrans1.ltrans.o
 .text.set_netns
                0x00411318       0x68 /home/notlean/openwrt-uboost/tmp/ccV1QtaS.ltrans1.ltrans.o
 .text.rtnl_a2n
                0x00411380       0x68 /home/notlean/openwrt-uboost/tmp/ccV1QtaS.ltrans1.ltrans.o
 .text.rtnl_tab_initialize
                0x004113e8       0x7c /home/notlean/openwrt-uboost/tmp/ccV1QtaS.ltrans1.ltrans.o
 .text.rtnl_rtprot_initialize
                0x00411464       0x58 /home/notlean/openwrt-uboost/tmp/ccV1QtaS.ltrans1.ltrans.o
 .text.rtnl_rtscope_initialize
                0x004114bc       0x5c /home/notlean/openwrt-uboost/tmp/ccV1QtaS.ltrans1.ltrans.o
 .text.rtnl_rtscope_a2n
                0x00411518       0x20 /home/notlean/openwrt-uboost/tmp/ccV1QtaS.ltrans1.ltrans.o
 .text.rtnl_rtrealm_initialize
                0x00411538       0x34 /home/notlean/openwrt-uboost/tmp/ccV1QtaS.ltrans1.ltrans.o
 .text.rtnl_rtrealm_n2a
                0x0041156c       0x30 /home/notlean/openwrt-uboost/tmp/ccV1QtaS.ltrans1.ltrans.o
 .text.rtnl_rtdsfield_initialize
                0x0041159c       0x34 /home/notlean/openwrt-uboost/tmp/ccV1QtaS.ltrans1.ltrans.o
 .text.rtnl_rttable_initialize
                0x004115d0       0x50 /home/notlean/openwrt-uboost/tmp/ccV1QtaS.ltrans1.ltrans.o
 .text.rtnl_rttable_n2a
                0x00411620       0x30 /home/notlean/openwrt-uboost/tmp/ccV1QtaS.ltrans1.ltrans.o
 .text.rtnl_rttable_a2n
                0x00411650       0x20 /home/notlean/openwrt-uboost/tmp/ccV1QtaS.ltrans1.ltrans.o
 .text.rt_addr_n2a
                0x00411670       0x34 /home/notlean/openwrt-uboost/tmp/ccV1QtaS.ltrans1.ltrans.o
 .text.print_addrinfo
                0x004116a4      0x3cc /home/notlean/openwrt-uboost/tmp/ccV1QtaS.ltrans1.ltrans.o
 .text.print_neigh
                0x00411a70      0x310 /home/notlean/openwrt-uboost/tmp/ccV1QtaS.ltrans1.ltrans.o
 .text.print_route
                0x00411d80      0x540 /home/notlean/openwrt-uboost/tmp/ccV1QtaS.ltrans1.ltrans.o
 .text.print_rule
                0x004122c0      0x23c /home/notlean/openwrt-uboost/tmp/ccV1QtaS.ltrans1.ltrans.o
 .text.unpack_tail.lto_priv.0
                0x004124fc       0xc8 /home/notlean/openwrt-uboost/tmp/ccV1QtaS.ltrans1.ltrans.o
                0x004124fd                unpack_tail.lto_priv.0
 .text.bb_displayroutes
                0x004125c4      0x174 /home/notlean/openwrt-uboost/tmp/ccV1QtaS.ltrans1.ltrans.o
                0x004125c5                bb_displayroutes
 .text.route_main
                0x00412738       0xe4 /home/notlean/openwrt-uboost/tmp/ccV1QtaS.ltrans1.ltrans.o
                0x00412739                route_main
 .text.xrtnl_wilddump_request
                0x0041281c       0x34 /home/notlean/openwrt-uboost/tmp/ccV1QtaS.ltrans1.ltrans.o
                0x0041281d                xrtnl_wilddump_request
 .text.xrtnl_dump_filter
                0x00412850      0x140 /home/notlean/openwrt-uboost/tmp/ccV1QtaS.ltrans1.ltrans.o
                0x00412851                xrtnl_dump_filter
 .text.get_addr_1
                0x00412990       0xc8 /home/notlean/openwrt-uboost/tmp/ccV1QtaS.ltrans1.ltrans.o
                0x00412991                get_addr_1
 .text.ll_addr_a2n
                0x00412a58       0xa8 /home/notlean/openwrt-uboost/tmp/ccV1QtaS.ltrans1.ltrans.o
 .text.get_prefix
                0x00412b00      0x114 /home/notlean/openwrt-uboost/tmp/ccV1QtaS.ltrans1.ltrans.o
 .text.ipneigh_list_or_flush
                0x00412c14      0x270 /home/notlean/openwrt-uboost/tmp/ccV1QtaS.ltrans1.ltrans.o
 .text.iproute_get
                0x00412e84      0x254 /home/notlean/openwrt-uboost/tmp/ccV1QtaS.ltrans1.ltrans.o
 .text.invarg_1_to_2
                0x004130d8       0x14 /home/notlean/openwrt-uboost/tmp/ccV1QtaS.ltrans1.ltrans.o
                0x004130d9                invarg_1_to_2
 .text.ipaddr_list_or_flush
                0x004130ec      0x358 /home/notlean/openwrt-uboost/tmp/ccV1QtaS.ltrans1.ltrans.o
 .text.do_ipneigh
                0x00413444       0x3c /home/notlean/openwrt-uboost/tmp/ccV1QtaS.ltrans1.ltrans.o
                0x00413445                do_ipneigh
 .text.iproute_list_or_flush
                0x00413480      0x398 /home/notlean/openwrt-uboost/tmp/ccV1QtaS.ltrans1.ltrans.o
 .text.get_unsigned
                0x00413818       0x24 /home/notlean/openwrt-uboost/tmp/ccV1QtaS.ltrans1.ltrans.o
 .text.ipaddr_modify
                0x0041383c      0x4f0 /home/notlean/openwrt-uboost/tmp/ccV1QtaS.ltrans1.ltrans.o
 .text.do_ipaddr
                0x00413d2c       0x6c /home/notlean/openwrt-uboost/tmp/ccV1QtaS.ltrans1.ltrans.o
                0x00413d2d                do_ipaddr
 .text.do_add_or_delete
                0x00413d98      0x414 /home/notlean/openwrt-uboost/tmp/ccV1QtaS.ltrans1.ltrans.o
 .text.iprule_modify
                0x004141ac      0x36c /home/notlean/openwrt-uboost/tmp/ccV1QtaS.ltrans1.ltrans.o
 .text.do_iprule
                0x00414518       0x74 /home/notlean/openwrt-uboost/tmp/ccV1QtaS.ltrans1.ltrans.o
                0x00414519                do_iprule
 .text.do_iplink
                0x0041458c      0x458 /home/notlean/openwrt-uboost/tmp/ccV1QtaS.ltrans1.ltrans.o
                0x0041458d                do_iplink
 .text.iproute_modify
                0x004149e4      0x3c0 /home/notlean/openwrt-uboost/tmp/ccV1QtaS.ltrans1.ltrans.o
 .text.do_iproute
                0x00414da4       0xa8 /home/notlean/openwrt-uboost/tmp/ccV1QtaS.ltrans1.ltrans.o
                0x00414da5                do_iproute
 .text.mem_sort
                0x00414e4c       0x1c /home/notlean/openwrt-uboost/tmp/ccV1QtaS.ltrans2.ltrans.o
 .text.pcpu_sort
                0x00414e68        0x8 /home/notlean/openwrt-uboost/tmp/ccV1QtaS.ltrans2.ltrans.o
 .text.time_sort
                0x00414e70       0x1c /home/notlean/openwrt-uboost/tmp/ccV1QtaS.ltrans2.ltrans.o
 .text.mult_lvl_cmp
                0x00414e8c       0x34 /home/notlean/openwrt-uboost/tmp/ccV1QtaS.ltrans2.ltrans.o
 .text.prefix.lto_priv.0
                0x00414ec0       0x18 /home/notlean/openwrt-uboost/tmp/ccV1QtaS.ltrans2.ltrans.o
                0x00414ec1                prefix.lto_priv.0
 .text.set_curjob
                0x00414ed8       0x40 /home/notlean/openwrt-uboost/tmp/ccV1QtaS.ltrans2.ltrans.o
 .text.getstatus
                0x00414f18       0x60 /home/notlean/openwrt-uboost/tmp/ccV1QtaS.ltrans2.ltrans.o
 .text.skiploop
                0x00414f78       0x28 /home/notlean/openwrt-uboost/tmp/ccV1QtaS.ltrans2.ltrans.o
 .text.clearmems
                0x00414fa0       0x38 /home/notlean/openwrt-uboost/tmp/ccV1QtaS.ltrans2.ltrans.o
 .text.freealias
                0x00414fd8       0x30 /home/notlean/openwrt-uboost/tmp/ccV1QtaS.ltrans2.ltrans.o
 .text.optitem_unset_env_and_free
                0x00415008       0x28 /home/notlean/openwrt-uboost/tmp/ccV1QtaS.ltrans2.ltrans.o
 .text.putenvp  0x00415030       0x24 /home/notlean/openwrt-uboost/tmp/ccV1QtaS.ltrans2.ltrans.o
 .text.udhcp_scan_options
                0x00415054       0xa0 /home/notlean/openwrt-uboost/tmp/ccV1QtaS.ltrans2.ltrans.o
 .text.udhcp_get_option
                0x004150f4       0x2c /home/notlean/openwrt-uboost/tmp/ccV1QtaS.ltrans2.ltrans.o
 .text.udhcp_get_option32
                0x00415120       0x18 /home/notlean/openwrt-uboost/tmp/ccV1QtaS.ltrans2.ltrans.o
 .text.d4_recv_raw_packet
                0x00415138      0x194 /home/notlean/openwrt-uboost/tmp/ccV1QtaS.ltrans2.ltrans.o
 .text.change_listen_mode
                0x004152cc      0x110 /home/notlean/openwrt-uboost/tmp/ccV1QtaS.ltrans2.ltrans.o
 .text.calcsize
                0x004153dc      0x11c /home/notlean/openwrt-uboost/tmp/ccV1QtaS.ltrans2.ltrans.o
 .text.nodeckstrdup
                0x004154f8       0x30 /home/notlean/openwrt-uboost/tmp/ccV1QtaS.ltrans2.ltrans.o
 .text.copynode
                0x00415528      0x100 /home/notlean/openwrt-uboost/tmp/ccV1QtaS.ltrans2.ltrans.o
 .text.copynodelist
                0x00415628       0x38 /home/notlean/openwrt-uboost/tmp/ccV1QtaS.ltrans2.ltrans.o
 .text.client_background
                0x00415660       0x2c /home/notlean/openwrt-uboost/tmp/ccV1QtaS.ltrans2.ltrans.o
 .text.signal_handler.lto_priv.0
                0x0041568c       0x34 /home/notlean/openwrt-uboost/tmp/ccV1QtaS.ltrans2.ltrans.o
 .text.udhcp_str2nip
                0x004156c0       0x48 /home/notlean/openwrt-uboost/tmp/ccV1QtaS.ltrans2.ltrans.o
 .text.read_cpu_jiffy
                0x00415708       0xf4 /home/notlean/openwrt-uboost/tmp/ccV1QtaS.ltrans2.ltrans.o
 .text.parse_meminfo.lto_priv.0
                0x004157fc       0x80 /home/notlean/openwrt-uboost/tmp/ccV1QtaS.ltrans2.ltrans.o
 .text.free_main
                0x0041587c      0x164 /home/notlean/openwrt-uboost/tmp/ccV1QtaS.ltrans2.ltrans.o
                0x0041587d                free_main
 .text.kill_main
                0x004159e0      0x260 /home/notlean/openwrt-uboost/tmp/ccV1QtaS.ltrans2.ltrans.o
                0x004159e1                kill_main
 .text.pgrep_main
                0x00415c40      0x230 /home/notlean/openwrt-uboost/tmp/ccV1QtaS.ltrans2.ltrans.o
                0x00415c41                pgrep_main
 .text.pidof_main
                0x00415e70       0x98 /home/notlean/openwrt-uboost/tmp/ccV1QtaS.ltrans2.ltrans.o
                0x00415e71                pidof_main
 .text.ps_main  0x00415f08       0xf4 /home/notlean/openwrt-uboost/tmp/ccV1QtaS.ltrans2.ltrans.o
                0x00415f09                ps_main
 .text.sysctl_dots_to_slashes
                0x00415ffc       0x8c /home/notlean/openwrt-uboost/tmp/ccV1QtaS.ltrans2.ltrans.o
 .text.sysctl_act_on_setting
                0x00416088      0x18c /home/notlean/openwrt-uboost/tmp/ccV1QtaS.ltrans2.ltrans.o
 .text.sysctl_act_recursive
                0x00416214       0xa0 /home/notlean/openwrt-uboost/tmp/ccV1QtaS.ltrans2.ltrans.o
 .text.sysctl_main
                0x004162b4      0x110 /home/notlean/openwrt-uboost/tmp/ccV1QtaS.ltrans2.ltrans.o
                0x004162b5                sysctl_main
 .text.do_stats
                0x004163c4       0xe4 /home/notlean/openwrt-uboost/tmp/ccV1QtaS.ltrans2.ltrans.o
 .text.display_process_list
                0x004164a8      0x3f8 /home/notlean/openwrt-uboost/tmp/ccV1QtaS.ltrans2.ltrans.o
 .text.top_main
                0x004168a0      0x208 /home/notlean/openwrt-uboost/tmp/ccV1QtaS.ltrans2.ltrans.o
                0x004168a1                top_main
 .text.uptime_main
                0x00416aa8      0x134 /home/notlean/openwrt-uboost/tmp/ccV1QtaS.ltrans2.ltrans.o
                0x00416aa9                uptime_main
 .text.ignoresig
                0x00416bdc       0x2c /home/notlean/openwrt-uboost/tmp/ccV1QtaS.ltrans2.ltrans.o
 .text.msort    0x00416c08       0x70 /home/notlean/openwrt-uboost/tmp/ccV1QtaS.ltrans2.ltrans.o
 .text.pstrcmp  0x00416c78       0x10 /home/notlean/openwrt-uboost/tmp/ccV1QtaS.ltrans2.ltrans.o
 .text.dup_CLOEXEC
                0x00416c88       0x2c /home/notlean/openwrt-uboost/tmp/ccV1QtaS.ltrans2.ltrans.o
 .text.scanleft
                0x00416cb4       0x44 /home/notlean/openwrt-uboost/tmp/ccV1QtaS.ltrans2.ltrans.o
 .text.scanright
                0x00416cf8       0xb4 /home/notlean/openwrt-uboost/tmp/ccV1QtaS.ltrans2.ltrans.o
 .text.tryexec  0x00416dac       0x44 /home/notlean/openwrt-uboost/tmp/ccV1QtaS.ltrans2.ltrans.o
 .text.dotrap   0x00416df0       0xcc /home/notlean/openwrt-uboost/tmp/ccV1QtaS.ltrans2.ltrans.o
 .text.sprint_nip.lto_priv.0
                0x00416ebc       0x24 /home/notlean/openwrt-uboost/tmp/ccV1QtaS.ltrans2.ltrans.o
                0x00416ebd                sprint_nip.lto_priv.0
 .text.d4_run_script
                0x00416ee0      0x294 /home/notlean/openwrt-uboost/tmp/ccV1QtaS.ltrans2.ltrans.o
 .text.d4_run_script_deconfig
                0x00417174       0x14 /home/notlean/openwrt-uboost/tmp/ccV1QtaS.ltrans2.ltrans.o
 .text.raw_bcast_from_client_data_ifindex.lto_priv.0
                0x00417188       0x18 /home/notlean/openwrt-uboost/tmp/ccV1QtaS.ltrans2.ltrans.o
                0x00417189                raw_bcast_from_client_data_ifindex.lto_priv.0
 .text.dname_dec
                0x004171a0       0xf8 /home/notlean/openwrt-uboost/tmp/ccV1QtaS.ltrans2.ltrans.o
                0x004171a1                dname_dec
 .text.udhcp_end_option
                0x00417298       0x18 /home/notlean/openwrt-uboost/tmp/ccV1QtaS.ltrans2.ltrans.o
                0x00417299                udhcp_end_option
 .text.bcast_or_ucast
                0x004172b0      0x124 /home/notlean/openwrt-uboost/tmp/ccV1QtaS.ltrans2.ltrans.o
 .text.udhcp_add_binary_option
                0x004173d4       0x54 /home/notlean/openwrt-uboost/tmp/ccV1QtaS.ltrans2.ltrans.o
 .text.udhcp_add_simple_option
                0x00417428       0x70 /home/notlean/openwrt-uboost/tmp/ccV1QtaS.ltrans2.ltrans.o
                0x00417429                udhcp_add_simple_option
 .text.init_packet.lto_priv.0
                0x00417498       0xac /home/notlean/openwrt-uboost/tmp/ccV1QtaS.ltrans2.ltrans.o
                0x00417499                init_packet.lto_priv.0
 .text.add_client_options.lto_priv.0
                0x00417544       0x98 /home/notlean/openwrt-uboost/tmp/ccV1QtaS.ltrans2.ltrans.o
                0x00417545                add_client_options.lto_priv.0
 .text.send_renew
                0x004175dc       0x64 /home/notlean/openwrt-uboost/tmp/ccV1QtaS.ltrans2.ltrans.o
 .text.udhcp_find_option
                0x00417640       0x1c /home/notlean/openwrt-uboost/tmp/ccV1QtaS.ltrans2.ltrans.o
                0x00417641                udhcp_find_option
 .text.perform_release
                0x0041765c       0xd4 /home/notlean/openwrt-uboost/tmp/ccV1QtaS.ltrans2.ltrans.o
 .text.udhcpc_main
                0x00417730      0xb14 /home/notlean/openwrt-uboost/tmp/ccV1QtaS.ltrans2.ltrans.o
                0x00417731                udhcpc_main
 .text.isdigit_str9.lto_priv.0
                0x00418244       0x20 /home/notlean/openwrt-uboost/tmp/ccV1QtaS.ltrans2.ltrans.o
                0x00418245                isdigit_str9.lto_priv.0
 .text.raise_exception.lto_priv.0
                0x00418264       0x20 /home/notlean/openwrt-uboost/tmp/ccV1QtaS.ltrans2.ltrans.o
                0x00418265                raise_exception.lto_priv.0
 .text.raise_interrupt.lto_priv.0
                0x00418284       0x48 /home/notlean/openwrt-uboost/tmp/ccV1QtaS.ltrans2.ltrans.o
                0x00418285                raise_interrupt.lto_priv.0
 .text.signal_handler.lto_priv.1
                0x004182cc       0x60 /home/notlean/openwrt-uboost/tmp/ccV1QtaS.ltrans2.ltrans.o
 .text.int_on.lto_priv.0
                0x0041832c       0x24 /home/notlean/openwrt-uboost/tmp/ccV1QtaS.ltrans2.ltrans.o
                0x0041832d                int_on.lto_priv.0
 .text.fmtstr   0x00418350       0x30 /home/notlean/openwrt-uboost/tmp/ccV1QtaS.ltrans2.ltrans.o
 .text.sprint_status48
                0x00418380       0x94 /home/notlean/openwrt-uboost/tmp/ccV1QtaS.ltrans2.ltrans.o
 .text.out1str  0x00418414       0x28 /home/notlean/openwrt-uboost/tmp/ccV1QtaS.ltrans2.ltrans.o
 .text.freejob  0x0041843c       0x64 /home/notlean/openwrt-uboost/tmp/ccV1QtaS.ltrans2.ltrans.o
 .text.recordregion
                0x004184a0       0x48 /home/notlean/openwrt-uboost/tmp/ccV1QtaS.ltrans2.ltrans.o
 .text.removerecordregions
                0x004184e8       0xac /home/notlean/openwrt-uboost/tmp/ccV1QtaS.ltrans2.ltrans.o
 .text.clearcmdentry
                0x00418594       0x6c /home/notlean/openwrt-uboost/tmp/ccV1QtaS.ltrans2.ltrans.o
 .text.changepath.lto_priv.0
                0x00418600       0x40 /home/notlean/openwrt-uboost/tmp/ccV1QtaS.ltrans2.ltrans.o
                0x00418601                changepath.lto_priv.0
 .text.force_int_on.lto_priv.0
                0x00418640       0x20 /home/notlean/openwrt-uboost/tmp/ccV1QtaS.ltrans2.ltrans.o
                0x00418641                force_int_on.lto_priv.0
 .text.flush_stdout_stderr.lto_priv.0
                0x00418660       0x20 /home/notlean/openwrt-uboost/tmp/ccV1QtaS.ltrans2.ltrans.o
                0x00418661                flush_stdout_stderr.lto_priv.0
 .text.newline_and_flush.lto_priv.0
                0x00418680       0x2c /home/notlean/openwrt-uboost/tmp/ccV1QtaS.ltrans2.ltrans.o
                0x00418681                newline_and_flush.lto_priv.0
 .text.showjob  0x004186ac      0x17c /home/notlean/openwrt-uboost/tmp/ccV1QtaS.ltrans2.ltrans.o
 .text.out1fmt.lto_priv.0
                0x00418828       0x28 /home/notlean/openwrt-uboost/tmp/ccV1QtaS.ltrans2.ltrans.o
                0x00418829                out1fmt.lto_priv.0
 .text.out2str.lto_priv.0
                0x00418850       0x2c /home/notlean/openwrt-uboost/tmp/ccV1QtaS.ltrans2.ltrans.o
                0x00418851                out2str.lto_priv.0
 .text.dowait   0x0041887c      0x220 /home/notlean/openwrt-uboost/tmp/ccV1QtaS.ltrans2.ltrans.o
 .text.freefunc.lto_priv.0
                0x00418a9c       0x1c /home/notlean/openwrt-uboost/tmp/ccV1QtaS.ltrans2.ltrans.o
                0x00418a9d                freefunc.lto_priv.0
 .text.ash_vmsg.lto_priv.0
                0x00418ab8       0x78 /home/notlean/openwrt-uboost/tmp/ccV1QtaS.ltrans2.ltrans.o
                0x00418ab9                ash_vmsg.lto_priv.0
 .text.ash_msg_and_raise_error.lto_priv.0
                0x00418b30       0x24 /home/notlean/openwrt-uboost/tmp/ccV1QtaS.ltrans2.ltrans.o
                0x00418b31                ash_msg_and_raise_error.lto_priv.0
 .text.xtcsetpgrp
                0x00418b54       0x1c /home/notlean/openwrt-uboost/tmp/ccV1QtaS.ltrans2.ltrans.o
 .text.xdup_CLOEXEC_and_close
                0x00418b70       0x4c /home/notlean/openwrt-uboost/tmp/ccV1QtaS.ltrans2.ltrans.o
 .text.raise_error_syntax.lto_priv.0
                0x00418bbc       0x24 /home/notlean/openwrt-uboost/tmp/ccV1QtaS.ltrans2.ltrans.o
                0x00418bbd                raise_error_syntax.lto_priv.0
 .text.ash_msg.lto_priv.0
                0x00418be0       0x10 /home/notlean/openwrt-uboost/tmp/ccV1QtaS.ltrans2.ltrans.o
                0x00418be1                ash_msg.lto_priv.0
 .text.errmsg.lto_priv.0
                0x00418bf0       0x18 /home/notlean/openwrt-uboost/tmp/ccV1QtaS.ltrans2.ltrans.o
                0x00418bf1                errmsg.lto_priv.0
 .text.stalloc.lto_priv.0
                0x00418c08       0x6c /home/notlean/openwrt-uboost/tmp/ccV1QtaS.ltrans2.ltrans.o
                0x00418c09                stalloc.lto_priv.0
 .text.pushstackmark
                0x00418c74       0x24 /home/notlean/openwrt-uboost/tmp/ccV1QtaS.ltrans2.ltrans.o
 .text.growstackblock
                0x00418c98       0xb8 /home/notlean/openwrt-uboost/tmp/ccV1QtaS.ltrans2.ltrans.o
 .text.stzalloc.lto_priv.0
                0x00418d50       0x18 /home/notlean/openwrt-uboost/tmp/ccV1QtaS.ltrans2.ltrans.o
                0x00418d51                stzalloc.lto_priv.0
 .text.sstrdup.lto_priv.0
                0x00418d68       0x34 /home/notlean/openwrt-uboost/tmp/ccV1QtaS.ltrans2.ltrans.o
                0x00418d69                sstrdup.lto_priv.0
 .text.addfname
                0x00418d9c       0x24 /home/notlean/openwrt-uboost/tmp/ccV1QtaS.ltrans2.ltrans.o
 .text.expmeta  0x00418dc0      0x218 /home/notlean/openwrt-uboost/tmp/ccV1QtaS.ltrans2.ltrans.o
 .text.setstackmark.lto_priv.0
                0x00418fd8       0x30 /home/notlean/openwrt-uboost/tmp/ccV1QtaS.ltrans2.ltrans.o
                0x00418fd9                setstackmark.lto_priv.0
 .text.popstackmark.lto_priv.0
                0x00419008       0x48 /home/notlean/openwrt-uboost/tmp/ccV1QtaS.ltrans2.ltrans.o
                0x00419009                popstackmark.lto_priv.0
 .text.growstackstr.lto_priv.0
                0x00419050       0x1c /home/notlean/openwrt-uboost/tmp/ccV1QtaS.ltrans2.ltrans.o
                0x00419051                growstackstr.lto_priv.0
 .text.growstackto.lto_priv.0
                0x0041906c       0x1c /home/notlean/openwrt-uboost/tmp/ccV1QtaS.ltrans2.ltrans.o
                0x0041906d                growstackto.lto_priv.0
 .text.makestrspace.lto_priv.0
                0x00419088       0x1c /home/notlean/openwrt-uboost/tmp/ccV1QtaS.ltrans2.ltrans.o
                0x00419089                makestrspace.lto_priv.0
 .text.stnputs  0x004190a4       0x1c /home/notlean/openwrt-uboost/tmp/ccV1QtaS.ltrans2.ltrans.o
 .text.cmdputs  0x004190c0      0x150 /home/notlean/openwrt-uboost/tmp/ccV1QtaS.ltrans2.ltrans.o
 .text.cmdtxt   0x00419210      0x290 /home/notlean/openwrt-uboost/tmp/ccV1QtaS.ltrans2.ltrans.o
 .text.memtodest
                0x004194a0       0x9c /home/notlean/openwrt-uboost/tmp/ccV1QtaS.ltrans2.ltrans.o
 .text.strtodest
                0x0041953c       0x1c /home/notlean/openwrt-uboost/tmp/ccV1QtaS.ltrans2.ltrans.o
 .text.cvtnum   0x00419558       0x24 /home/notlean/openwrt-uboost/tmp/ccV1QtaS.ltrans2.ltrans.o
 .text.stack_putstr.lto_priv.0
                0x0041957c       0x18 /home/notlean/openwrt-uboost/tmp/ccV1QtaS.ltrans2.ltrans.o
                0x0041957d                stack_putstr.lto_priv.0
 .text._STPUTC.lto_priv.0
                0x00419594       0x24 /home/notlean/openwrt-uboost/tmp/ccV1QtaS.ltrans2.ltrans.o
                0x00419595                _STPUTC.lto_priv.0
 .text.is_number.lto_priv.0
                0x004195b8       0x18 /home/notlean/openwrt-uboost/tmp/ccV1QtaS.ltrans2.ltrans.o
                0x004195b9                is_number.lto_priv.0
 .text.getjob   0x004195d0       0xf4 /home/notlean/openwrt-uboost/tmp/ccV1QtaS.ltrans2.ltrans.o
 .text.killcmd.lto_priv.0
                0x004196c4       0xe8 /home/notlean/openwrt-uboost/tmp/ccV1QtaS.ltrans2.ltrans.o
                0x004196c5                killcmd.lto_priv.0
 .text.number.lto_priv.0
                0x004197ac       0x20 /home/notlean/openwrt-uboost/tmp/ccV1QtaS.ltrans2.ltrans.o
                0x004197ad                number.lto_priv.0
 .text.getoptsreset.lto_priv.0
                0x004197cc       0x2c /home/notlean/openwrt-uboost/tmp/ccV1QtaS.ltrans2.ltrans.o
                0x004197cd                getoptsreset.lto_priv.0
 .text.single_quote.lto_priv.0
                0x004197f8       0x8c /home/notlean/openwrt-uboost/tmp/ccV1QtaS.ltrans2.ltrans.o
                0x004197f9                single_quote.lto_priv.0
 .text.printalias
                0x00419884       0x1c /home/notlean/openwrt-uboost/tmp/ccV1QtaS.ltrans2.ltrans.o
 .text.maybe_single_quote.lto_priv.0
                0x004198a0       0x34 /home/notlean/openwrt-uboost/tmp/ccV1QtaS.ltrans2.ltrans.o
                0x004198a1                maybe_single_quote.lto_priv.0
 .text.nextopt.lto_priv.0
                0x004198d4       0x90 /home/notlean/openwrt-uboost/tmp/ccV1QtaS.ltrans2.ltrans.o
                0x004198d5                nextopt.lto_priv.0
 .text.cdopt    0x00419964       0x28 /home/notlean/openwrt-uboost/tmp/ccV1QtaS.ltrans2.ltrans.o
 .text.waitcmd.lto_priv.0
                0x0041998c      0x110 /home/notlean/openwrt-uboost/tmp/ccV1QtaS.ltrans2.ltrans.o
                0x0041998d                waitcmd.lto_priv.0
 .text.freeparam.lto_priv.0
                0x00419a9c       0x24 /home/notlean/openwrt-uboost/tmp/ccV1QtaS.ltrans2.ltrans.o
                0x00419a9d                freeparam.lto_priv.0
 .text.varcmp.lto_priv.0
                0x00419ac0       0x24 /home/notlean/openwrt-uboost/tmp/ccV1QtaS.ltrans2.ltrans.o
                0x00419ac1                varcmp.lto_priv.0
 .text.vpcmp.lto_priv.0
                0x00419ae4       0x10 /home/notlean/openwrt-uboost/tmp/ccV1QtaS.ltrans2.ltrans.o
                0x00419ae5                vpcmp.lto_priv.0
 .text.hashvar.lto_priv.0
                0x00419af4       0x2c /home/notlean/openwrt-uboost/tmp/ccV1QtaS.ltrans2.ltrans.o
                0x00419af5                hashvar.lto_priv.0
 .text.findvar.lto_priv.0
                0x00419b20       0x20 /home/notlean/openwrt-uboost/tmp/ccV1QtaS.ltrans2.ltrans.o
                0x00419b21                findvar.lto_priv.0
 .text.lookupvar.lto_priv.0
                0x00419b40       0x88 /home/notlean/openwrt-uboost/tmp/ccV1QtaS.ltrans2.ltrans.o
                0x00419b41                lookupvar.lto_priv.0
 .text.setvareq.lto_priv.0
                0x00419bc8      0x120 /home/notlean/openwrt-uboost/tmp/ccV1QtaS.ltrans2.ltrans.o
                0x00419bc9                setvareq.lto_priv.0
 .text.setvar.lto_priv.0
                0x00419ce8       0xa8 /home/notlean/openwrt-uboost/tmp/ccV1QtaS.ltrans2.ltrans.o
                0x00419ce9                setvar.lto_priv.0
 .text.setvar0.lto_priv.0
                0x00419d90        0xc /home/notlean/openwrt-uboost/tmp/ccV1QtaS.ltrans2.ltrans.o
                0x00419d91                setvar0.lto_priv.0
 .text.unsetvar.lto_priv.0
                0x00419d9c       0x10 /home/notlean/openwrt-uboost/tmp/ccV1QtaS.ltrans2.ltrans.o
                0x00419d9d                unsetvar.lto_priv.0
 .text.padvance.lto_priv.0
                0x00419dac       0xd8 /home/notlean/openwrt-uboost/tmp/ccV1QtaS.ltrans2.ltrans.o
                0x00419dad                padvance.lto_priv.0
 .text.setprompt_if.lto_priv.0
                0x00419e84       0x74 /home/notlean/openwrt-uboost/tmp/ccV1QtaS.ltrans2.ltrans.o
                0x00419e85                setprompt_if.lto_priv.0
 .text.setpwd.lto_priv.0
                0x00419ef8       0xa4 /home/notlean/openwrt-uboost/tmp/ccV1QtaS.ltrans2.ltrans.o
                0x00419ef9                setpwd.lto_priv.0
 .text.cdcmd.lto_priv.0
                0x00419f9c      0x27c /home/notlean/openwrt-uboost/tmp/ccV1QtaS.ltrans2.ltrans.o
                0x00419f9d                cdcmd.lto_priv.0
 .text.pwdcmd.lto_priv.0
                0x0041a218       0x38 /home/notlean/openwrt-uboost/tmp/ccV1QtaS.ltrans2.ltrans.o
                0x0041a219                pwdcmd.lto_priv.0
 .text.__lookupalias.lto_priv.0
                0x0041a250       0x40 /home/notlean/openwrt-uboost/tmp/ccV1QtaS.ltrans2.ltrans.o
                0x0041a251                __lookupalias.lto_priv.0
 .text.aliascmd.lto_priv.0
                0x0041a290       0xe8 /home/notlean/openwrt-uboost/tmp/ccV1QtaS.ltrans2.ltrans.o
                0x0041a291                aliascmd.lto_priv.0
 .text.unalias.lto_priv.0
                0x0041a378       0x34 /home/notlean/openwrt-uboost/tmp/ccV1QtaS.ltrans2.ltrans.o
                0x0041a379                unalias.lto_priv.0
 .text.unaliascmd.lto_priv.0
                0x0041a3ac       0x9c /home/notlean/openwrt-uboost/tmp/ccV1QtaS.ltrans2.ltrans.o
                0x0041a3ad                unaliascmd.lto_priv.0
 .text.setsignal.lto_priv.0
                0x0041a448      0x11c /home/notlean/openwrt-uboost/tmp/ccV1QtaS.ltrans2.ltrans.o
                0x0041a449                setsignal.lto_priv.0
 .text.forkchild
                0x0041a564      0x1e4 /home/notlean/openwrt-uboost/tmp/ccV1QtaS.ltrans2.ltrans.o
 .text.setjobctl.lto_priv.0
                0x0041a748      0x130 /home/notlean/openwrt-uboost/tmp/ccV1QtaS.ltrans2.ltrans.o
                0x0041a749                setjobctl.lto_priv.0
 .text.showjobs.lto_priv.0
                0x0041a878       0x34 /home/notlean/openwrt-uboost/tmp/ccV1QtaS.ltrans2.ltrans.o
                0x0041a879                showjobs.lto_priv.0
 .text.jobscmd.lto_priv.0
                0x0041a8ac       0x50 /home/notlean/openwrt-uboost/tmp/ccV1QtaS.ltrans2.ltrans.o
                0x0041a8ad                jobscmd.lto_priv.0
 .text.makejob.lto_priv.0
                0x0041a8fc      0x110 /home/notlean/openwrt-uboost/tmp/ccV1QtaS.ltrans2.ltrans.o
                0x0041a8fd                makejob.lto_priv.0
 .text.forkshell.lto_priv.0
                0x0041aa0c       0xd0 /home/notlean/openwrt-uboost/tmp/ccV1QtaS.ltrans2.ltrans.o
                0x0041aa0d                forkshell.lto_priv.0
 .text.waitforjob.lto_priv.0
                0x0041aadc       0x64 /home/notlean/openwrt-uboost/tmp/ccV1QtaS.ltrans2.ltrans.o
                0x0041aadd                waitforjob.lto_priv.0
 .text.fg_bgcmd.lto_priv.0
                0x0041ab40      0x118 /home/notlean/openwrt-uboost/tmp/ccV1QtaS.ltrans2.ltrans.o
                0x0041ab41                fg_bgcmd.lto_priv.0
 .text.stoppedjobs.lto_priv.0
                0x0041ac58       0x3c /home/notlean/openwrt-uboost/tmp/ccV1QtaS.ltrans2.ltrans.o
                0x0041ac59                stoppedjobs.lto_priv.0
 .text.popredir.lto_priv.0
                0x0041ac94       0x80 /home/notlean/openwrt-uboost/tmp/ccV1QtaS.ltrans2.ltrans.o
                0x0041ac95                popredir.lto_priv.0
 .text.ash_arith.lto_priv.0
                0x0041ad14       0x48 /home/notlean/openwrt-uboost/tmp/ccV1QtaS.ltrans2.ltrans.o
                0x0041ad15                ash_arith.lto_priv.0
 .text.ifsfree.lto_priv.0
                0x0041ad5c       0x38 /home/notlean/openwrt-uboost/tmp/ccV1QtaS.ltrans2.ltrans.o
                0x0041ad5d                ifsfree.lto_priv.0
 .text.varvalue
                0x0041ad94      0x1d8 /home/notlean/openwrt-uboost/tmp/ccV1QtaS.ltrans2.ltrans.o
 .text.rmescapes.lto_priv.0
                0x0041af6c      0x13c /home/notlean/openwrt-uboost/tmp/ccV1QtaS.ltrans2.ltrans.o
                0x0041af6d                rmescapes.lto_priv.0
 .text.shellexec.lto_priv.0
                0x0041b0a8       0xc8 /home/notlean/openwrt-uboost/tmp/ccV1QtaS.ltrans2.ltrans.o
                0x0041b0a9                shellexec.lto_priv.0
 .text.cmdlookup.lto_priv.0
                0x0041b170       0x80 /home/notlean/openwrt-uboost/tmp/ccV1QtaS.ltrans2.ltrans.o
                0x0041b171                cmdlookup.lto_priv.0
 .text.delete_cmd_entry.lto_priv.0
                0x0041b1f0       0x3c /home/notlean/openwrt-uboost/tmp/ccV1QtaS.ltrans2.ltrans.o
                0x0041b1f1                delete_cmd_entry.lto_priv.0
 .text.hashcmd.lto_priv.0
                0x0041b22c      0x108 /home/notlean/openwrt-uboost/tmp/ccV1QtaS.ltrans2.ltrans.o
                0x0041b22d                hashcmd.lto_priv.0
 .text.findkwd.lto_priv.0
                0x0041b334       0x1c /home/notlean/openwrt-uboost/tmp/ccV1QtaS.ltrans2.ltrans.o
                0x0041b335                findkwd.lto_priv.0
 .text.describe_command
                0x0041b350      0x124 /home/notlean/openwrt-uboost/tmp/ccV1QtaS.ltrans2.ltrans.o
 .text.typecmd.lto_priv.0
                0x0041b474       0x38 /home/notlean/openwrt-uboost/tmp/ccV1QtaS.ltrans2.ltrans.o
                0x0041b475                typecmd.lto_priv.0
 .text.commandcmd.lto_priv.0
                0x0041b4ac       0x44 /home/notlean/openwrt-uboost/tmp/ccV1QtaS.ltrans2.ltrans.o
                0x0041b4ad                commandcmd.lto_priv.0
 .text.expredir.lto_priv.0
                0x0041b4f0       0xa0 /home/notlean/openwrt-uboost/tmp/ccV1QtaS.ltrans2.ltrans.o
                0x0041b4f1                expredir.lto_priv.0
 .text.evaltree.lto_priv.0
                0x0041b590      0x268 /home/notlean/openwrt-uboost/tmp/ccV1QtaS.ltrans2.ltrans.o
                0x0041b591                evaltree.lto_priv.0
 .text.argstr   0x0041b7f8      0x538 /home/notlean/openwrt-uboost/tmp/ccV1QtaS.ltrans2.ltrans.o
 .text.evalvar  0x0041bd30      0x1c4 /home/notlean/openwrt-uboost/tmp/ccV1QtaS.ltrans2.ltrans.o
 .text.expandarg.lto_priv.0
                0x0041bef4      0x2f8 /home/notlean/openwrt-uboost/tmp/ccV1QtaS.ltrans2.ltrans.o
                0x0041bef5                expandarg.lto_priv.0
 .text.redirect.lto_priv.0
                0x0041c1ec      0x38c /home/notlean/openwrt-uboost/tmp/ccV1QtaS.ltrans2.ltrans.o
                0x0041c1ed                redirect.lto_priv.0
 .text.fill_arglist.lto_priv.0
                0x0041c578       0x28 /home/notlean/openwrt-uboost/tmp/ccV1QtaS.ltrans2.ltrans.o
                0x0041c579                fill_arglist.lto_priv.0
 .text.evalpipe
                0x0041c5a0      0x10c /home/notlean/openwrt-uboost/tmp/ccV1QtaS.ltrans2.ltrans.o
 .text.evalfor  0x0041c6ac       0x88 /home/notlean/openwrt-uboost/tmp/ccV1QtaS.ltrans2.ltrans.o
 .text.evalloop
                0x0041c734       0x60 /home/notlean/openwrt-uboost/tmp/ccV1QtaS.ltrans2.ltrans.o
 .text.evalcase
                0x0041c794       0xc4 /home/notlean/openwrt-uboost/tmp/ccV1QtaS.ltrans2.ltrans.o
 .text.evalsubshell
                0x0041c858       0xa8 /home/notlean/openwrt-uboost/tmp/ccV1QtaS.ltrans2.ltrans.o
 .text.optschanged.lto_priv.0
                0x0041c900       0xa4 /home/notlean/openwrt-uboost/tmp/ccV1QtaS.ltrans2.ltrans.o
                0x0041c901                optschanged.lto_priv.0
 .text.unwindlocalvars.lto_priv.0
                0x0041c9a4       0xc8 /home/notlean/openwrt-uboost/tmp/ccV1QtaS.ltrans2.ltrans.o
                0x0041c9a5                unwindlocalvars.lto_priv.0
 .text.falsecmd.lto_priv.0
                0x0041ca6c        0x4 /home/notlean/openwrt-uboost/tmp/ccV1QtaS.ltrans3.ltrans.o
                0x0041ca6d                falsecmd.lto_priv.0
 .text.truecmd.lto_priv.0
                0x0041ca70        0x4 /home/notlean/openwrt-uboost/tmp/ccV1QtaS.ltrans3.ltrans.o
                0x0041ca71                truecmd.lto_priv.0
 .text.get_builtin_name.lto_priv.0
                0x0041ca74       0x18 /home/notlean/openwrt-uboost/tmp/ccV1QtaS.ltrans3.ltrans.o
                0x0041ca75                get_builtin_name.lto_priv.0
 .text.bltincmd
                0x0041ca8c        0xc /home/notlean/openwrt-uboost/tmp/ccV1QtaS.ltrans3.ltrans.o
 .text.nlnoprompt
                0x0041ca98       0x30 /home/notlean/openwrt-uboost/tmp/ccV1QtaS.ltrans3.ltrans.o
 .text.pungetc  0x0041cac8       0x10 /home/notlean/openwrt-uboost/tmp/ccV1QtaS.ltrans3.ltrans.o
 .text.evalfun  0x0041cad8      0x124 /home/notlean/openwrt-uboost/tmp/ccV1QtaS.ltrans3.ltrans.o
 .text.popstring
                0x0041cbfc       0x90 /home/notlean/openwrt-uboost/tmp/ccV1QtaS.ltrans3.ltrans.o
 .text.pushfile
                0x0041cc8c       0x20 /home/notlean/openwrt-uboost/tmp/ccV1QtaS.ltrans3.ltrans.o
 .text.mklocal  0x0041ccac      0x100 /home/notlean/openwrt-uboost/tmp/ccV1QtaS.ltrans3.ltrans.o
 .text.localcmd
                0x0041cdac       0x34 /home/notlean/openwrt-uboost/tmp/ccV1QtaS.ltrans3.ltrans.o
 .text.execcmd  0x0041cde0       0x6c /home/notlean/openwrt-uboost/tmp/ccV1QtaS.ltrans3.ltrans.o
 .text.returncmd
                0x0041ce4c       0x2c /home/notlean/openwrt-uboost/tmp/ccV1QtaS.ltrans3.ltrans.o
 .text.breakcmd
                0x0041ce78       0x58 /home/notlean/openwrt-uboost/tmp/ccV1QtaS.ltrans3.ltrans.o
 .text.shiftcmd
                0x0041ced0       0x8c /home/notlean/openwrt-uboost/tmp/ccV1QtaS.ltrans3.ltrans.o
 .text.echocmd  0x0041cf5c        0xc /home/notlean/openwrt-uboost/tmp/ccV1QtaS.ltrans3.ltrans.o
 .text.printfcmd
                0x0041cf68        0xc /home/notlean/openwrt-uboost/tmp/ccV1QtaS.ltrans3.ltrans.o
 .text.testcmd  0x0041cf74        0xc /home/notlean/openwrt-uboost/tmp/ccV1QtaS.ltrans3.ltrans.o
 .text.pstrcmp1
                0x0041cf80       0x10 /home/notlean/openwrt-uboost/tmp/ccV1QtaS.ltrans3.ltrans.o
 .text.set_discard_flag
                0x0041cf90       0x6c /home/notlean/openwrt-uboost/tmp/ccV1QtaS.ltrans3.ltrans.o
 .text.pushstring
                0x0041cffc       0xa4 /home/notlean/openwrt-uboost/tmp/ccV1QtaS.ltrans3.ltrans.o
 .text.setinputstring
                0x0041d0a0       0x48 /home/notlean/openwrt-uboost/tmp/ccV1QtaS.ltrans3.ltrans.o
 .text.nlprompt
                0x0041d0e8       0x30 /home/notlean/openwrt-uboost/tmp/ccV1QtaS.ltrans3.ltrans.o
 .text.freestrings
                0x0041d118       0x58 /home/notlean/openwrt-uboost/tmp/ccV1QtaS.ltrans3.ltrans.o
 .text.historycmd
                0x0041d170       0x3c /home/notlean/openwrt-uboost/tmp/ccV1QtaS.ltrans3.ltrans.o
 .text.__pgetc  0x0041d1ac      0x71c /home/notlean/openwrt-uboost/tmp/ccV1QtaS.ltrans3.ltrans.o
 .text.pgetc    0x0041d8c8       0x20 /home/notlean/openwrt-uboost/tmp/ccV1QtaS.ltrans3.ltrans.o
 .text.pgetc_eatbnl
                0x0041d8e8       0x2c /home/notlean/openwrt-uboost/tmp/ccV1QtaS.ltrans3.ltrans.o
 .text.setparam
                0x0041d914       0x54 /home/notlean/openwrt-uboost/tmp/ccV1QtaS.ltrans3.ltrans.o
 .text.popfile  0x0041d968       0x64 /home/notlean/openwrt-uboost/tmp/ccV1QtaS.ltrans3.ltrans.o
 .text.setinputfile
                0x0041d9cc       0xbc /home/notlean/openwrt-uboost/tmp/ccV1QtaS.ltrans3.ltrans.o
 .text.options  0x0041da88      0x1e0 /home/notlean/openwrt-uboost/tmp/ccV1QtaS.ltrans3.ltrans.o
 .text.showvars
                0x0041dc68       0x84 /home/notlean/openwrt-uboost/tmp/ccV1QtaS.ltrans3.ltrans.o
 .text.setcmd   0x0041dcec       0x50 /home/notlean/openwrt-uboost/tmp/ccV1QtaS.ltrans3.ltrans.o
 .text.exportcmd
                0x0041dd3c       0x98 /home/notlean/openwrt-uboost/tmp/ccV1QtaS.ltrans3.ltrans.o
 .text.change_random
                0x0041ddd4       0xe0 /home/notlean/openwrt-uboost/tmp/ccV1QtaS.ltrans3.ltrans.o
 .text.change_epoch
                0x0041deb4       0x44 /home/notlean/openwrt-uboost/tmp/ccV1QtaS.ltrans3.ltrans.o
 .text.change_seconds
                0x0041def8       0x20 /home/notlean/openwrt-uboost/tmp/ccV1QtaS.ltrans3.ltrans.o
 .text.change_realtime
                0x0041df18       0x20 /home/notlean/openwrt-uboost/tmp/ccV1QtaS.ltrans3.ltrans.o
 .text.getoptscmd
                0x0041df38      0x210 /home/notlean/openwrt-uboost/tmp/ccV1QtaS.ltrans3.ltrans.o
 .text.tokname  0x0041e148       0x28 /home/notlean/openwrt-uboost/tmp/ccV1QtaS.ltrans3.ltrans.o
 .text.raise_error_unexpected_syntax
                0x0041e170       0x50 /home/notlean/openwrt-uboost/tmp/ccV1QtaS.ltrans3.ltrans.o
 .text.makename
                0x0041e1c0       0x24 /home/notlean/openwrt-uboost/tmp/ccV1QtaS.ltrans3.ltrans.o
 .text.set_priority_flag
                0x0041e1e4       0x4c /home/notlean/openwrt-uboost/tmp/ccV1QtaS.ltrans3.ltrans.o
 .text.readtoken
                0x0041e230       0xac /home/notlean/openwrt-uboost/tmp/ccV1QtaS.ltrans3.ltrans.o
 .text.parsefname
                0x0041e2dc       0xbc /home/notlean/openwrt-uboost/tmp/ccV1QtaS.ltrans3.ltrans.o
 .text.readtoken1
                0x0041e398      0xd7c /home/notlean/openwrt-uboost/tmp/ccV1QtaS.ltrans3.ltrans.o
 .text.xxreadtoken
                0x0041f114       0xc8 /home/notlean/openwrt-uboost/tmp/ccV1QtaS.ltrans3.ltrans.o
 .text.parseheredoc
                0x0041f1dc       0x7c /home/notlean/openwrt-uboost/tmp/ccV1QtaS.ltrans3.ltrans.o
 .text.list     0x0041f258      0x148 /home/notlean/openwrt-uboost/tmp/ccV1QtaS.ltrans3.ltrans.o
 .text.parse_command
                0x0041f3a0      0x570 /home/notlean/openwrt-uboost/tmp/ccV1QtaS.ltrans3.ltrans.o
 .text.pipeline
                0x0041f910       0x98 /home/notlean/openwrt-uboost/tmp/ccV1QtaS.ltrans3.ltrans.o
 .text.parsecmd
                0x0041f9a8       0x40 /home/notlean/openwrt-uboost/tmp/ccV1QtaS.ltrans3.ltrans.o
 .text.exitcmd  0x0041f9e8       0x28 /home/notlean/openwrt-uboost/tmp/ccV1QtaS.ltrans3.ltrans.o
 .text.cmdloop  0x0041fa10       0xd0 /home/notlean/openwrt-uboost/tmp/ccV1QtaS.ltrans3.ltrans.o
 .text.dotcmd   0x0041fae0      0x104 /home/notlean/openwrt-uboost/tmp/ccV1QtaS.ltrans3.ltrans.o
 .text.unsetcmd
                0x0041fbe4       0x50 /home/notlean/openwrt-uboost/tmp/ccV1QtaS.ltrans3.ltrans.o
 .text.trapcmd  0x0041fc34      0x140 /home/notlean/openwrt-uboost/tmp/ccV1QtaS.ltrans3.ltrans.o
 .text.timescmd
                0x0041fd74       0x64 /home/notlean/openwrt-uboost/tmp/ccV1QtaS.ltrans3.ltrans.o
 .text.letcmd   0x0041fdd8       0x2c /home/notlean/openwrt-uboost/tmp/ccV1QtaS.ltrans3.ltrans.o
 .text.readcmd  0x0041fe04      0x4d0 /home/notlean/openwrt-uboost/tmp/ccV1QtaS.ltrans3.ltrans.o
 .text.umaskcmd
                0x004202d4      0x108 /home/notlean/openwrt-uboost/tmp/ccV1QtaS.ltrans3.ltrans.o
 .text.printlim
                0x004203dc       0x44 /home/notlean/openwrt-uboost/tmp/ccV1QtaS.ltrans3.ltrans.o
 .text.ulimitcmd
                0x00420420      0x210 /home/notlean/openwrt-uboost/tmp/ccV1QtaS.ltrans3.ltrans.o
 .text.exitreset
                0x00420630       0x58 /home/notlean/openwrt-uboost/tmp/ccV1QtaS.ltrans3.ltrans.o
 .text.init     0x00420688      0x158 /home/notlean/openwrt-uboost/tmp/ccV1QtaS.ltrans3.ltrans.o
 .text.decode   0x004207e0       0x34 /home/notlean/openwrt-uboost/tmp/ccV1QtaS.ltrans3.ltrans.o
 .text.logger_main
                0x00420814      0x148 /home/notlean/openwrt-uboost/tmp/ccV1QtaS.ltrans3.ltrans.o
                0x00420815                logger_main
 .text.dmesg_main
                0x0042095c       0xe4 /home/notlean/openwrt-uboost/tmp/ccV1QtaS.ltrans3.ltrans.o
                0x0042095d                dmesg_main
 .text.flock_main
                0x00420a40      0x120 /home/notlean/openwrt-uboost/tmp/ccV1QtaS.ltrans3.ltrans.o
                0x00420a41                flock_main
 .text.read_rtc
                0x00420b60       0x84 /home/notlean/openwrt-uboost/tmp/ccV1QtaS.ltrans3.ltrans.o
 .text.set_kernel_tz
                0x00420be4       0x20 /home/notlean/openwrt-uboost/tmp/ccV1QtaS.ltrans3.ltrans.o
 .text.set_kernel_timezone_and_clock
                0x00420c04       0x44 /home/notlean/openwrt-uboost/tmp/ccV1QtaS.ltrans3.ltrans.o
 .text.hwclock_main
                0x00420c48      0x10c /home/notlean/openwrt-uboost/tmp/ccV1QtaS.ltrans3.ltrans.o
                0x00420c49                hwclock_main
 .text.append_mount_options
                0x00420d54       0x84 /home/notlean/openwrt-uboost/tmp/ccV1QtaS.ltrans3.ltrans.o
 .text.parse_mount_options
                0x00420dd8       0xe8 /home/notlean/openwrt-uboost/tmp/ccV1QtaS.ltrans3.ltrans.o
 .text.mount_it_now
                0x00420ec0       0xf4 /home/notlean/openwrt-uboost/tmp/ccV1QtaS.ltrans3.ltrans.o
 .text.cut_out_ull_opt
                0x00420fb4       0x88 /home/notlean/openwrt-uboost/tmp/ccV1QtaS.ltrans3.ltrans.o
 .text.singlemount
                0x0042103c      0x664 /home/notlean/openwrt-uboost/tmp/ccV1QtaS.ltrans3.ltrans.o
 .text.mount_main
                0x004216a0      0x320 /home/notlean/openwrt-uboost/tmp/ccV1QtaS.ltrans3.ltrans.o
                0x004216a1                mount_main
 .text.pivot_root_main
                0x004219c0       0x28 /home/notlean/openwrt-uboost/tmp/ccV1QtaS.ltrans3.ltrans.o
                0x004219c1                pivot_root_main
 .text.swap_enable_disable
                0x004219e8       0xa0 /home/notlean/openwrt-uboost/tmp/ccV1QtaS.ltrans3.ltrans.o
 .text.swap_on_off_main
                0x00421a88      0x190 /home/notlean/openwrt-uboost/tmp/ccV1QtaS.ltrans3.ltrans.o
                0x00421a89                swap_on_off_main
 .text.unwindfiles.lto_priv.0
                0x00421c18       0x1c /home/notlean/openwrt-uboost/tmp/ccV1QtaS.ltrans3.ltrans.o
                0x00421c19                unwindfiles.lto_priv.0
 .text.expandstr.lto_priv.0
                0x00421c34       0xc4 /home/notlean/openwrt-uboost/tmp/ccV1QtaS.ltrans3.ltrans.o
                0x00421c35                expandstr.lto_priv.0
 .text.read_profile
                0x00421cf8       0x24 /home/notlean/openwrt-uboost/tmp/ccV1QtaS.ltrans3.ltrans.o
 .text.evalstring.lto_priv.0
                0x00421d1c       0xc0 /home/notlean/openwrt-uboost/tmp/ccV1QtaS.ltrans3.ltrans.o
                0x00421d1d                evalstring.lto_priv.0
 .text.evalbltin
                0x00421ddc       0xf8 /home/notlean/openwrt-uboost/tmp/ccV1QtaS.ltrans3.ltrans.o
 .text.exitshell
                0x00421ed4       0x78 /home/notlean/openwrt-uboost/tmp/ccV1QtaS.ltrans3.ltrans.o
 .text.ash_main
                0x00421f4c      0x358 /home/notlean/openwrt-uboost/tmp/ccV1QtaS.ltrans3.ltrans.o
                0x00421f4d                ash_main
 .text.find_command.lto_priv.0
                0x004222a4      0x290 /home/notlean/openwrt-uboost/tmp/ccV1QtaS.ltrans3.ltrans.o
                0x004222a5                find_command.lto_priv.0
 .text.evalcommand.lto_priv.0
                0x00422534      0x4a4 /home/notlean/openwrt-uboost/tmp/ccV1QtaS.ltrans3.ltrans.o
                0x00422535                evalcommand.lto_priv.0
 .text.evaluate_string.lto_priv.0
                0x004229d8      0x2e8 /home/notlean/openwrt-uboost/tmp/ccV1QtaS.ltrans3.ltrans.o
                0x004229d9                evaluate_string.lto_priv.0
 .text.arith_lookup_val
                0x00422cc0       0x6c /home/notlean/openwrt-uboost/tmp/ccV1QtaS.ltrans3.ltrans.o
 .text.arith_apply
                0x00422d2c      0x490 /home/notlean/openwrt-uboost/tmp/ccV1QtaS.ltrans3.ltrans.o
 .text.delete_contents.lto_priv.0
                0x004231bc       0x48 /home/notlean/openwrt-uboost/tmp/ccV1QtaS.ltrans3.ltrans.o
                0x004231bd                delete_contents.lto_priv.0
 .text.rmrf     0x00423204       0x24 /home/notlean/openwrt-uboost/tmp/ccV1QtaS.ltrans3.ltrans.o
 .text.init_block
                0x00423228       0x64 /home/notlean/openwrt-uboost/tmp/ccV1QtaS.ltrans4.ltrans.o
 .text.pqdownheap
                0x0042328c       0xa0 /home/notlean/openwrt-uboost/tmp/ccV1QtaS.ltrans4.ltrans.o
 .text.gen_codes
                0x0042332c       0x64 /home/notlean/openwrt-uboost/tmp/ccV1QtaS.ltrans4.ltrans.o
 .text.build_tree
                0x00423390      0x2c8 /home/notlean/openwrt-uboost/tmp/ccV1QtaS.ltrans4.ltrans.o
 .text.scan_tree
                0x00423658       0xd8 /home/notlean/openwrt-uboost/tmp/ccV1QtaS.ltrans4.ltrans.o
 .text.ct_tally
                0x00423730      0x138 /home/notlean/openwrt-uboost/tmp/ccV1QtaS.ltrans4.ltrans.o
 .text.header_skip
                0x00423868        0x4 /home/notlean/openwrt-uboost/tmp/ccV1QtaS.ltrans4.ltrans.o
 .text.data_skip
                0x0042386c       0x14 /home/notlean/openwrt-uboost/tmp/ccV1QtaS.ltrans4.ltrans.o
 .text.filter_accept_all
                0x00423880        0xc /home/notlean/openwrt-uboost/tmp/ccV1QtaS.ltrans4.ltrans.o
 .text.calculate_gunzip_crc
                0x0042388c       0x3c /home/notlean/openwrt-uboost/tmp/ccV1QtaS.ltrans4.ltrans.o
 .text.cmpfunc  0x004238c8        0x8 /home/notlean/openwrt-uboost/tmp/ccV1QtaS.ltrans4.ltrans.o
 .text.null     0x004238d0       0x28 /home/notlean/openwrt-uboost/tmp/ccV1QtaS.ltrans4.ltrans.o
 .text.false_main
                0x004238f8        0x4 /home/notlean/openwrt-uboost/tmp/ccV1QtaS.ltrans4.ltrans.o
                0x004238f9                false_main
 .text.switch_root_main
                0x004238fc      0x12c /home/notlean/openwrt-uboost/tmp/ccV1QtaS.ltrans4.ltrans.o
                0x004238fd                switch_root_main
 .text.huft_build
                0x00423a28      0x344 /home/notlean/openwrt-uboost/tmp/ccV1QtaS.ltrans4.ltrans.o
 .text.process_pid_str
                0x00423d6c      0x2c0 /home/notlean/openwrt-uboost/tmp/ccV1QtaS.ltrans4.ltrans.o
 .text.iter     0x0042402c       0x24 /home/notlean/openwrt-uboost/tmp/ccV1QtaS.ltrans4.ltrans.o
 .text.append_ext
                0x00424050       0x18 /home/notlean/openwrt-uboost/tmp/ccV1QtaS.ltrans4.ltrans.o
 .text.tostring
                0x00424068       0x24 /home/notlean/openwrt-uboost/tmp/ccV1QtaS.ltrans4.ltrans.o
 .text.taskset_main
                0x0042408c       0x80 /home/notlean/openwrt-uboost/tmp/ccV1QtaS.ltrans4.ltrans.o
                0x0042408d                taskset_main
 .text.huft_free
                0x0042410c       0x1c /home/notlean/openwrt-uboost/tmp/ccV1QtaS.ltrans4.ltrans.o
 .text.freev    0x00424128       0x1c /home/notlean/openwrt-uboost/tmp/ccV1QtaS.ltrans4.ltrans.o
 .text.nextarg  0x00424144       0x28 /home/notlean/openwrt-uboost/tmp/ccV1QtaS.ltrans4.ltrans.o
 .text.str_value
                0x0042416c       0x20 /home/notlean/openwrt-uboost/tmp/ccV1QtaS.ltrans4.ltrans.o
 .text.umount_main
                0x0042418c      0x1b0 /home/notlean/openwrt-uboost/tmp/ccV1QtaS.ltrans4.ltrans.o
                0x0042418d                umount_main
 .text.fileAction.lto_priv.1
                0x0042433c       0x34 /home/notlean/openwrt-uboost/tmp/ccV1QtaS.ltrans4.ltrans.o
 .text.make_new_name_gunzip
                0x00424370       0x54 /home/notlean/openwrt-uboost/tmp/ccV1QtaS.ltrans4.ltrans.o
 .text.flush_outbuf
                0x004243c4       0x24 /home/notlean/openwrt-uboost/tmp/ccV1QtaS.ltrans4.ltrans.o
 .text.put_16bit
                0x004243e8       0x60 /home/notlean/openwrt-uboost/tmp/ccV1QtaS.ltrans4.ltrans.o
 .text.put_32bit
                0x00424448       0x18 /home/notlean/openwrt-uboost/tmp/ccV1QtaS.ltrans4.ltrans.o
 .text.send_bits
                0x00424460       0x40 /home/notlean/openwrt-uboost/tmp/ccV1QtaS.ltrans4.ltrans.o
 .text.send_tree
                0x004244a0      0x114 /home/notlean/openwrt-uboost/tmp/ccV1QtaS.ltrans4.ltrans.o
 .text.compress_block
                0x004245b4      0x118 /home/notlean/openwrt-uboost/tmp/ccV1QtaS.ltrans4.ltrans.o
 .text.bi_windup
                0x004246cc       0x54 /home/notlean/openwrt-uboost/tmp/ccV1QtaS.ltrans4.ltrans.o
 .text.flush_block
                0x00424720      0x1c4 /home/notlean/openwrt-uboost/tmp/ccV1QtaS.ltrans4.ltrans.o
 .text.file_read
                0x004248e4       0x58 /home/notlean/openwrt-uboost/tmp/ccV1QtaS.ltrans4.ltrans.o
 .text.fill_window_if_needed
                0x0042493c      0x10c /home/notlean/openwrt-uboost/tmp/ccV1QtaS.ltrans4.ltrans.o
 .text.deflate  0x00424a48      0x370 /home/notlean/openwrt-uboost/tmp/ccV1QtaS.ltrans4.ltrans.o
 .text.pack_gzip
                0x00424db8      0x2ac /home/notlean/openwrt-uboost/tmp/ccV1QtaS.ltrans4.ltrans.o
 .text.putOctal
                0x00425064       0x54 /home/notlean/openwrt-uboost/tmp/ccV1QtaS.ltrans4.ltrans.o
 .text.buffer_read_le_u32
                0x004250b8       0x34 /home/notlean/openwrt-uboost/tmp/ccV1QtaS.ltrans4.ltrans.o
 .text.chksum_and_xwrite_tar_header
                0x004250ec       0x5c /home/notlean/openwrt-uboost/tmp/ccV1QtaS.ltrans4.ltrans.o
 .text.writeLongname
                0x00425148       0xb8 /home/notlean/openwrt-uboost/tmp/ccV1QtaS.ltrans4.ltrans.o
 .text.dd_output_status
                0x00425200       0x3c /home/notlean/openwrt-uboost/tmp/ccV1QtaS.ltrans4.ltrans.o
 .text.writeTarHeader
                0x0042523c      0x294 /home/notlean/openwrt-uboost/tmp/ccV1QtaS.ltrans4.ltrans.o
 .text.data_extract_to_stdout
                0x004254d0       0x14 /home/notlean/openwrt-uboost/tmp/ccV1QtaS.ltrans4.ltrans.o
 .text.seek_by_read
                0x004254e4       0x18 /home/notlean/openwrt-uboost/tmp/ccV1QtaS.ltrans4.ltrans.o
 .text.find_list_entry2
                0x004254fc       0x70 /home/notlean/openwrt-uboost/tmp/ccV1QtaS.ltrans4.ltrans.o
 .text.filter_accept_reject_list
                0x0042556c       0x2c /home/notlean/openwrt-uboost/tmp/ccV1QtaS.ltrans4.ltrans.o
 .text.vfork_compressor
                0x00425598       0x9c /home/notlean/openwrt-uboost/tmp/ccV1QtaS.ltrans4.ltrans.o
 .text.writeTarFile
                0x00425634       0xc8 /home/notlean/openwrt-uboost/tmp/ccV1QtaS.ltrans4.ltrans.o
 .text.append_file_list_to_list
                0x004256fc       0x4c /home/notlean/openwrt-uboost/tmp/ccV1QtaS.ltrans4.ltrans.o
 .text.chmod_main
                0x00425748       0xa0 /home/notlean/openwrt-uboost/tmp/ccV1QtaS.ltrans4.ltrans.o
                0x00425749                chmod_main
 .text.header_verbose_list
                0x004257e8       0x6c /home/notlean/openwrt-uboost/tmp/ccV1QtaS.ltrans4.ltrans.o
 .text.header_list
                0x00425854       0x10 /home/notlean/openwrt-uboost/tmp/ccV1QtaS.ltrans4.ltrans.o
 .text.seek_by_jump
                0x00425864       0x48 /home/notlean/openwrt-uboost/tmp/ccV1QtaS.ltrans4.ltrans.o
 .text.data_extract_all
                0x004258ac      0x2e0 /home/notlean/openwrt-uboost/tmp/ccV1QtaS.ltrans4.ltrans.o
 .text.abort_unzip
                0x00425b8c       0x20 /home/notlean/openwrt-uboost/tmp/ccV1QtaS.ltrans4.ltrans.o
 .text.fill_bitbuffer
                0x00425bac       0x90 /home/notlean/openwrt-uboost/tmp/ccV1QtaS.ltrans4.ltrans.o
 .text.inflate_codes
                0x00425c3c      0x23c /home/notlean/openwrt-uboost/tmp/ccV1QtaS.ltrans4.ltrans.o
 .text.inflate_block
                0x00425e78      0x3f0 /home/notlean/openwrt-uboost/tmp/ccV1QtaS.ltrans4.ltrans.o
 .text.inflate_unzip_internal
                0x00426268      0x240 /home/notlean/openwrt-uboost/tmp/ccV1QtaS.ltrans4.ltrans.o
 .text.clear_main
                0x004264a8       0x28 /home/notlean/openwrt-uboost/tmp/ccV1QtaS.ltrans4.ltrans.o
                0x004264a9                clear_main
 .text.top_up   0x004264d0       0x5c /home/notlean/openwrt-uboost/tmp/ccV1QtaS.ltrans4.ltrans.o
 .text.unpack_gz_stream
                0x0042652c      0x23c /home/notlean/openwrt-uboost/tmp/ccV1QtaS.ltrans4.ltrans.o
                0x0042652d                unpack_gz_stream
 .text.getOctal
                0x00426768       0x5c /home/notlean/openwrt-uboost/tmp/ccV1QtaS.ltrans4.ltrans.o
 .text.strip_unsafe_prefix
                0x004267c4       0x5c /home/notlean/openwrt-uboost/tmp/ccV1QtaS.ltrans4.ltrans.o
 .text.writeFileToTarball
                0x00426820      0x1ac /home/notlean/openwrt-uboost/tmp/ccV1QtaS.ltrans4.ltrans.o
 .text.get_header_tar
                0x004269cc      0x584 /home/notlean/openwrt-uboost/tmp/ccV1QtaS.ltrans4.ltrans.o
 .text.fork_transformer
                0x00426f50       0x80 /home/notlean/openwrt-uboost/tmp/ccV1QtaS.ltrans4.ltrans.o
 .text.bbunpack
                0x00426fd0      0x2cc /home/notlean/openwrt-uboost/tmp/ccV1QtaS.ltrans4.ltrans.o
 .text.gunzip_main
                0x0042729c       0x54 /home/notlean/openwrt-uboost/tmp/ccV1QtaS.ltrans4.ltrans.o
                0x0042729d                gunzip_main
 .text.gzip_main
                0x004272f0       0xc0 /home/notlean/openwrt-uboost/tmp/ccV1QtaS.ltrans4.ltrans.o
                0x004272f1                gzip_main
 .text.tar_main
                0x004273b0      0x338 /home/notlean/openwrt-uboost/tmp/ccV1QtaS.ltrans4.ltrans.o
                0x004273b1                tar_main
 .text.reset_main
                0x004276e8       0x34 /home/notlean/openwrt-uboost/tmp/ccV1QtaS.ltrans4.ltrans.o
                0x004276e9                reset_main
 .text.onintr   0x0042771c       0x18 /home/notlean/openwrt-uboost/tmp/ccV1QtaS.ltrans4.ltrans.o
 .text.resize_main
                0x00427734       0xd8 /home/notlean/openwrt-uboost/tmp/ccV1QtaS.ltrans4.ltrans.o
                0x00427735                resize_main
 .text.basename_main
                0x0042780c       0xa0 /home/notlean/openwrt-uboost/tmp/ccV1QtaS.ltrans4.ltrans.o
                0x0042780d                basename_main
 .text.cat_main
                0x004278ac       0x38 /home/notlean/openwrt-uboost/tmp/ccV1QtaS.ltrans4.ltrans.o
                0x004278ad                cat_main
 .text.fileAction.lto_priv.0
                0x004278e4       0x58 /home/notlean/openwrt-uboost/tmp/ccV1QtaS.ltrans4.ltrans.o
 .text.chown_main
                0x0042793c       0x78 /home/notlean/openwrt-uboost/tmp/ccV1QtaS.ltrans4.ltrans.o
                0x0042793d                chown_main
 .text.chgrp_main
                0x004279b4       0x30 /home/notlean/openwrt-uboost/tmp/ccV1QtaS.ltrans4.ltrans.o
                0x004279b5                chgrp_main
 .text.chroot_main
                0x004279e4       0x30 /home/notlean/openwrt-uboost/tmp/ccV1QtaS.ltrans4.ltrans.o
                0x004279e5                chroot_main
 .text.cp_main  0x00427a14      0x124 /home/notlean/openwrt-uboost/tmp/ccV1QtaS.ltrans4.ltrans.o
                0x00427a15                cp_main
 .text.cut_main
                0x00427b38      0x35c /home/notlean/openwrt-uboost/tmp/ccV1QtaS.ltrans4.ltrans.o
                0x00427b39                cut_main
 .text.date_main
                0x00427e94      0x230 /home/notlean/openwrt-uboost/tmp/ccV1QtaS.ltrans4.ltrans.o
                0x00427e95                date_main
 .text.clear_O_DIRECT
                0x004280c4       0x40 /home/notlean/openwrt-uboost/tmp/ccV1QtaS.ltrans4.ltrans.o
 .text.dd_read  0x00428104       0x44 /home/notlean/openwrt-uboost/tmp/ccV1QtaS.ltrans4.ltrans.o
 .text.write_and_stats
                0x00428148       0x74 /home/notlean/openwrt-uboost/tmp/ccV1QtaS.ltrans4.ltrans.o
 .text.parse_comma_flags
                0x004281bc       0x50 /home/notlean/openwrt-uboost/tmp/ccV1QtaS.ltrans4.ltrans.o
 .text.alloc_buf
                0x0042820c       0x3c /home/notlean/openwrt-uboost/tmp/ccV1QtaS.ltrans4.ltrans.o
 .text.dd_main  0x00428248      0x500 /home/notlean/openwrt-uboost/tmp/ccV1QtaS.ltrans4.ltrans.o
                0x00428249                dd_main
 .text.print    0x00428748       0x34 /home/notlean/openwrt-uboost/tmp/ccV1QtaS.ltrans4.ltrans.o
 .text.df_main  0x0042877c      0x270 /home/notlean/openwrt-uboost/tmp/ccV1QtaS.ltrans4.ltrans.o
                0x0042877d                df_main
 .text.dirname_main
                0x004289ec       0x3c /home/notlean/openwrt-uboost/tmp/ccV1QtaS.ltrans4.ltrans.o
                0x004289ed                dirname_main
 .text.du       0x00428a28      0x174 /home/notlean/openwrt-uboost/tmp/ccV1QtaS.ltrans4.ltrans.o
 .text.du_main  0x00428b9c      0x110 /home/notlean/openwrt-uboost/tmp/ccV1QtaS.ltrans4.ltrans.o
                0x00428b9d                du_main
 .text.echo_main
                0x00428cac      0x124 /home/notlean/openwrt-uboost/tmp/ccV1QtaS.ltrans4.ltrans.o
                0x00428cad                echo_main
 .text.env_main
                0x00428dd0       0xbc /home/notlean/openwrt-uboost/tmp/ccV1QtaS.ltrans4.ltrans.o
                0x00428dd1                env_main
 .text.toarith  0x00428e8c       0x44 /home/notlean/openwrt-uboost/tmp/ccV1QtaS.ltrans4.ltrans.o
 .text.arithmetic_common
                0x00428ed0       0x90 /home/notlean/openwrt-uboost/tmp/ccV1QtaS.ltrans4.ltrans.o
 .text.docolon  0x00428f60       0xbc /home/notlean/openwrt-uboost/tmp/ccV1QtaS.ltrans4.ltrans.o
 .text.eval6    0x0042901c      0x204 /home/notlean/openwrt-uboost/tmp/ccV1QtaS.ltrans4.ltrans.o
 .text.eval5    0x00429220       0x4c /home/notlean/openwrt-uboost/tmp/ccV1QtaS.ltrans4.ltrans.o
 .text.eval4    0x0042926c       0x84 /home/notlean/openwrt-uboost/tmp/ccV1QtaS.ltrans4.ltrans.o
 .text.eval3    0x004292f0       0x70 /home/notlean/openwrt-uboost/tmp/ccV1QtaS.ltrans4.ltrans.o
 .text.eval2    0x00429360      0x168 /home/notlean/openwrt-uboost/tmp/ccV1QtaS.ltrans4.ltrans.o
 .text.eval1    0x004294c8       0x68 /home/notlean/openwrt-uboost/tmp/ccV1QtaS.ltrans4.ltrans.o
 .text.eval     0x00429530       0x4c /home/notlean/openwrt-uboost/tmp/ccV1QtaS.ltrans4.ltrans.o
 .text.expr_main
                0x0042957c       0x64 /home/notlean/openwrt-uboost/tmp/ccV1QtaS.ltrans4.ltrans.o
                0x0042957d                expr_main
 .text.append_char
                0x004295e0       0x4c /home/notlean/openwrt-uboost/tmp/ccV1QtaS.ltrans5.ltrans.o
 .text.count_dirs
                0x0042962c       0x48 /home/notlean/openwrt-uboost/tmp/ccV1QtaS.ltrans5.ltrans.o
 .text.true_main
                0x00429674        0x4 /home/notlean/openwrt-uboost/tmp/ccV1QtaS.ltrans5.ltrans.o
                0x00429675                true_main
 .text.hashidx  0x00429678       0x14 /home/notlean/openwrt-uboost/tmp/ccV1QtaS.ltrans5.ltrans.o
 .text.skip_spaces
                0x0042968c       0x2c /home/notlean/openwrt-uboost/tmp/ccV1QtaS.ltrans5.ltrans.o
 .text.nextword
                0x004296b8       0x10 /home/notlean/openwrt-uboost/tmp/ccV1QtaS.ltrans5.ltrans.o
 .text.nextarg  0x004296c8       0x20 /home/notlean/openwrt-uboost/tmp/ccV1QtaS.ltrans5.ltrans.o
 .text.print_common
                0x004296e8       0x6c /home/notlean/openwrt-uboost/tmp/ccV1QtaS.ltrans5.ltrans.o
 .text.hash_clear
                0x00429754       0x4c /home/notlean/openwrt-uboost/tmp/ccV1QtaS.ltrans5.ltrans.o
 .text.yes_main
                0x004297a0       0x38 /home/notlean/openwrt-uboost/tmp/ccV1QtaS.ltrans5.ltrans.o
                0x004297a1                yes_main
 .text.my_stat  0x004297d8       0xf0 /home/notlean/openwrt-uboost/tmp/ccV1QtaS.ltrans5.ltrans.o
 .text.dnalloc  0x004298c8       0x14 /home/notlean/openwrt-uboost/tmp/ccV1QtaS.ltrans5.ltrans.o
 .text.splitdnarray
                0x004298dc       0x60 /home/notlean/openwrt-uboost/tmp/ccV1QtaS.ltrans5.ltrans.o
 .text.hash_init
                0x0042993c       0x1c /home/notlean/openwrt-uboost/tmp/ccV1QtaS.ltrans5.ltrans.o
 .text.iamarray
                0x00429958       0x2c /home/notlean/openwrt-uboost/tmp/ccV1QtaS.ltrans5.ltrans.o
 .text.new_node
                0x00429984       0x20 /home/notlean/openwrt-uboost/tmp/ccV1QtaS.ltrans5.ltrans.o
 .text.chain_node
                0x004299a4       0x60 /home/notlean/openwrt-uboost/tmp/ccV1QtaS.ltrans5.ltrans.o
 .text.head_main
                0x00429a04      0x280 /home/notlean/openwrt-uboost/tmp/ccV1QtaS.ltrans5.ltrans.o
                0x00429a05                head_main
 .text.eat_num.lto_priv.1
                0x00429c84       0x2c /home/notlean/openwrt-uboost/tmp/ccV1QtaS.ltrans5.ltrans.o
 .text.print_group
                0x00429cb0       0x1c /home/notlean/openwrt-uboost/tmp/ccV1QtaS.ltrans5.ltrans.o
 .text.print_user
                0x00429ccc       0x1c /home/notlean/openwrt-uboost/tmp/ccV1QtaS.ltrans5.ltrans.o
 .text.get_groups
                0x00429ce8       0x58 /home/notlean/openwrt-uboost/tmp/ccV1QtaS.ltrans5.ltrans.o
 .text.qrealloc
                0x00429d40       0x20 /home/notlean/openwrt-uboost/tmp/ccV1QtaS.ltrans5.ltrans.o
 .text.id_main  0x00429d60      0x180 /home/notlean/openwrt-uboost/tmp/ccV1QtaS.ltrans5.ltrans.o
                0x00429d61                id_main
 .text.syntax_error
                0x00429ee0       0x20 /home/notlean/openwrt-uboost/tmp/ccV1QtaS.ltrans5.ltrans.o
 .text.ln_main  0x00429f00      0x1d8 /home/notlean/openwrt-uboost/tmp/ccV1QtaS.ltrans5.ltrans.o
                0x00429f01                ln_main
 .text.print_name
                0x0042a0d8       0x5c /home/notlean/openwrt-uboost/tmp/ccV1QtaS.ltrans5.ltrans.o
 .text.display_single
                0x0042a134      0x388 /home/notlean/openwrt-uboost/tmp/ccV1QtaS.ltrans5.ltrans.o
 .text.display_files
                0x0042a4bc      0x148 /home/notlean/openwrt-uboost/tmp/ccV1QtaS.ltrans5.ltrans.o
 .text.hash_search3
                0x0042a604       0x30 /home/notlean/openwrt-uboost/tmp/ccV1QtaS.ltrans5.ltrans.o
 .text.hash_search
                0x0042a634       0x1c /home/notlean/openwrt-uboost/tmp/ccV1QtaS.ltrans5.ltrans.o
 .text.sortcmp  0x0042a650       0xdc /home/notlean/openwrt-uboost/tmp/ccV1QtaS.ltrans5.ltrans.o
 .text.dnsort   0x0042a72c       0x14 /home/notlean/openwrt-uboost/tmp/ccV1QtaS.ltrans5.ltrans.o
 .text.scan_and_display_dirs_recur
                0x0042a740      0x168 /home/notlean/openwrt-uboost/tmp/ccV1QtaS.ltrans5.ltrans.o
 .text.ls_main  0x0042a8a8      0x210 /home/notlean/openwrt-uboost/tmp/ccV1QtaS.ltrans5.ltrans.o
                0x0042a8a9                ls_main
 .text.hash_file
                0x0042aab8      0x120 /home/notlean/openwrt-uboost/tmp/ccV1QtaS.ltrans5.ltrans.o
 .text.md5_sha1_sum_main
                0x0042abd8      0x164 /home/notlean/openwrt-uboost/tmp/ccV1QtaS.ltrans5.ltrans.o
                0x0042abd9                md5_sha1_sum_main
 .text.mkdir_main
                0x0042ad3c       0x84 /home/notlean/openwrt-uboost/tmp/ccV1QtaS.ltrans5.ltrans.o
                0x0042ad3d                mkdir_main
 .text.mktemp_main
                0x0042adc0       0xb0 /home/notlean/openwrt-uboost/tmp/ccV1QtaS.ltrans5.ltrans.o
                0x0042adc1                mktemp_main
 .text.rm_main  0x0042ae70       0x94 /home/notlean/openwrt-uboost/tmp/ccV1QtaS.ltrans5.ltrans.o
                0x0042ae71                rm_main
 .text.multiconvert
                0x0042af04       0x44 /home/notlean/openwrt-uboost/tmp/ccV1QtaS.ltrans5.ltrans.o
 .text.conv_strtoll
                0x0042af48       0x1c /home/notlean/openwrt-uboost/tmp/ccV1QtaS.ltrans5.ltrans.o
 .text.conv_strtoull
                0x0042af64       0x38 /home/notlean/openwrt-uboost/tmp/ccV1QtaS.ltrans5.ltrans.o
 .text.print_direc
                0x0042af9c      0x160 /home/notlean/openwrt-uboost/tmp/ccV1QtaS.ltrans5.ltrans.o
 .text.get_width_prec
                0x0042b0fc       0x2c /home/notlean/openwrt-uboost/tmp/ccV1QtaS.ltrans5.ltrans.o
 .text.expand   0x0042b128       0x98 /home/notlean/openwrt-uboost/tmp/ccV1QtaS.ltrans5.ltrans.o
 .text.nextchar
                0x0042b1c0       0x30 /home/notlean/openwrt-uboost/tmp/ccV1QtaS.ltrans5.ltrans.o
 .text.unescape_string_in_place
                0x0042b1f0       0x18 /home/notlean/openwrt-uboost/tmp/ccV1QtaS.ltrans5.ltrans.o
 .text.printf_main
                0x0042b208      0x2b4 /home/notlean/openwrt-uboost/tmp/ccV1QtaS.ltrans5.ltrans.o
                0x0042b209                printf_main
 .text.pwd_main
                0x0042b4bc       0x28 /home/notlean/openwrt-uboost/tmp/ccV1QtaS.ltrans5.ltrans.o
                0x0042b4bd                pwd_main
 .text.readlink_main
                0x0042b4e4       0x70 /home/notlean/openwrt-uboost/tmp/ccV1QtaS.ltrans5.ltrans.o
                0x0042b4e5                readlink_main
 .text.rmdir_main
                0x0042b554       0x90 /home/notlean/openwrt-uboost/tmp/ccV1QtaS.ltrans5.ltrans.o
                0x0042b555                rmdir_main
 .text.hash_remove
                0x0042b5e4       0x5c /home/notlean/openwrt-uboost/tmp/ccV1QtaS.ltrans5.ltrans.o
 .text.sleep_main
                0x0042b640       0x5c /home/notlean/openwrt-uboost/tmp/ccV1QtaS.ltrans5.ltrans.o
                0x0042b641                sleep_main
 .text.compare_keys
                0x0042b69c       0xbc /home/notlean/openwrt-uboost/tmp/ccV1QtaS.ltrans5.ltrans.o
 .text.sort_main
                0x0042b758      0x1a0 /home/notlean/openwrt-uboost/tmp/ccV1QtaS.ltrans5.ltrans.o
                0x0042b759                sort_main
 .text.sync_main
                0x0042b8f8       0x10 /home/notlean/openwrt-uboost/tmp/ccV1QtaS.ltrans5.ltrans.o
                0x0042b8f9                sync_main
 .text.fsync_main
                0x0042b908       0x70 /home/notlean/openwrt-uboost/tmp/ccV1QtaS.ltrans5.ltrans.o
                0x0042b909                fsync_main
 .text.tail_main
                0x0042b978      0x554 /home/notlean/openwrt-uboost/tmp/ccV1QtaS.ltrans5.ltrans.o
                0x0042b979                tail_main
 .text.tee_main
                0x0042becc      0x110 /home/notlean/openwrt-uboost/tmp/ccV1QtaS.ltrans5.ltrans.o
                0x0042becd                tee_main
 .text.syntax   0x0042bfdc       0x38 /home/notlean/openwrt-uboost/tmp/ccV1QtaS.ltrans5.ltrans.o
 .text.getn     0x0042c014       0x4c /home/notlean/openwrt-uboost/tmp/ccV1QtaS.ltrans5.ltrans.o
 .text.check_operator
                0x0042c060       0x64 /home/notlean/openwrt-uboost/tmp/ccV1QtaS.ltrans5.ltrans.o
 .text.binop    0x0042c0c4      0x204 /home/notlean/openwrt-uboost/tmp/ccV1QtaS.ltrans5.ltrans.o
 .text.nexpr    0x0042c2c8      0x2f4 /home/notlean/openwrt-uboost/tmp/ccV1QtaS.ltrans5.ltrans.o
 .text.aexpr    0x0042c5bc       0x60 /home/notlean/openwrt-uboost/tmp/ccV1QtaS.ltrans5.ltrans.o
 .text.oexpr    0x0042c61c       0x5c /home/notlean/openwrt-uboost/tmp/ccV1QtaS.ltrans5.ltrans.o
 .text.test_main
                0x0042c678      0x150 /home/notlean/openwrt-uboost/tmp/ccV1QtaS.ltrans5.ltrans.o
                0x0042c679                test_main
 .text.touch_main
                0x0042c7c8      0x13c /home/notlean/openwrt-uboost/tmp/ccV1QtaS.ltrans5.ltrans.o
                0x0042c7c9                touch_main
 .text.complement
                0x0042c904       0x64 /home/notlean/openwrt-uboost/tmp/ccV1QtaS.ltrans5.ltrans.o
 .text.tr_main  0x0042c968      0x178 /home/notlean/openwrt-uboost/tmp/ccV1QtaS.ltrans5.ltrans.o
                0x0042c969                tr_main
 .text.hash_find
                0x0042cae0       0xe8 /home/notlean/openwrt-uboost/tmp/ccV1QtaS.ltrans5.ltrans.o
 .text.uname_main
                0x0042cbc8       0xd8 /home/notlean/openwrt-uboost/tmp/ccV1QtaS.ltrans5.ltrans.o
                0x0042cbc9                uname_main
 .text.next_token
                0x0042cca0      0x384 /home/notlean/openwrt-uboost/tmp/ccV1QtaS.ltrans5.ltrans.o
 .text.uniq_main
                0x0042d024      0x164 /home/notlean/openwrt-uboost/tmp/ccV1QtaS.ltrans5.ltrans.o
                0x0042d025                uniq_main
 .text.wc_main  0x0042d188      0x1d4 /home/notlean/openwrt-uboost/tmp/ccV1QtaS.ltrans5.ltrans.o
                0x0042d189                wc_main
 .text.getopt_mk_fifo_nod
                0x0042d35c       0x3c /home/notlean/openwrt-uboost/tmp/ccV1QtaS.ltrans5.ltrans.o
 .text.mkfifo_main
                0x0042d398       0x44 /home/notlean/openwrt-uboost/tmp/ccV1QtaS.ltrans5.ltrans.o
                0x0042d399                mkfifo_main
 .text.mknod_main
                0x0042d3dc       0xe0 /home/notlean/openwrt-uboost/tmp/ccV1QtaS.ltrans5.ltrans.o
                0x0042d3dd                mknod_main
 .text.fmt_num  0x0042d4bc       0xb8 /home/notlean/openwrt-uboost/tmp/ccV1QtaS.ltrans5.ltrans.o
 .text.getvar_s
                0x0042d574       0x4c /home/notlean/openwrt-uboost/tmp/ccV1QtaS.ltrans5.ltrans.o
 .text.check    0x0042d5c0      0x128 /home/notlean/openwrt-uboost/tmp/ccV1QtaS.ltrans5.ltrans.o
 .text.start_stop_daemon_main
                0x0042d6e8      0x350 /home/notlean/openwrt-uboost/tmp/ccV1QtaS.ltrans5.ltrans.o
                0x0042d6e9                start_stop_daemon_main
 .text.which_main
                0x0042da38      0x104 /home/notlean/openwrt-uboost/tmp/ccV1QtaS.ltrans5.ltrans.o
                0x0042da39                which_main
 .text.nvfree   0x0042db3c       0x68 /home/notlean/openwrt-uboost/tmp/ccV1QtaS.ltrans5.ltrans.o
 .text.setari_u
                0x0042dba4       0x28 /home/notlean/openwrt-uboost/tmp/ccV1QtaS.ltrans5.ltrans.o
 .text.mk_splitter
                0x0042dbcc       0x5c /home/notlean/openwrt-uboost/tmp/ccV1QtaS.ltrans5.ltrans.o
 .text.fsrealloc
                0x0042dc28       0x88 /home/notlean/openwrt-uboost/tmp/ccV1QtaS.ltrans5.ltrans.o
 .text.awk_split
                0x0042dcb0      0x1bc /home/notlean/openwrt-uboost/tmp/ccV1QtaS.ltrans5.ltrans.o
 .text.split_f0
                0x0042de6c       0x90 /home/notlean/openwrt-uboost/tmp/ccV1QtaS.ltrans5.ltrans.o
 .text.handle_special
                0x0042defc      0x19c /home/notlean/openwrt-uboost/tmp/ccV1QtaS.ltrans5.ltrans.o
 .text.setvar_p
                0x0042e098       0x18 /home/notlean/openwrt-uboost/tmp/ccV1QtaS.ltrans5.ltrans.o
 .text.setvar_i
                0x0042e0b0       0x28 /home/notlean/openwrt-uboost/tmp/ccV1QtaS.ltrans5.ltrans.o
 .text.copyvar  0x0042e0d8       0x40 /home/notlean/openwrt-uboost/tmp/ccV1QtaS.ltrans5.ltrans.o
 .text.do_mktime
                0x0042e118       0x54 /home/notlean/openwrt-uboost/tmp/ccV1QtaS.ltrans5.ltrans.o
 .text.is_assignment
                0x0042e16c       0x5c /home/notlean/openwrt-uboost/tmp/ccV1QtaS.ltrans5.ltrans.o
 .text.cp_mv_stat2
                0x0042e1c8       0x48 /home/notlean/openwrt-uboost/tmp/ccV1QtaS.ltrans5.ltrans.o
                0x0042e1c9                cp_mv_stat2
 .text.mv_main  0x0042e210      0x1ec /home/notlean/openwrt-uboost/tmp/ccV1QtaS.ltrans5.ltrans.o
                0x0042e211                mv_main
 .text.setvar_s.lto_priv.0
                0x0042e3fc       0x20 /home/notlean/openwrt-uboost/tmp/ccV1QtaS.ltrans5.ltrans.o
                0x0042e3fd                setvar_s.lto_priv.0
 .text.parse_expr
                0x0042e41c      0x32c /home/notlean/openwrt-uboost/tmp/ccV1QtaS.ltrans5.ltrans.o
 .text.parse_lrparen_list
                0x0042e748       0x14 /home/notlean/openwrt-uboost/tmp/ccV1QtaS.ltrans5.ltrans.o
 .text.chain_expr
                0x0042e75c       0x48 /home/notlean/openwrt-uboost/tmp/ccV1QtaS.ltrans5.ltrans.o
 .text.chain_group
                0x0042e7a4      0x23c /home/notlean/openwrt-uboost/tmp/ccV1QtaS.ltrans5.ltrans.o
 .text.chain_loop
                0x0042e9e0       0x7c /home/notlean/openwrt-uboost/tmp/ccV1QtaS.ltrans5.ltrans.o
 .text.chain_until_rbrace
                0x0042ea5c       0x34 /home/notlean/openwrt-uboost/tmp/ccV1QtaS.ltrans5.ltrans.o
 .text.parse_program
                0x0042ea90      0x170 /home/notlean/openwrt-uboost/tmp/ccV1QtaS.ltrans5.ltrans.o
 .text.awk_getline
                0x0042ec00      0x20c /home/notlean/openwrt-uboost/tmp/ccV1QtaS.ltrans5.ltrans.o
 .text.as_regex
                0x0042ee0c       0x60 /home/notlean/openwrt-uboost/tmp/ccV1QtaS.ltrans5.ltrans.o
 .text.awk_sub  0x0042ee6c      0x1e4 /home/notlean/openwrt-uboost/tmp/ccV1QtaS.ltrans5.ltrans.o
 .text.do_match
                0x0042f050       0x90 /home/notlean/openwrt-uboost/tmp/ccV1QtaS.ltrans5.ltrans.o
 .text.ptest    0x0042f0e0       0x1c /home/notlean/openwrt-uboost/tmp/ccV1QtaS.ltrans5.ltrans.o
 .text.awk_printf
                0x0042f0fc      0x1d8 /home/notlean/openwrt-uboost/tmp/ccV1QtaS.ltrans5.ltrans.o
 .text.next_column
                0x0042f2d4       0x2c /home/notlean/openwrt-uboost/tmp/ccV1QtaS.ltrans6.ltrans.o
 .text.what_reg
                0x0042f300       0x20 /home/notlean/openwrt-uboost/tmp/ccV1QtaS.ltrans6.ltrans.o
 .text.dot_left
                0x0042f320       0x20 /home/notlean/openwrt-uboost/tmp/ccV1QtaS.ltrans6.ltrans.o
 .text.dot_right
                0x0042f340       0x20 /home/notlean/openwrt-uboost/tmp/ccV1QtaS.ltrans6.ltrans.o
 .text.dot_skip_over_ws
                0x0042f360       0x30 /home/notlean/openwrt-uboost/tmp/ccV1QtaS.ltrans6.ltrans.o
 .text.end_cmd_q
                0x0042f390       0x18 /home/notlean/openwrt-uboost/tmp/ccV1QtaS.ltrans6.ltrans.o
 .text.indent_len
                0x0042f3a8       0x24 /home/notlean/openwrt-uboost/tmp/ccV1QtaS.ltrans6.ltrans.o
 .text.at_eof   0x0042f3cc       0x24 /home/notlean/openwrt-uboost/tmp/ccV1QtaS.ltrans6.ltrans.o
 .text.exec_actions
                0x0042f3f0       0x50 /home/notlean/openwrt-uboost/tmp/ccV1QtaS.ltrans6.ltrans.o
 .text.func_type
                0x0042f440       0x14 /home/notlean/openwrt-uboost/tmp/ccV1QtaS.ltrans6.ltrans.o
 .text.func_perm
                0x0042f454       0x30 /home/notlean/openwrt-uboost/tmp/ccV1QtaS.ltrans6.ltrans.o
 .text.func_newer
                0x0042f484       0x1c /home/notlean/openwrt-uboost/tmp/ccV1QtaS.ltrans6.ltrans.o
 .text.func_user
                0x0042f4a0        0xc /home/notlean/openwrt-uboost/tmp/ccV1QtaS.ltrans6.ltrans.o
 .text.func_group
                0x0042f4ac        0xc /home/notlean/openwrt-uboost/tmp/ccV1QtaS.ltrans6.ltrans.o
 .text.func_paren
                0x0042f4b8       0x14 /home/notlean/openwrt-uboost/tmp/ccV1QtaS.ltrans6.ltrans.o
 .text.func_size
                0x0042f4cc       0x40 /home/notlean/openwrt-uboost/tmp/ccV1QtaS.ltrans6.ltrans.o
 .text.func_prune
                0x0042f50c        0x4 /home/notlean/openwrt-uboost/tmp/ccV1QtaS.ltrans6.ltrans.o
 .text.plus_minus_num
                0x0042f510       0x10 /home/notlean/openwrt-uboost/tmp/ccV1QtaS.ltrans6.ltrans.o
 .text.cmp_main
                0x0042f520      0x17c /home/notlean/openwrt-uboost/tmp/ccV1QtaS.ltrans6.ltrans.o
                0x0042f521                cmp_main
 .text.sed_xfopen_w
                0x0042f69c       0x50 /home/notlean/openwrt-uboost/tmp/ccV1QtaS.ltrans6.ltrans.o
 .text.cleanup_outname
                0x0042f6ec       0x18 /home/notlean/openwrt-uboost/tmp/ccV1QtaS.ltrans6.ltrans.o
 .text.parse_escapes
                0x0042f704       0x68 /home/notlean/openwrt-uboost/tmp/ccV1QtaS.ltrans6.ltrans.o
 .text.copy_parsing_escapes
                0x0042f76c       0x48 /home/notlean/openwrt-uboost/tmp/ccV1QtaS.ltrans6.ltrans.o
 .text.index_of_next_unescaped_regexp_delim
                0x0042f7b4       0x70 /home/notlean/openwrt-uboost/tmp/ccV1QtaS.ltrans6.ltrans.o
 .text.parse_regex_delim
                0x0042f824       0x64 /home/notlean/openwrt-uboost/tmp/ccV1QtaS.ltrans6.ltrans.o
 .text.update_filename
                0x0042f888       0x24 /home/notlean/openwrt-uboost/tmp/ccV1QtaS.ltrans6.ltrans.o
 .text.get_address.lto_priv.0
                0x0042f8ac       0xa4 /home/notlean/openwrt-uboost/tmp/ccV1QtaS.ltrans6.ltrans.o
 .text.skip_thing
                0x0042f950       0xc0 /home/notlean/openwrt-uboost/tmp/ccV1QtaS.ltrans6.ltrans.o
 .text.parse_file_cmd
                0x0042fa10       0x58 /home/notlean/openwrt-uboost/tmp/ccV1QtaS.ltrans6.ltrans.o
 .text.add_cmd  0x0042fa68      0x400 /home/notlean/openwrt-uboost/tmp/ccV1QtaS.ltrans6.ltrans.o
 .text.pipe_putc
                0x0042fe68       0x44 /home/notlean/openwrt-uboost/tmp/ccV1QtaS.ltrans6.ltrans.o
 .text.alloc_action
                0x0042feac       0x4c /home/notlean/openwrt-uboost/tmp/ccV1QtaS.ltrans6.ltrans.o
 .text.puts_maybe_newline
                0x0042fef8       0x68 /home/notlean/openwrt-uboost/tmp/ccV1QtaS.ltrans6.ltrans.o
 .text.flush_append
                0x0042ff60       0x34 /home/notlean/openwrt-uboost/tmp/ccV1QtaS.ltrans6.ltrans.o
 .text.get_next_line
                0x0042ff94       0xb0 /home/notlean/openwrt-uboost/tmp/ccV1QtaS.ltrans6.ltrans.o
 .text.add_cmd_block
                0x00430044       0x38 /home/notlean/openwrt-uboost/tmp/ccV1QtaS.ltrans6.ltrans.o
 .text.find_pair
                0x0043007c       0x60 /home/notlean/openwrt-uboost/tmp/ccV1QtaS.ltrans6.ltrans.o
 .text.func_regex
                0x004300dc       0x30 /home/notlean/openwrt-uboost/tmp/ccV1QtaS.ltrans6.ltrans.o
 .text.process_files
                0x0043010c      0x778 /home/notlean/openwrt-uboost/tmp/ccV1QtaS.ltrans6.ltrans.o
 .text.func_print
                0x00430884       0x10 /home/notlean/openwrt-uboost/tmp/ccV1QtaS.ltrans6.ltrans.o
 .text.fileAction
                0x00430894       0xb8 /home/notlean/openwrt-uboost/tmp/ccV1QtaS.ltrans6.ltrans.o
 .text.sed_main
                0x0043094c      0x21c /home/notlean/openwrt-uboost/tmp/ccV1QtaS.ltrans6.ltrans.o
                0x0043094d                sed_main
 .text.query_screen_dimensions
                0x00430b68       0x38 /home/notlean/openwrt-uboost/tmp/ccV1QtaS.ltrans6.ltrans.o
 .text.mysleep  0x00430ba0       0x30 /home/notlean/openwrt-uboost/tmp/ccV1QtaS.ltrans6.ltrans.o
 .text.screen_erase
                0x00430bd0       0x18 /home/notlean/openwrt-uboost/tmp/ccV1QtaS.ltrans6.ltrans.o
 .text.new_screen
                0x00430be8       0x44 /home/notlean/openwrt-uboost/tmp/ccV1QtaS.ltrans6.ltrans.o
 .text.rawmode  0x00430c2c       0x80 /home/notlean/openwrt-uboost/tmp/ccV1QtaS.ltrans6.ltrans.o
 .text.cookmode
                0x00430cac       0x20 /home/notlean/openwrt-uboost/tmp/ccV1QtaS.ltrans6.ltrans.o
 .text.place_cursor
                0x00430ccc       0x4c /home/notlean/openwrt-uboost/tmp/ccV1QtaS.ltrans6.ltrans.o
 .text.go_bottom_and_clear_to_eol
                0x00430d18       0x24 /home/notlean/openwrt-uboost/tmp/ccV1QtaS.ltrans6.ltrans.o
 .text.begin_line
                0x00430d3c       0x28 /home/notlean/openwrt-uboost/tmp/ccV1QtaS.ltrans6.ltrans.o
 .text.prev_line
                0x00430d64       0x2c /home/notlean/openwrt-uboost/tmp/ccV1QtaS.ltrans6.ltrans.o
 .text.dot_prev
                0x00430d90       0x18 /home/notlean/openwrt-uboost/tmp/ccV1QtaS.ltrans6.ltrans.o
 .text.get_column
                0x00430da8       0x20 /home/notlean/openwrt-uboost/tmp/ccV1QtaS.ltrans6.ltrans.o
 .text.dot_begin
                0x00430dc8       0x18 /home/notlean/openwrt-uboost/tmp/ccV1QtaS.ltrans6.ltrans.o
 .text.move_to_col
                0x00430de0       0x38 /home/notlean/openwrt-uboost/tmp/ccV1QtaS.ltrans6.ltrans.o
 .text.end_line
                0x00430e18       0x28 /home/notlean/openwrt-uboost/tmp/ccV1QtaS.ltrans6.ltrans.o
 .text.next_line
                0x00430e40       0x24 /home/notlean/openwrt-uboost/tmp/ccV1QtaS.ltrans6.ltrans.o
 .text.find_line
                0x00430e64       0x20 /home/notlean/openwrt-uboost/tmp/ccV1QtaS.ltrans6.ltrans.o
 .text.dot_next
                0x00430e84       0x18 /home/notlean/openwrt-uboost/tmp/ccV1QtaS.ltrans6.ltrans.o
 .text.end_screen
                0x00430e9c       0x2c /home/notlean/openwrt-uboost/tmp/ccV1QtaS.ltrans6.ltrans.o
 .text.dot_scroll
                0x00430ec8       0x5c /home/notlean/openwrt-uboost/tmp/ccV1QtaS.ltrans6.ltrans.o
 .text.count_lines
                0x00430f24       0x50 /home/notlean/openwrt-uboost/tmp/ccV1QtaS.ltrans6.ltrans.o
 .text.dot_end  0x00430f74       0x18 /home/notlean/openwrt-uboost/tmp/ccV1QtaS.ltrans6.ltrans.o
 .text.refresh  0x00430f8c      0x36c /home/notlean/openwrt-uboost/tmp/ccV1QtaS.ltrans6.ltrans.o
 .text.text_hole_make
                0x004312f8       0x88 /home/notlean/openwrt-uboost/tmp/ccV1QtaS.ltrans6.ltrans.o
 .text.string_insert
                0x00431380       0x44 /home/notlean/openwrt-uboost/tmp/ccV1QtaS.ltrans6.ltrans.o
 .text.text_hole_delete
                0x004313c4       0x68 /home/notlean/openwrt-uboost/tmp/ccV1QtaS.ltrans6.ltrans.o
 .text.readit   0x0043142c       0x54 /home/notlean/openwrt-uboost/tmp/ccV1QtaS.ltrans6.ltrans.o
 .text.get_one_char
                0x00431480       0x5c /home/notlean/openwrt-uboost/tmp/ccV1QtaS.ltrans6.ltrans.o
 .text.Hit_Return
                0x004314dc       0x40 /home/notlean/openwrt-uboost/tmp/ccV1QtaS.ltrans6.ltrans.o
 .text.show_status_line
                0x0043151c      0x13c /home/notlean/openwrt-uboost/tmp/ccV1QtaS.ltrans6.ltrans.o
 .text.redraw   0x00431658       0x34 /home/notlean/openwrt-uboost/tmp/ccV1QtaS.ltrans6.ltrans.o
 .text.indicate_error
                0x0043168c       0x54 /home/notlean/openwrt-uboost/tmp/ccV1QtaS.ltrans6.ltrans.o
 .text.bound_dot
                0x004316e0       0x30 /home/notlean/openwrt-uboost/tmp/ccV1QtaS.ltrans6.ltrans.o
 .text.char_insert
                0x00431710      0x2e0 /home/notlean/openwrt-uboost/tmp/ccV1QtaS.ltrans6.ltrans.o
 .text.get_input_line
                0x004319f0       0xbc /home/notlean/openwrt-uboost/tmp/ccV1QtaS.ltrans6.ltrans.o
 .text.status_line
                0x00431aac       0x24 /home/notlean/openwrt-uboost/tmp/ccV1QtaS.ltrans6.ltrans.o
 .text.status_line_bold
                0x00431ad0       0x58 /home/notlean/openwrt-uboost/tmp/ccV1QtaS.ltrans6.ltrans.o
 .text.not_implemented
                0x00431b28       0x64 /home/notlean/openwrt-uboost/tmp/ccV1QtaS.ltrans6.ltrans.o
 .text.yank_delete
                0x00431b8c       0x44 /home/notlean/openwrt-uboost/tmp/ccV1QtaS.ltrans6.ltrans.o
 .text.init_text_buffer
                0x00431bd0       0x5c /home/notlean/openwrt-uboost/tmp/ccV1QtaS.ltrans6.ltrans.o
 .text.file_write
                0x00431c2c       0x64 /home/notlean/openwrt-uboost/tmp/ccV1QtaS.ltrans6.ltrans.o
 .text.mycmp    0x00431c90       0x24 /home/notlean/openwrt-uboost/tmp/ccV1QtaS.ltrans6.ltrans.o
 .text.char_search
                0x00431cb4       0x70 /home/notlean/openwrt-uboost/tmp/ccV1QtaS.ltrans6.ltrans.o
 .text.func_print0
                0x00431d24       0x18 /home/notlean/openwrt-uboost/tmp/ccV1QtaS.ltrans6.ltrans.o
 .text.print_line
                0x00431d3c       0x80 /home/notlean/openwrt-uboost/tmp/ccV1QtaS.ltrans6.ltrans.o
 .text.colon    0x00431dbc      0xcac /home/notlean/openwrt-uboost/tmp/ccV1QtaS.ltrans6.ltrans.o
 .text.do_cmd   0x00432a68      0xe9c /home/notlean/openwrt-uboost/tmp/ccV1QtaS.ltrans6.ltrans.o
 .text.find_range
                0x00433904      0x234 /home/notlean/openwrt-uboost/tmp/ccV1QtaS.ltrans6.ltrans.o
 .text.run_cmds
                0x00433b38       0x48 /home/notlean/openwrt-uboost/tmp/ccV1QtaS.ltrans6.ltrans.o
 .text.winch_handler
                0x00433b80       0x3c /home/notlean/openwrt-uboost/tmp/ccV1QtaS.ltrans6.ltrans.o
 .text.tstp_handler
                0x00433bbc       0x44 /home/notlean/openwrt-uboost/tmp/ccV1QtaS.ltrans6.ltrans.o
 .text.int_handler
                0x00433c00       0x24 /home/notlean/openwrt-uboost/tmp/ccV1QtaS.ltrans6.ltrans.o
 .text.edit_file
                0x00433c24      0x1f4 /home/notlean/openwrt-uboost/tmp/ccV1QtaS.ltrans6.ltrans.o
 .text.vi_main  0x00433e18      0x168 /home/notlean/openwrt-uboost/tmp/ccV1QtaS.ltrans6.ltrans.o
                0x00433e19                vi_main
 .text.func_path
                0x00433f80       0x18 /home/notlean/openwrt-uboost/tmp/ccV1QtaS.ltrans6.ltrans.o
 .text.func_name
                0x00433f98       0x64 /home/notlean/openwrt-uboost/tmp/ccV1QtaS.ltrans6.ltrans.o
 .text.time_cmp
                0x00433ffc       0x90 /home/notlean/openwrt-uboost/tmp/ccV1QtaS.ltrans6.ltrans.o
 .text.func_mtime
                0x0043408c       0x1c /home/notlean/openwrt-uboost/tmp/ccV1QtaS.ltrans6.ltrans.o
 .text.func_mmin
                0x004340a8       0x18 /home/notlean/openwrt-uboost/tmp/ccV1QtaS.ltrans6.ltrans.o
 .text.func_exec
                0x004340c0      0x118 /home/notlean/openwrt-uboost/tmp/ccV1QtaS.ltrans6.ltrans.o
 .text.parse_params
                0x004341d8      0x444 /home/notlean/openwrt-uboost/tmp/ccV1QtaS.ltrans6.ltrans.o
 .text.find_main
                0x0043461c      0x164 /home/notlean/openwrt-uboost/tmp/ccV1QtaS.ltrans6.ltrans.o
                0x0043461d                find_main
 .text.grep_file
                0x00434780      0x3cc /home/notlean/openwrt-uboost/tmp/ccV1QtaS.ltrans6.ltrans.o
 .text.file_action_grep
                0x00434b4c       0x88 /home/notlean/openwrt-uboost/tmp/ccV1QtaS.ltrans6.ltrans.o
 .text.load_pattern_list
                0x00434bd4       0x2c /home/notlean/openwrt-uboost/tmp/ccV1QtaS.ltrans6.ltrans.o
 .text.grep_main
                0x00434c00      0x2f0 /home/notlean/openwrt-uboost/tmp/ccV1QtaS.ltrans6.ltrans.o
                0x00434c01                grep_main
 .text.store_param.lto_priv.0
                0x00434ef0       0x34 /home/notlean/openwrt-uboost/tmp/ccV1QtaS.ltrans6.ltrans.o
                0x00434ef1                store_param.lto_priv.0
 .text.process_stdin.lto_priv.0
                0x00434f24       0xf4 /home/notlean/openwrt-uboost/tmp/ccV1QtaS.ltrans6.ltrans.o
                0x00434f25                process_stdin.lto_priv.0
 .text.process0_stdin.lto_priv.0
                0x00435018       0x64 /home/notlean/openwrt-uboost/tmp/ccV1QtaS.ltrans6.ltrans.o
                0x00435019                process0_stdin.lto_priv.0
 .text.askpass_timeout
                0x0043507c        0x4 /home/notlean/openwrt-uboost/tmp/ccV1QtaS.ltrans7.ltrans.o
 .text.md5_process_block64.lto_priv.0
                0x00435080      0x308 /home/notlean/openwrt-uboost/tmp/ccV1QtaS.ltrans7.ltrans.o
                0x00435081                md5_process_block64.lto_priv.0
 .text.in_ether
                0x00435388       0x6c /home/notlean/openwrt-uboost/tmp/ccV1QtaS.ltrans7.ltrans.o
                0x00435389                in_ether
 .text.remove_chunk
                0x004353f4       0x18 /home/notlean/openwrt-uboost/tmp/ccV1QtaS.ltrans7.ltrans.o
 .text.fast_strtoul_10
                0x0043540c       0x24 /home/notlean/openwrt-uboost/tmp/ccV1QtaS.ltrans7.ltrans.o
 .text.true_action.lto_priv.0
                0x00435430        0x4 /home/notlean/openwrt-uboost/tmp/ccV1QtaS.ltrans7.ltrans.o
                0x00435431                true_action.lto_priv.0
 .text.build_match_prefix
                0x00435434      0x1e0 /home/notlean/openwrt-uboost/tmp/ccV1QtaS.ltrans7.ltrans.o
 .text.bb_ask_y_confirmation_FILE
                0x00435614       0x48 /home/notlean/openwrt-uboost/tmp/ccV1QtaS.ltrans7.ltrans.o
 .text.uid2uname_utoa
                0x0043565c       0x18 /home/notlean/openwrt-uboost/tmp/ccV1QtaS.ltrans7.ltrans.o
                0x0043565d                uid2uname_utoa
 .text.gid2group_utoa
                0x00435674       0x18 /home/notlean/openwrt-uboost/tmp/ccV1QtaS.ltrans7.ltrans.o
                0x00435675                gid2group_utoa
 .text.xgroup2gid
                0x0043568c       0x1c /home/notlean/openwrt-uboost/tmp/ccV1QtaS.ltrans7.ltrans.o
                0x0043568d                xgroup2gid
 .text.get_ug_id
                0x004356a8       0x24 /home/notlean/openwrt-uboost/tmp/ccV1QtaS.ltrans7.ltrans.o
 .text.quote_special_chars
                0x004356cc       0x4c /home/notlean/openwrt-uboost/tmp/ccV1QtaS.ltrans7.ltrans.o
 .text.next     0x00435718      0x100 /home/notlean/openwrt-uboost/tmp/ccV1QtaS.ltrans7.ltrans.o
 .text.bb_pstrcmp
                0x00435818       0x10 /home/notlean/openwrt-uboost/tmp/ccV1QtaS.ltrans7.ltrans.o
 .text.common64_end
                0x00435828       0x68 /home/notlean/openwrt-uboost/tmp/ccV1QtaS.ltrans7.ltrans.o
 .text.md5_end  0x00435890       0x38 /home/notlean/openwrt-uboost/tmp/ccV1QtaS.ltrans7.ltrans.o
                0x00435891                md5_end
 .text.sha1_process_block64
                0x004358c8      0x188 /home/notlean/openwrt-uboost/tmp/ccV1QtaS.ltrans7.ltrans.o
 .text.sha256_process_block64.lto_priv.0
                0x00435a50      0x1a0 /home/notlean/openwrt-uboost/tmp/ccV1QtaS.ltrans7.ltrans.o
                0x00435a51                sha256_process_block64.lto_priv.0
 .text.sha1_end
                0x00435bf0       0x6c /home/notlean/openwrt-uboost/tmp/ccV1QtaS.ltrans7.ltrans.o
                0x00435bf1                sha1_end
 .text.save_command_ps_at_cur_history
                0x00435c5c       0x38 /home/notlean/openwrt-uboost/tmp/ccV1QtaS.ltrans7.ltrans.o
 .text.get_user_strings
                0x00435c94       0x34 /home/notlean/openwrt-uboost/tmp/ccV1QtaS.ltrans7.ltrans.o
 .text.get_homedir_or_NULL
                0x00435cc8       0x3c /home/notlean/openwrt-uboost/tmp/ccV1QtaS.ltrans7.ltrans.o
 .text.string_checker_helper
                0x00435d04       0x2c /home/notlean/openwrt-uboost/tmp/ccV1QtaS.ltrans7.ltrans.o
 .text.read_to_buf
                0x00435d30       0x40 /home/notlean/openwrt-uboost/tmp/ccV1QtaS.ltrans7.ltrans.o
 .text.fopen_for_read
                0x00435d70       0x14 /home/notlean/openwrt-uboost/tmp/ccV1QtaS.ltrans7.ltrans.o
                0x00435d71                fopen_for_read
 .text.get_uidgid
                0x00435d84       0xbc /home/notlean/openwrt-uboost/tmp/ccV1QtaS.ltrans7.ltrans.o
 .text.bb_perror_nomsg_and_die
                0x00435e40        0xc /home/notlean/openwrt-uboost/tmp/ccV1QtaS.ltrans7.ltrans.o
                0x00435e41                bb_perror_nomsg_and_die
 .text.halt_main
                0x00435e4c       0x84 /home/notlean/openwrt-uboost/tmp/ccV1QtaS.ltrans7.ltrans.o
                0x00435e4d                halt_main
 .text.bb_ask_y_confirmation
                0x00435ed0       0x14 /home/notlean/openwrt-uboost/tmp/ccV1QtaS.ltrans7.ltrans.o
                0x00435ed1                bb_ask_y_confirmation
 .text.ask_and_unlink
                0x00435ee4       0x64 /home/notlean/openwrt-uboost/tmp/ccV1QtaS.ltrans7.ltrans.o
 .text.auto_string
                0x00435f48       0x34 /home/notlean/openwrt-uboost/tmp/ccV1QtaS.ltrans7.ltrans.o
                0x00435f49                auto_string
 .text.xgetpwnam
                0x00435f7c       0x1c /home/notlean/openwrt-uboost/tmp/ccV1QtaS.ltrans7.ltrans.o
                0x00435f7d                xgetpwnam
 .text.xuname2uid
                0x00435f98       0x10 /home/notlean/openwrt-uboost/tmp/ccV1QtaS.ltrans7.ltrans.o
                0x00435f99                xuname2uid
 .text.xgetpwuid
                0x00435fa8       0x1c /home/notlean/openwrt-uboost/tmp/ccV1QtaS.ltrans7.ltrans.o
                0x00435fa9                xgetpwuid
 .text.change_identity
                0x00435fc4       0x4c /home/notlean/openwrt-uboost/tmp/ccV1QtaS.ltrans7.ltrans.o
                0x00435fc5                change_identity
 .text.concat_subpath_file
                0x00436010       0x24 /home/notlean/openwrt-uboost/tmp/ccV1QtaS.ltrans7.ltrans.o
                0x00436011                concat_subpath_file
 .text.get_passwd.lto_priv.0
                0x00436034       0x40 /home/notlean/openwrt-uboost/tmp/ccV1QtaS.ltrans7.ltrans.o
                0x00436035                get_passwd.lto_priv.0
 .text.crc32_new_table_le
                0x00436074       0x3c /home/notlean/openwrt-uboost/tmp/ccV1QtaS.ltrans7.ltrans.o
                0x00436075                crc32_new_table_le
 .text.rewrite.lto_priv.0
                0x004360b0      0x314 /home/notlean/openwrt-uboost/tmp/ccV1QtaS.ltrans7.ltrans.o
                0x004360b1                rewrite.lto_priv.0
 .text.endofname
                0x004363c4       0x30 /home/notlean/openwrt-uboost/tmp/ccV1QtaS.ltrans7.ltrans.o
                0x004363c5                endofname
 .text.fclose_if_not_stdin
                0x004363f4       0x34 /home/notlean/openwrt-uboost/tmp/ccV1QtaS.ltrans7.ltrans.o
                0x004363f5                fclose_if_not_stdin
 .text.fflush_stdout_and_exit
                0x00436428       0x2c /home/notlean/openwrt-uboost/tmp/ccV1QtaS.ltrans7.ltrans.o
                0x00436429                fflush_stdout_and_exit
 .text.fflush_stdout_and_exit_SUCCESS
                0x00436454        0x8 /home/notlean/openwrt-uboost/tmp/ccV1QtaS.ltrans7.ltrans.o
                0x00436455                fflush_stdout_and_exit_SUCCESS
 .text.find_mount_point
                0x0043645c       0xbc /home/notlean/openwrt-uboost/tmp/ccV1QtaS.ltrans7.ltrans.o
                0x0043645d                find_mount_point
 .text.bb_get_chunk_from_file
                0x00436518       0x64 /home/notlean/openwrt-uboost/tmp/ccV1QtaS.ltrans7.ltrans.o
                0x00436519                bb_get_chunk_from_file
 .text.xmalloc_fgetline
                0x0043657c       0x20 /home/notlean/openwrt-uboost/tmp/ccV1QtaS.ltrans7.ltrans.o
                0x0043657d                xmalloc_fgetline
 .text.get_shell_name
                0x0043659c       0x3c /home/notlean/openwrt-uboost/tmp/ccV1QtaS.ltrans7.ltrans.o
                0x0043659d                get_shell_name
 .text.make_all_argv_opts
                0x004365d8       0x3c /home/notlean/openwrt-uboost/tmp/ccV1QtaS.ltrans7.ltrans.o
                0x004365d9                make_all_argv_opts
 .text.md5_hash
                0x00436614       0x78 /home/notlean/openwrt-uboost/tmp/ccV1QtaS.ltrans7.ltrans.o
                0x00436615                md5_hash
 .text.make_human_readable_str
                0x0043668c       0xcc /home/notlean/openwrt-uboost/tmp/ccV1QtaS.ltrans7.ltrans.o
                0x0043668d                make_human_readable_str
 .text.inet_cksum
                0x00436758       0x2c /home/notlean/openwrt-uboost/tmp/ccV1QtaS.ltrans7.ltrans.o
                0x00436759                inet_cksum
 .text.INET_resolve
                0x00436784       0x60 /home/notlean/openwrt-uboost/tmp/ccV1QtaS.ltrans7.ltrans.o
                0x00436785                INET_resolve
 .text.INET6_resolve
                0x004367e4       0x70 /home/notlean/openwrt-uboost/tmp/ccV1QtaS.ltrans7.ltrans.o
                0x004367e5                INET6_resolve
 .text.is_in_ino_dev_hashtable
                0x00436854       0x78 /home/notlean/openwrt-uboost/tmp/ccV1QtaS.ltrans7.ltrans.o
                0x00436855                is_in_ino_dev_hashtable
 .text.add_to_ino_dev_hashtable
                0x004368cc       0x8c /home/notlean/openwrt-uboost/tmp/ccV1QtaS.ltrans7.ltrans.o
                0x004368cd                add_to_ino_dev_hashtable
 .text.iterate_on_dir
                0x00436958       0x34 /home/notlean/openwrt-uboost/tmp/ccV1QtaS.ltrans7.ltrans.o
                0x00436959                iterate_on_dir
 .text.deinit_S.lto_priv.0
                0x0043698c       0x28 /home/notlean/openwrt-uboost/tmp/ccV1QtaS.ltrans7.ltrans.o
                0x0043698d                deinit_S.lto_priv.0
 .text.free_tab_completion_data.lto_priv.0
                0x004369b4       0x30 /home/notlean/openwrt-uboost/tmp/ccV1QtaS.ltrans7.ltrans.o
                0x004369b5                free_tab_completion_data.lto_priv.0
 .text.sanitize_env_if_suid
                0x004369e4       0x44 /home/notlean/openwrt-uboost/tmp/ccV1QtaS.ltrans7.ltrans.o
                0x004369e5                sanitize_env_if_suid
 .text.bb_make_directory
                0x00436a28      0x114 /home/notlean/openwrt-uboost/tmp/ccV1QtaS.ltrans7.ltrans.o
                0x00436a29                bb_make_directory
 .text.fstype_matches
                0x00436b3c       0x44 /home/notlean/openwrt-uboost/tmp/ccV1QtaS.ltrans7.ltrans.o
                0x00436b3d                fstype_matches
 .text.bb_mode_string
                0x00436b80       0x88 /home/notlean/openwrt-uboost/tmp/ccV1QtaS.ltrans7.ltrans.o
                0x00436b81                bb_mode_string
 .text.nuke_str
                0x00436c08       0x10 /home/notlean/openwrt-uboost/tmp/ccV1QtaS.ltrans7.ltrans.o
                0x00436c09                nuke_str
 .text.string_checker.lto_priv.0
                0x00436c18       0x5c /home/notlean/openwrt-uboost/tmp/ccV1QtaS.ltrans7.ltrans.o
                0x00436c19                string_checker.lto_priv.0
 .text.config_open2
                0x00436c74       0x1c /home/notlean/openwrt-uboost/tmp/ccV1QtaS.ltrans7.ltrans.o
                0x00436c75                config_open2
 .text.config_close
                0x00436c90       0x24 /home/notlean/openwrt-uboost/tmp/ccV1QtaS.ltrans7.ltrans.o
                0x00436c91                config_close
 .text.bb_parse_mode
                0x00436cb4      0x168 /home/notlean/openwrt-uboost/tmp/ccV1QtaS.ltrans7.ltrans.o
                0x00436cb5                bb_parse_mode
 .text.write_pidfile
                0x00436e1c       0x70 /home/notlean/openwrt-uboost/tmp/ccV1QtaS.ltrans7.ltrans.o
                0x00436e1d                write_pidfile
 .text.printable_string2
                0x00436e8c       0x4c /home/notlean/openwrt-uboost/tmp/ccV1QtaS.ltrans7.ltrans.o
                0x00436e8d                printable_string2
 .text.bb_process_escape_sequence
                0x00436ed8       0x7c /home/notlean/openwrt-uboost/tmp/ccV1QtaS.ltrans7.ltrans.o
                0x00436ed9                bb_process_escape_sequence
 .text.read_cmdline
                0x00436f54       0xdc /home/notlean/openwrt-uboost/tmp/ccV1QtaS.ltrans7.ltrans.o
                0x00436f55                read_cmdline
 .text.i64c.lto_priv.0
                0x00437030       0x28 /home/notlean/openwrt-uboost/tmp/ccV1QtaS.ltrans7.ltrans.o
                0x00437031                i64c.lto_priv.0
 .text.pw_encrypt
                0x00437058       0x28 /home/notlean/openwrt-uboost/tmp/ccV1QtaS.ltrans7.ltrans.o
                0x00437059                pw_encrypt
 .text.xread    0x00437080       0x20 /home/notlean/openwrt-uboost/tmp/ccV1QtaS.ltrans7.ltrans.o
                0x00437081                xread
 .text.recursive_action1.lto_priv.0
                0x004370a0      0x114 /home/notlean/openwrt-uboost/tmp/ccV1QtaS.ltrans7.ltrans.o
                0x004370a1                recursive_action1.lto_priv.0
 .text.remove_file
                0x004371b4      0x184 /home/notlean/openwrt-uboost/tmp/ccV1QtaS.ltrans7.ltrans.o
                0x004371b5                remove_file
 .text.rtc_xopen
                0x00437338       0x80 /home/notlean/openwrt-uboost/tmp/ccV1QtaS.ltrans7.ltrans.o
                0x00437339                rtc_xopen
 .text.safe_gethostname
                0x004373b8       0x2c /home/notlean/openwrt-uboost/tmp/ccV1QtaS.ltrans7.ltrans.o
                0x004373b9                safe_gethostname
 .text.safe_poll
                0x004373e4       0x44 /home/notlean/openwrt-uboost/tmp/ccV1QtaS.ltrans7.ltrans.o
                0x004373e5                safe_poll
 .text.read_key
                0x00437428      0x1d4 /home/notlean/openwrt-uboost/tmp/ccV1QtaS.ltrans7.ltrans.o
                0x00437429                read_key
 .text.nonblock_immune_read
                0x004375fc       0x3c /home/notlean/openwrt-uboost/tmp/ccV1QtaS.ltrans7.ltrans.o
                0x004375fd                nonblock_immune_read
 .text.setup_environment
                0x00437638       0xb4 /home/notlean/openwrt-uboost/tmp/ccV1QtaS.ltrans7.ltrans.o
                0x00437639                setup_environment
 .text.skip_whitespace
                0x004376ec       0x14 /home/notlean/openwrt-uboost/tmp/ccV1QtaS.ltrans7.ltrans.o
                0x004376ed                skip_whitespace
 .text.bb_dump_add
                0x00437700      0x128 /home/notlean/openwrt-uboost/tmp/ccV1QtaS.ltrans7.ltrans.o
                0x00437701                bb_dump_add
 .text.config_read
                0x00437828      0x220 /home/notlean/openwrt-uboost/tmp/ccV1QtaS.ltrans7.ltrans.o
                0x00437829                config_read
 .text.skip_non_whitespace
                0x00437a48       0x1c /home/notlean/openwrt-uboost/tmp/ccV1QtaS.ltrans7.ltrans.o
                0x00437a49                skip_non_whitespace
 .text.trim     0x00437a64       0x4c /home/notlean/openwrt-uboost/tmp/ccV1QtaS.ltrans7.ltrans.o
                0x00437a65                trim
 .text.get_signum
                0x00437ab0       0x50 /home/notlean/openwrt-uboost/tmp/ccV1QtaS.ltrans7.ltrans.o
                0x00437ab1                get_signum
 .text.fopen_or_warn
                0x00437b00       0x18 /home/notlean/openwrt-uboost/tmp/ccV1QtaS.ltrans7.ltrans.o
                0x00437b01                fopen_or_warn
 .text.fopen_or_warn_stdin
                0x00437b18       0x30 /home/notlean/openwrt-uboost/tmp/ccV1QtaS.ltrans7.ltrans.o
                0x00437b19                fopen_or_warn_stdin
 .text.xfopen_for_read
                0x00437b48       0x14 /home/notlean/openwrt-uboost/tmp/ccV1QtaS.ltrans7.ltrans.o
                0x00437b49                xfopen_for_read
 .text.xargs_main
                0x00437b5c      0x2a0 /home/notlean/openwrt-uboost/tmp/ccV1QtaS.ltrans7.ltrans.o
                0x00437b5d                xargs_main
 .text.xfdopen_helper.lto_priv.0
                0x00437dfc       0x28 /home/notlean/openwrt-uboost/tmp/ccV1QtaS.ltrans7.ltrans.o
                0x00437dfd                xfdopen_helper.lto_priv.0
 .text.xfopen_stdin
                0x00437e24       0x14 /home/notlean/openwrt-uboost/tmp/ccV1QtaS.ltrans7.ltrans.o
                0x00437e25                xfopen_stdin
 .text.open_or_warn_stdin
                0x00437e38       0x28 /home/notlean/openwrt-uboost/tmp/ccV1QtaS.ltrans7.ltrans.o
                0x00437e39                open_or_warn_stdin
 .text.bb_cat   0x00437e60       0x48 /home/notlean/openwrt-uboost/tmp/ccV1QtaS.ltrans7.ltrans.o
                0x00437e61                bb_cat
 .text.setsockopt_int
                0x00437ea8       0x14 /home/notlean/openwrt-uboost/tmp/ccV1QtaS.ltrans7.ltrans.o
                0x00437ea9                setsockopt_int
 .text.setsockopt_SOL_SOCKET_1
                0x00437ebc       0x14 /home/notlean/openwrt-uboost/tmp/ccV1QtaS.ltrans7.ltrans.o
                0x00437ebd                setsockopt_SOL_SOCKET_1
 .text.get_sock_lsa
                0x00437ed0       0x78 /home/notlean/openwrt-uboost/tmp/ccV1QtaS.ltrans7.ltrans.o
                0x00437ed1                get_sock_lsa
 .text.xconnect
                0x00437f48       0x38 /home/notlean/openwrt-uboost/tmp/ccV1QtaS.ltrans7.ltrans.o
                0x00437f49                xconnect
 .text.set_nport
                0x00437f80       0x14 /home/notlean/openwrt-uboost/tmp/ccV1QtaS.ltrans7.ltrans.o
                0x00437f81                set_nport
 .text.str2sockaddr.lto_priv.0
                0x00437f94      0x1e8 /home/notlean/openwrt-uboost/tmp/ccV1QtaS.ltrans7.ltrans.o
                0x00437f95                str2sockaddr.lto_priv.0
 .text.sockaddr2str.lto_priv.0
                0x0043817c       0x74 /home/notlean/openwrt-uboost/tmp/ccV1QtaS.ltrans7.ltrans.o
                0x0043817d                sockaddr2str.lto_priv.0
 .text.xmalloc_sockaddr2dotted_noport
                0x004381f0       0x10 /home/notlean/openwrt-uboost/tmp/ccV1QtaS.ltrans7.ltrans.o
                0x004381f1                xmalloc_sockaddr2dotted_noport
 .text.INET_rresolve
                0x00438200       0xe0 /home/notlean/openwrt-uboost/tmp/ccV1QtaS.ltrans7.ltrans.o
                0x00438201                INET_rresolve
 .text.xmalloc_readlink
                0x004382e0       0x3c /home/notlean/openwrt-uboost/tmp/ccV1QtaS.ltrans7.ltrans.o
                0x004382e1                xmalloc_readlink
 .text.procps_scan
                0x0043831c      0x29c /home/notlean/openwrt-uboost/tmp/ccV1QtaS.ltrans7.ltrans.o
                0x0043831d                procps_scan
 .text.update_passwd
                0x004385b8      0x2fc /home/notlean/openwrt-uboost/tmp/ccV1QtaS.ltrans7.ltrans.o
                0x004385b9                update_passwd
 .text.xmalloc_readlink_or_warn
                0x004388b4       0x3c /home/notlean/openwrt-uboost/tmp/ccV1QtaS.ltrans7.ltrans.o
                0x004388b5                xmalloc_readlink_or_warn
 .text.copy_file
                0x004388f0      0x4d8 /home/notlean/openwrt-uboost/tmp/ccV1QtaS.ltrans7.ltrans.o
                0x004388f1                copy_file
 .text.xmalloc_realpath
                0x00438dc8       0x20 /home/notlean/openwrt-uboost/tmp/ccV1QtaS.ltrans7.ltrans.o
                0x00438dc9                xmalloc_realpath
 .text.xrealloc_vector_helper
                0x00438de8       0x44 /home/notlean/openwrt-uboost/tmp/ccV1QtaS.ltrans7.ltrans.o
                0x00438de9                xrealloc_vector_helper
 .text.find_pid_by_name
                0x00438e2c       0xbc /home/notlean/openwrt-uboost/tmp/ccV1QtaS.ltrans7.ltrans.o
                0x00438e2d                find_pid_by_name
 .text.add_match
                0x00438ee8       0x44 /home/notlean/openwrt-uboost/tmp/ccV1QtaS.ltrans7.ltrans.o
 .text.complete_cmd_dir_file
                0x00438f2c      0x23c /home/notlean/openwrt-uboost/tmp/ccV1QtaS.ltrans7.ltrans.o
 .text.get_cached.lto_priv.0
                0x00439168       0x74 /home/notlean/openwrt-uboost/tmp/ccV1QtaS.ltrans7.ltrans.o
                0x00439169                get_cached.lto_priv.0
 .text.xregcomp
                0x004391dc       0x44 /home/notlean/openwrt-uboost/tmp/ccV1QtaS.ltrans7.ltrans.o
                0x004391dd                xregcomp
 .text.parse_chown_usergroup_or_die
                0x00439220       0x6c /home/notlean/openwrt-uboost/tmp/ccV1QtaS.ltrans7.ltrans.o
                0x00439221                parse_chown_usergroup_or_die
 .text.setup_transformer_on_fd.constprop.0
                0x0043928c       0x44 /home/notlean/openwrt-uboost/tmp/ccV1QtaS.ltrans7.ltrans.o
                0x0043928d                setup_transformer_on_fd.constprop.0
 .text.redirectsafe.constprop.0
                0x004392d0       0x6c /home/notlean/openwrt-uboost/tmp/ccV1QtaS.ltrans7.ltrans.o
                0x004392d1                redirectsafe.constprop.0
 .text.xrealloc_getcwd_or_warn.constprop.0
                0x0043933c       0x5c /home/notlean/openwrt-uboost/tmp/ccV1QtaS.ltrans7.ltrans.o
                0x0043933d                xrealloc_getcwd_or_warn.constprop.0
 .text.bb_simplify_path
                0x00439398       0x88 /home/notlean/openwrt-uboost/tmp/ccV1QtaS.ltrans7.ltrans.o
                0x00439399                bb_simplify_path
 .text.xmalloc_realpath_coreutils
                0x00439420      0x10c /home/notlean/openwrt-uboost/tmp/ccV1QtaS.ltrans7.ltrans.o
                0x00439421                xmalloc_realpath_coreutils
 .text.ash_msg_and_raise.constprop.0
                0x0043952c       0x20 /home/notlean/openwrt-uboost/tmp/ccV1QtaS.ltrans7.ltrans.o
                0x0043952d                ash_msg_and_raise.constprop.0
 .text.listvars.constprop.0
                0x0043954c       0x7c /home/notlean/openwrt-uboost/tmp/ccV1QtaS.ltrans7.ltrans.o
                0x0043954d                listvars.constprop.0
 .text.legal_pathopt.constprop.0
                0x004395c8       0x2c /home/notlean/openwrt-uboost/tmp/ccV1QtaS.ltrans7.ltrans.o
                0x004395c9                legal_pathopt.constprop.0
 .text.xmalloc_read.constprop.0
                0x004395f4       0x94 /home/notlean/openwrt-uboost/tmp/ccV1QtaS.ltrans7.ltrans.o
                0x004395f5                xmalloc_read.constprop.0
 .text.smart_ulltoa5.constprop.0
                0x00439688      0x178 /home/notlean/openwrt-uboost/tmp/ccV1QtaS.ltrans7.ltrans.o
                0x00439689                smart_ulltoa5.constprop.0
 .text.udhcp_option_idx.constprop.0
                0x00439800       0x58 /home/notlean/openwrt-uboost/tmp/ccV1QtaS.ltrans7.ltrans.o
                0x00439801                udhcp_option_idx.constprop.0
 .text.udhcp_insert_new_option.constprop.0
                0x00439858       0x48 /home/notlean/openwrt-uboost/tmp/ccV1QtaS.ltrans7.ltrans.o
                0x00439859                udhcp_insert_new_option.constprop.0
 .text.attach_option.constprop.0
                0x004398a0      0x1ec /home/notlean/openwrt-uboost/tmp/ccV1QtaS.ltrans7.ltrans.o
                0x004398a1                attach_option.constprop.0
 .text.udhcp_send_raw_packet.constprop.0
                0x00439a8c      0x190 /home/notlean/openwrt-uboost/tmp/ccV1QtaS.ltrans7.ltrans.o
                0x00439a8d                udhcp_send_raw_packet.constprop.0
 .text.ll_addr_n2a.constprop.0
                0x00439c1c       0x8c /home/notlean/openwrt-uboost/tmp/ccV1QtaS.ltrans7.ltrans.o
                0x00439c1d                ll_addr_n2a.constprop.0
 .text.sendping_tail.constprop.0
                0x00439ca8       0xe0 /home/notlean/openwrt-uboost/tmp/ccV1QtaS.ltrans7.ltrans.o
                0x00439ca9                sendping_tail.constprop.0
 .text.recv_from_to.constprop.0
                0x00439d88       0xc4 /home/notlean/openwrt-uboost/tmp/ccV1QtaS.ltrans7.ltrans.o
                0x00439d89                recv_from_to.constprop.0
 .text.xsocket_type.constprop.0
                0x00439e4c       0x5c /home/notlean/openwrt-uboost/tmp/ccV1QtaS.ltrans7.ltrans.o
                0x00439e4d                xsocket_type.constprop.0
 .text.if_readlist_proc.constprop.0
                0x00439ea8      0x1ac /home/notlean/openwrt-uboost/tmp/ccV1QtaS.ltrans7.ltrans.o
                0x00439ea9                if_readlist_proc.constprop.0
 .text.log7.constprop.0
                0x0043a054       0x24 /home/notlean/openwrt-uboost/tmp/ccV1QtaS.ltrans7.ltrans.o
                0x0043a055                log7.constprop.0
 .text.xstrtoull_range_sfx.constprop.0
                0x0043a078       0xd8 /home/notlean/openwrt-uboost/tmp/ccV1QtaS.ltrans7.ltrans.o
                0x0043a079                xstrtoull_range_sfx.constprop.0
 .text.rta_addattr32.constprop.0.isra.0
                0x0043a150       0x58 /home/notlean/openwrt-uboost/tmp/ccV1QtaS.ltrans7.ltrans.o
                0x0043a151                rta_addattr32.constprop.0.isra.0
 .text.setsockopt_1.isra.0
                0x0043a1a8        0xc /home/notlean/openwrt-uboost/tmp/ccV1QtaS.ltrans7.ltrans.o
                0x0043a1a9                setsockopt_1.isra.0
 .text.del_loop.isra.0
                0x0043a1b4       0x24 /home/notlean/openwrt-uboost/tmp/ccV1QtaS.ltrans7.ltrans.o
                0x0043a1b5                del_loop.isra.0
 .text.bb_dump_size.isra.0
                0x0043a1d8       0xe8 /home/notlean/openwrt-uboost/tmp/ccV1QtaS.ltrans7.ltrans.o
                0x0043a1d9                bb_dump_size.isra.0
 .text.text_yank.isra.0
                0x0043a2c0       0x44 /home/notlean/openwrt-uboost/tmp/ccV1QtaS.ltrans7.ltrans.o
                0x0043a2c1                text_yank.isra.0
 .text.awk_exit.isra.0
                0x0043a304       0x68 /home/notlean/openwrt-uboost/tmp/ccV1QtaS.ltrans7.ltrans.o
                0x0043a305                awk_exit.isra.0
 .text.setvar_u.isra.0
                0x0043a36c       0x18 /home/notlean/openwrt-uboost/tmp/ccV1QtaS.ltrans7.ltrans.o
                0x0043a36d                setvar_u.isra.0
 .text.clrvar.isra.0
                0x0043a384       0x2c /home/notlean/openwrt-uboost/tmp/ccV1QtaS.ltrans7.ltrans.o
                0x0043a385                clrvar.isra.0
 .text.dup2_or_raise.isra.0
                0x0043a3b0       0x24 /home/notlean/openwrt-uboost/tmp/ccV1QtaS.ltrans7.ltrans.o
                0x0043a3b1                dup2_or_raise.isra.0
 .text.pushredir.isra.0
                0x0043a3d4       0x4c /home/notlean/openwrt-uboost/tmp/ccV1QtaS.ltrans7.ltrans.o
                0x0043a3d5                pushredir.isra.0
 .text.scale.isra.0
                0x0043a420       0x14 /home/notlean/openwrt-uboost/tmp/ccV1QtaS.ltrans7.ltrans.o
                0x0043a421                scale.isra.0
 .text.xmalloc_optname_optval.isra.0
                0x0043a434      0x2dc /home/notlean/openwrt-uboost/tmp/ccV1QtaS.ltrans7.ltrans.o
                0x0043a435                xmalloc_optname_optval.isra.0
 .text.send_select.isra.0
                0x0043a710       0x80 /home/notlean/openwrt-uboost/tmp/ccV1QtaS.ltrans7.ltrans.o
                0x0043a711                send_select.isra.0
 .text.send_discover.isra.0
                0x0043a790       0x64 /home/notlean/openwrt-uboost/tmp/ccV1QtaS.ltrans7.ltrans.o
                0x0043a791                send_discover.isra.0
 .text.get_addr.isra.0
                0x0043a7f4       0x3c /home/notlean/openwrt-uboost/tmp/ccV1QtaS.ltrans7.ltrans.o
                0x0043a7f5                get_addr.isra.0
 .text.ll_init_map.isra.0
                0x0043a830       0x20 /home/notlean/openwrt-uboost/tmp/ccV1QtaS.ltrans7.ltrans.o
                0x0043a831                ll_init_map.isra.0
 .text.addattr_l.isra.0
                0x0043a850       0x54 /home/notlean/openwrt-uboost/tmp/ccV1QtaS.ltrans7.ltrans.o
                0x0043a851                addattr_l.isra.0
 .text.addattr32.isra.0
                0x0043a8a4       0x50 /home/notlean/openwrt-uboost/tmp/ccV1QtaS.ltrans7.ltrans.o
                0x0043a8a5                addattr32.isra.0
 .text.handle_errors.isra.0
                0x0043a8f4       0x38 /home/notlean/openwrt-uboost/tmp/ccV1QtaS.ltrans7.ltrans.o
                0x0043a8f5                handle_errors.isra.0
 .text.bb_strtoll.constprop.0
                0x0043a92c       0x4c /home/notlean/openwrt-uboost/tmp/ccV1QtaS.ltrans7.ltrans.o
                0x0043a92d                bb_strtoll.constprop.0
 .text.BB_EXECVP.isra.0
                0x0043a978       0x28 /home/notlean/openwrt-uboost/tmp/ccV1QtaS.ltrans7.ltrans.o
                0x0043a979                BB_EXECVP.isra.0
 .text.bb_xioctl.isra.0
                0x0043a9a0       0x18 /home/notlean/openwrt-uboost/tmp/ccV1QtaS.ltrans7.ltrans.o
                0x0043a9a1                bb_xioctl.isra.0
 .text.fputs_stdout.isra.0
                0x0043a9b8       0x14 /home/notlean/openwrt-uboost/tmp/ccV1QtaS.ltrans7.ltrans.o
                0x0043a9b9                fputs_stdout.isra.0
 .text.display.lto_priv.0
                0x0043a9cc      0x5d8 /home/notlean/openwrt-uboost/tmp/ccV1QtaS.ltrans7.ltrans.o
                0x0043a9cd                display.lto_priv.0
 .text.put_prompt_custom
                0x0043afa4       0x34 /home/notlean/openwrt-uboost/tmp/ccV1QtaS.ltrans7.ltrans.o
 .text.parse_and_put_prompt.lto_priv.0
                0x0043afd8      0x2fc /home/notlean/openwrt-uboost/tmp/ccV1QtaS.ltrans7.ltrans.o
                0x0043afd9                parse_and_put_prompt.lto_priv.0
 .text.bb_putchar.isra.0
                0x0043b2d4        0xc /home/notlean/openwrt-uboost/tmp/ccV1QtaS.ltrans7.ltrans.o
                0x0043b2d5                bb_putchar.isra.0
 .text.put_cur_glyph_and_inc_cursor.lto_priv.0
                0x0043b2e0       0x4c /home/notlean/openwrt-uboost/tmp/ccV1QtaS.ltrans7.ltrans.o
                0x0043b2e1                put_cur_glyph_and_inc_cursor.lto_priv.0
 .text.put_till_end_and_adv_cursor.lto_priv.0
                0x0043b32c       0x20 /home/notlean/openwrt-uboost/tmp/ccV1QtaS.ltrans7.ltrans.o
                0x0043b32d                put_till_end_and_adv_cursor.lto_priv.0
 .text.input_forward.lto_priv.0
                0x0043b34c       0x20 /home/notlean/openwrt-uboost/tmp/ccV1QtaS.ltrans7.ltrans.o
                0x0043b34d                input_forward.lto_priv.0
 .text.ctrl_right.lto_priv.0
                0x0043b36c       0x54 /home/notlean/openwrt-uboost/tmp/ccV1QtaS.ltrans7.ltrans.o
                0x0043b36d                ctrl_right.lto_priv.0
 .text.goto_new_line.lto_priv.0
                0x0043b3c0       0x24 /home/notlean/openwrt-uboost/tmp/ccV1QtaS.ltrans7.ltrans.o
                0x0043b3c1                goto_new_line.lto_priv.0
 .text.input_backward.lto_priv.0
                0x0043b3e4       0x88 /home/notlean/openwrt-uboost/tmp/ccV1QtaS.ltrans7.ltrans.o
                0x0043b3e5                input_backward.lto_priv.0
 .text.input_delete.lto_priv.0
                0x0043b46c       0x44 /home/notlean/openwrt-uboost/tmp/ccV1QtaS.ltrans7.ltrans.o
                0x0043b46d                input_delete.lto_priv.0
 .text.input_backspace.lto_priv.0
                0x0043b4b0       0x20 /home/notlean/openwrt-uboost/tmp/ccV1QtaS.ltrans7.ltrans.o
                0x0043b4b1                input_backspace.lto_priv.0
 .text.ctrl_left.lto_priv.0
                0x0043b4d0       0x54 /home/notlean/openwrt-uboost/tmp/ccV1QtaS.ltrans7.ltrans.o
                0x0043b4d1                ctrl_left.lto_priv.0
 .text.draw_custom.lto_priv.0
                0x0043b524       0x40 /home/notlean/openwrt-uboost/tmp/ccV1QtaS.ltrans7.ltrans.o
                0x0043b525                draw_custom.lto_priv.0
 .text.get_previous_history.lto_priv.0
                0x0043b564       0x38 /home/notlean/openwrt-uboost/tmp/ccV1QtaS.ltrans7.ltrans.o
                0x0043b565                get_previous_history.lto_priv.0
 .text.input_tab.lto_priv.0
                0x0043b59c      0x2e0 /home/notlean/openwrt-uboost/tmp/ccV1QtaS.ltrans7.ltrans.o
                0x0043b59d                input_tab.lto_priv.0
 .text.get_next_history.lto_priv.0
                0x0043b87c       0x38 /home/notlean/openwrt-uboost/tmp/ccV1QtaS.ltrans7.ltrans.o
                0x0043b87d                get_next_history.lto_priv.0
 .text.bb_ask_noecho.constprop.0
                0x0043b8b4      0x108 /home/notlean/openwrt-uboost/tmp/ccV1QtaS.ltrans7.ltrans.o
                0x0043b8b5                bb_ask_noecho.constprop.0
 .text.tcsetattr_stdin_TCSANOW.isra.0
                0x0043b9bc       0x10 /home/notlean/openwrt-uboost/tmp/ccV1QtaS.ltrans7.ltrans.o
                0x0043b9bd                tcsetattr_stdin_TCSANOW.isra.0
 .text.full_write2_str.isra.0
                0x0043b9cc       0x18 /home/notlean/openwrt-uboost/tmp/ccV1QtaS.ltrans7.ltrans.o
                0x0043b9cd                full_write2_str.isra.0
 .text.strncpy_IFNAMSIZ.isra.0
                0x0043b9e4        0xc /home/notlean/openwrt-uboost/tmp/ccV1QtaS.ltrans7.ltrans.o
                0x0043b9e5                strncpy_IFNAMSIZ.isra.0
 .text.setsockopt_bindtodevice
                0x0043b9f0       0x34 /home/notlean/openwrt-uboost/tmp/ccV1QtaS.ltrans7.ltrans.o
                0x0043b9f1                setsockopt_bindtodevice
 .text.common_ping_main.isra.0
                0x0043ba24      0x608 /home/notlean/openwrt-uboost/tmp/ccV1QtaS.ltrans7.ltrans.o
                0x0043ba25                common_ping_main.isra.0
 .text.udhcp_read_interface.constprop.0
                0x0043c02c       0xb8 /home/notlean/openwrt-uboost/tmp/ccV1QtaS.ltrans7.ltrans.o
                0x0043c02d                udhcp_read_interface.constprop.0
 .text.ndelay_off.isra.0
                0x0043c0e4       0x24 /home/notlean/openwrt-uboost/tmp/ccV1QtaS.ltrans7.ltrans.o
                0x0043c0e5                ndelay_off.isra.0
 *(SORT_BY_ALIGNMENT(.gnu.warning))
 *(SORT_BY_ALIGNMENT(.mips16.fn.*))
 *(SORT_BY_ALIGNMENT(.mips16.call.*))

.MIPS.stubs     0x0043c108        0x0
 .MIPS.stubs    0x0043c108        0x0 /home/notlean/openwrt-uboost/staging_dir/toolchain-mipsel_24kc_gcc-12.3.0_musl/lib/gcc/mipsel-openwrt-linux-musl/12.3.0/../../../../mipsel-openwrt-linux-musl/lib/crt1.o

.fini           0x0043c108       0x1c
 *(SORT_NONE(.fini))
 .fini          0x0043c108        0xc /home/notlean/openwrt-uboost/staging_dir/toolchain-mipsel_24kc_gcc-12.3.0_musl/lib/gcc/mipsel-openwrt-linux-musl/12.3.0/../../../../mipsel-openwrt-linux-musl/lib/crti.o
                0x0043c108                _fini
 .fini          0x0043c114       0x10 /home/notlean/openwrt-uboost/staging_dir/toolchain-mipsel_24kc_gcc-12.3.0_musl/lib/gcc/mipsel-openwrt-linux-musl/12.3.0/../../../../mipsel-openwrt-linux-musl/lib/crtn.o
                [!provide]                        PROVIDE (__etext = .)
                [!provide]                        PROVIDE (_etext = .)
                [!provide]                        PROVIDE (etext = .)

.rodata         0x0043c130    0x12061
 *(SORT_BY_ALIGNMENT(.rodata) SORT_BY_ALIGNMENT(.rodata.*) SORT_BY_ALIGNMENT(.gnu.linkonce.r.*))
 .rodata        0x0043c130       0xf0 /home/notlean/openwrt-uboost/tmp/ccV1QtaS.ltrans0.ltrans.o
 .rodata        0x0043c220       0x50 /home/notlean/openwrt-uboost/tmp/ccV1QtaS.ltrans1.ltrans.o
 .rodata        0x0043c270       0x40 /home/notlean/openwrt-uboost/tmp/ccV1QtaS.ltrans2.ltrans.o
 .rodata        0x0043c2b0       0x60 /home/notlean/openwrt-uboost/tmp/ccV1QtaS.ltrans3.ltrans.o
 .rodata        0x0043c310      0x150 /home/notlean/openwrt-uboost/tmp/ccV1QtaS.ltrans4.ltrans.o
 .rodata        0x0043c460      0x280 /home/notlean/openwrt-uboost/tmp/ccV1QtaS.ltrans5.ltrans.o
 .rodata        0x0043c6e0       0xc0 /home/notlean/openwrt-uboost/tmp/ccV1QtaS.ltrans6.ltrans.o
 .rodata        0x0043c7a0       0x70 /home/notlean/openwrt-uboost/tmp/ccV1QtaS.ltrans7.ltrans.o
 .rodata.sha_K  0x0043c810      0x100 /home/notlean/openwrt-uboost/tmp/ccV1QtaS.ltrans7.ltrans.o
 .rodata.prg_cache_get.str1.4
                0x0043c910        0x0 /home/notlean/openwrt-uboost/tmp/ccV1QtaS.ltrans0.ltrans.o
                                  0x4 (size before relaxing)
 .rodata.clear_line.str1.4
                0x0043c910        0xb /home/notlean/openwrt-uboost/tmp/ccV1QtaS.ltrans0.ltrans.o
                                  0xc (size before relaxing)
 *fill*         0x0043c91b        0x1 
 .rodata.print_statusline.str1.4
                0x0043c91c        0xc /home/notlean/openwrt-uboost/tmp/ccV1QtaS.ltrans0.ltrans.o
 .rodata.show_bridge_timer.str1.4
                0x0043c928        0xb /home/notlean/openwrt-uboost/tmp/ccV1QtaS.ltrans0.ltrans.o
                                  0xc (size before relaxing)
 *fill*         0x0043c933        0x1 
 .rodata.print_bytes_scaled.str1.4
                0x0043c934       0x1d /home/notlean/openwrt-uboost/tmp/ccV1QtaS.ltrans0.ltrans.o
                                 0x20 (size before relaxing)
 *fill*         0x0043c951        0x3 
 .rodata.status_print.str1.4
                0x0043c954       0x2e /home/notlean/openwrt-uboost/tmp/ccV1QtaS.ltrans0.ltrans.o
                                 0x30 (size before relaxing)
 *fill*         0x0043c982        0x2 
 .rodata.lock_main.str1.4
                0x0043c984       0xe0 /home/notlean/openwrt-uboost/tmp/ccV1QtaS.ltrans0.ltrans.o
                                 0xe8 (size before relaxing)
 .rodata.INET_sprint.str1.4
                0x0043ca64        0xb /home/notlean/openwrt-uboost/tmp/ccV1QtaS.ltrans0.ltrans.o
                                  0xc (size before relaxing)
 *fill*         0x0043ca6f        0x1 
 .rodata.netmsg_main.str1.4
                0x0043ca70       0x45 /home/notlean/openwrt-uboost/tmp/ccV1QtaS.ltrans0.ltrans.o
                                 0x48 (size before relaxing)
 *fill*         0x0043cab5        0x3 
 .rodata.build_ipv6_addr.str1.4
                0x0043cab8       0x11 /home/notlean/openwrt-uboost/tmp/ccV1QtaS.ltrans0.ltrans.o
                                 0x14 (size before relaxing)
 *fill*         0x0043cac9        0x3 
 .rodata.scan_inet_proc_line.str1.4
                0x0043cacc       0x4f /home/notlean/openwrt-uboost/tmp/ccV1QtaS.ltrans0.ltrans.o
                                 0x50 (size before relaxing)
 *fill*         0x0043cb1b        0x1 
 .rodata.parse_reply.str1.4
                0x0043cb1c      0x144 /home/notlean/openwrt-uboost/tmp/ccV1QtaS.ltrans0.ltrans.o
                                0x14c (size before relaxing)
 .rodata.unix_do_one.str1.4
                0x0043cc60       0xae /home/notlean/openwrt-uboost/tmp/ccV1QtaS.ltrans0.ltrans.o
                                 0xb8 (size before relaxing)
 *fill*         0x0043cd0e        0x2 
 .rodata.bb_show_usage.str1.4
                0x0043cd10       0x35 /home/notlean/openwrt-uboost/tmp/ccV1QtaS.ltrans0.ltrans.o
                                 0x40 (size before relaxing)
 *fill*         0x0043cd45        0x3 
 .rodata.show_usage_if_dash_dash_help.str1.4
                0x0043cd48        0x7 /home/notlean/openwrt-uboost/tmp/ccV1QtaS.ltrans0.ltrans.o
                                  0x8 (size before relaxing)
 *fill*         0x0043cd4f        0x1 
 .rodata.ip_main.str1.4
                0x0043cd50        0x7 /home/notlean/openwrt-uboost/tmp/ccV1QtaS.ltrans0.ltrans.o
                                  0x8 (size before relaxing)
 *fill*         0x0043cd57        0x1 
 .rodata.main.str1.4
                0x0043cd58       0x1c /home/notlean/openwrt-uboost/tmp/ccV1QtaS.ltrans0.ltrans.o
 .rodata.get_terminal_width_height.str1.4
                0x0043cd74       0x10 /home/notlean/openwrt-uboost/tmp/ccV1QtaS.ltrans0.ltrans.o
 .rodata.is_TERM_dumb.str1.4
                0x0043cd84        0xd /home/notlean/openwrt-uboost/tmp/ccV1QtaS.ltrans0.ltrans.o
                                 0x10 (size before relaxing)
 *fill*         0x0043cd91        0x3 
 .rodata.alarm_handler.str1.4
                0x0043cd94       0x25 /home/notlean/openwrt-uboost/tmp/ccV1QtaS.ltrans0.ltrans.o
                                 0x28 (size before relaxing)
 *fill*         0x0043cdb9        0x3 
 .rodata.buffer_print.str1.4
                0x0043cdbc       0x29 /home/notlean/openwrt-uboost/tmp/ccV1QtaS.ltrans0.ltrans.o
                                 0x2c (size before relaxing)
 *fill*         0x0043cde5        0x3 
 .rodata.show_bridge.str1.4
                0x0043cde8       0x76 /home/notlean/openwrt-uboost/tmp/ccV1QtaS.ltrans0.ltrans.o
                                 0x78 (size before relaxing)
 .rodata.bb_verror_msg.str1.4
                0x0043ce5e       0x76 /home/notlean/openwrt-uboost/tmp/ccV1QtaS.ltrans0.ltrans.o
                                  0x4 (size before relaxing)
 *fill*         0x0043ce5e        0x2 
 .rodata.open3_or_warn.str1.4
                0x0043ce60       0x10 /home/notlean/openwrt-uboost/tmp/ccV1QtaS.ltrans0.ltrans.o
 .rodata.chdir_or_warn.str1.4
                0x0043ce70       0x1f /home/notlean/openwrt-uboost/tmp/ccV1QtaS.ltrans0.ltrans.o
                                 0x20 (size before relaxing)
 *fill*         0x0043ce8f        0x1 
 .rodata.bb_full_fd_action.lto_priv.0.str1.4
                0x0043ce90       0x18 /home/notlean/openwrt-uboost/tmp/ccV1QtaS.ltrans0.ltrans.o
 .rodata.xrename.str1.4
                0x0043cea8       0x18 /home/notlean/openwrt-uboost/tmp/ccV1QtaS.ltrans0.ltrans.o
 .rodata.xlseek.str1.4
                0x0043cec0       0x10 /home/notlean/openwrt-uboost/tmp/ccV1QtaS.ltrans0.ltrans.o
 .rodata.xchroot.str1.4
                0x0043ced0       0x24 /home/notlean/openwrt-uboost/tmp/ccV1QtaS.ltrans0.ltrans.o
                                 0x28 (size before relaxing)
 .rodata.xsocket.str1.4
                0x0043cef4       0x34 /home/notlean/openwrt-uboost/tmp/ccV1QtaS.ltrans0.ltrans.o
 .rodata.xstat.str1.4
                0x0043cf28       0x10 /home/notlean/openwrt-uboost/tmp/ccV1QtaS.ltrans0.ltrans.o
 .rodata.BB_EXECVP_or_die.str1.4
                0x0043cf38       0x13 /home/notlean/openwrt-uboost/tmp/ccV1QtaS.ltrans0.ltrans.o
                                 0x14 (size before relaxing)
 *fill*         0x0043cf4b        0x1 
 .rodata.xpipe.str1.4
                0x0043cf4c       0x12 /home/notlean/openwrt-uboost/tmp/ccV1QtaS.ltrans0.ltrans.o
                                 0x14 (size before relaxing)
 *fill*         0x0043cf5e        0x2 
 .rodata.xdup2.str1.4
                0x0043cf60       0x20 /home/notlean/openwrt-uboost/tmp/ccV1QtaS.ltrans0.ltrans.o
 .rodata.bb_daemonize_or_rexec.str1.4
                0x0043cf80       0x12 /home/notlean/openwrt-uboost/tmp/ccV1QtaS.ltrans0.ltrans.o
                                 0x14 (size before relaxing)
 *fill*         0x0043cf92        0x2 
 .rodata.xwrite.str1.4
                0x0043cf94        0xc /home/notlean/openwrt-uboost/tmp/ccV1QtaS.ltrans0.ltrans.o
 .rodata.xclose.str1.4
                0x0043cfa0        0xd /home/notlean/openwrt-uboost/tmp/ccV1QtaS.ltrans0.ltrans.o
                                 0x10 (size before relaxing)
 *fill*         0x0043cfad        0x3 
 .rodata.xsetgid.str1.4
                0x0043cfb0        0x7 /home/notlean/openwrt-uboost/tmp/ccV1QtaS.ltrans0.ltrans.o
                                  0x8 (size before relaxing)
 *fill*         0x0043cfb7        0x1 
 .rodata.xsetuid.str1.4
                0x0043cfb8        0x7 /home/notlean/openwrt-uboost/tmp/ccV1QtaS.ltrans0.ltrans.o
                                  0x8 (size before relaxing)
 *fill*         0x0043cfbf        0x1 
 .rodata.xbind.str1.4
                0x0043cfc0        0x5 /home/notlean/openwrt-uboost/tmp/ccV1QtaS.ltrans0.ltrans.o
                                  0x8 (size before relaxing)
 *fill*         0x0043cfc5        0x3 
 .rodata.xsendto.str1.4
                0x0043cfc8        0x7 /home/notlean/openwrt-uboost/tmp/ccV1QtaS.ltrans0.ltrans.o
                                  0x8 (size before relaxing)
 *fill*         0x0043cfcf        0x1 
 .rodata.xsettimeofday.str1.4
                0x0043cfd0        0xd /home/notlean/openwrt-uboost/tmp/ccV1QtaS.ltrans0.ltrans.o
                                 0x10 (size before relaxing)
 *fill*         0x0043cfdd        0x3 
 .rodata.write_uint.str1.4
                0x0043cfe0        0x9 /home/notlean/openwrt-uboost/tmp/ccV1QtaS.ltrans0.ltrans.o
                                 0x10 (size before relaxing)
 *fill*         0x0043cfe9        0x3 
 .rodata.edit_file.str1.4
                0x0043cfec       0x13 /home/notlean/openwrt-uboost/tmp/ccV1QtaS.ltrans0.ltrans.o
                                 0x14 (size before relaxing)
 *fill*         0x0043cfff        0x1 
 .rodata.die_if_ferror.str1.4
                0x0043d000        0xe /home/notlean/openwrt-uboost/tmp/ccV1QtaS.ltrans0.ltrans.o
                                 0x10 (size before relaxing)
 *fill*         0x0043d00e        0x2 
 .rodata.parse_datestr.str1.4
                0x0043d010       0x82 /home/notlean/openwrt-uboost/tmp/ccV1QtaS.ltrans0.ltrans.o
                                 0x8c (size before relaxing)
 *fill*         0x0043d092        0x2 
 .rodata.ParseField.str1.4
                0x0043d094       0x1b /home/notlean/openwrt-uboost/tmp/ccV1QtaS.ltrans0.ltrans.o
                                 0x1c (size before relaxing)
 *fill*         0x0043d0af        0x1 
 .rodata.do_if_fetch.str1.4
                0x0043d0b0       0x41 /home/notlean/openwrt-uboost/tmp/ccV1QtaS.ltrans0.ltrans.o
                                 0x44 (size before relaxing)
 *fill*         0x0043d0f1        0x3 
 .rodata.UNSPEC_print.str1.4
                0x0043d0f4        0x6 /home/notlean/openwrt-uboost/tmp/ccV1QtaS.ltrans0.ltrans.o
                                  0x8 (size before relaxing)
 *fill*         0x0043d0fa        0x2 
 .rodata.less_gets.str1.4
                0x0043d0fc        0x4 /home/notlean/openwrt-uboost/tmp/ccV1QtaS.ltrans0.ltrans.o
 .rodata.do_info.str1.4
                0x0043d100       0x1a /home/notlean/openwrt-uboost/tmp/ccV1QtaS.ltrans0.ltrans.o
                                 0x1c (size before relaxing)
 *fill*         0x0043d11a        0x2 
 .rodata.load_crontab.str1.4
                0x0043d11c       0x72 /home/notlean/openwrt-uboost/tmp/ccV1QtaS.ltrans0.ltrans.o
                                 0x74 (size before relaxing)
 *fill*         0x0043d18e        0x2 
 .rodata.rescan_crontab_dir.str1.4
                0x0043d190        0xc /home/notlean/openwrt-uboost/tmp/ccV1QtaS.ltrans0.ltrans.o
 .rodata.examine_file.str1.4
                0x0043d19c       0x22 /home/notlean/openwrt-uboost/tmp/ccV1QtaS.ltrans0.ltrans.o
                                 0x24 (size before relaxing)
 *fill*         0x0043d1be        0x2 
 .rodata.change_file.str1.4
                0x0043d1c0       0x21 /home/notlean/openwrt-uboost/tmp/ccV1QtaS.ltrans0.ltrans.o
                                 0x24 (size before relaxing)
 *fill*         0x0043d1e1        0x3 
 .rodata.INET6_sprint.str1.4
                0x0043d1e4        0xa /home/notlean/openwrt-uboost/tmp/ccV1QtaS.ltrans0.ltrans.o
                                  0xc (size before relaxing)
 *fill*         0x0043d1ee        0x2 
 .rodata.ife_print.str1.4
                0x0043d1f0      0x289 /home/notlean/openwrt-uboost/tmp/ccV1QtaS.ltrans0.ltrans.o
                                0x290 (size before relaxing)
 *fill*         0x0043d479        0x3 
 .rodata.parse_resolvconf.str1.4
                0x0043d47c       0x2b /home/notlean/openwrt-uboost/tmp/ccV1QtaS.ltrans0.ltrans.o
                                 0x34 (size before relaxing)
 *fill*         0x0043d4a7        0x1 
 .rodata.safe_setenv.str1.4
                0x0043d4a8        0x6 /home/notlean/openwrt-uboost/tmp/ccV1QtaS.ltrans0.ltrans.o
                                  0x8 (size before relaxing)
 *fill*         0x0043d4ae        0x2 
 .rodata.start_one_job.str1.4
                0x0043d4b0       0x7f /home/notlean/openwrt-uboost/tmp/ccV1QtaS.ltrans0.ltrans.o
                                 0x80 (size before relaxing)
 *fill*         0x0043d52f        0x1 
 .rodata.ether_print.str1.4
                0x0043d530       0x1e /home/notlean/openwrt-uboost/tmp/ccV1QtaS.ltrans0.ltrans.o
                                 0x20 (size before relaxing)
 *fill*         0x0043d54e        0x2 
 .rodata.ip_port_str.str1.4
                0x0043d550        0x6 /home/notlean/openwrt-uboost/tmp/ccV1QtaS.ltrans0.ltrans.o
                                  0x8 (size before relaxing)
 *fill*         0x0043d556        0x2 
 .rodata.print_inet_line.str1.4
                0x0043d558       0x26 /home/notlean/openwrt-uboost/tmp/ccV1QtaS.ltrans0.ltrans.o
                                 0x28 (size before relaxing)
 *fill*         0x0043d57e        0x2 
 .rodata.tcp_do_one.str1.4
                0x0043d580        0x4 /home/notlean/openwrt-uboost/tmp/ccV1QtaS.ltrans0.ltrans.o
 .rodata.udp_do_one.str1.4
                0x0043d584       0x10 /home/notlean/openwrt-uboost/tmp/ccV1QtaS.ltrans0.ltrans.o
 .rodata.raw_do_one.str1.4
                0x0043d594        0x4 /home/notlean/openwrt-uboost/tmp/ccV1QtaS.ltrans0.ltrans.o
 .rodata.add_query_with_search.str1.4
                0x0043d598        0x8 /home/notlean/openwrt-uboost/tmp/ccV1QtaS.ltrans0.ltrans.o
 .rodata.bb_copyfd_exact_size.str1.4
                0x0043d5a0        0xb /home/notlean/openwrt-uboost/tmp/ccV1QtaS.ltrans0.ltrans.o
                                  0xc (size before relaxing)
 *fill*         0x0043d5ab        0x1 
 .rodata.get_mono.str1.4
                0x0043d5ac       0x20 /home/notlean/openwrt-uboost/tmp/ccV1QtaS.ltrans0.ltrans.o
 .rodata.run_command.str1.4
                0x0043d5cc        0x5 /home/notlean/openwrt-uboost/tmp/ccV1QtaS.ltrans0.ltrans.o
                                  0x8 (size before relaxing)
 *fill*         0x0043d5d1        0x3 
 .rodata.send_queries.str1.4
                0x0043d5d4       0x98 /home/notlean/openwrt-uboost/tmp/ccV1QtaS.ltrans0.ltrans.o
 .rodata.xstrtoul_range_sfx.str1.4
                0x0043d66c       0x3c /home/notlean/openwrt-uboost/tmp/ccV1QtaS.ltrans0.ltrans.o
 .rodata.show_bridge_port.str1.4
                0x0043d6a8      0x1e8 /home/notlean/openwrt-uboost/tmp/ccV1QtaS.ltrans0.ltrans.o
                                0x1f8 (size before relaxing)
 .rodata.nslookup_main.str1.4
                0x0043d890       0xa2 /home/notlean/openwrt-uboost/tmp/ccV1QtaS.ltrans0.ltrans.o
                                 0xa4 (size before relaxing)
 *fill*         0x0043d932        0x2 
 .rodata.vgetopt32.str1.4
                0x0043d934        0xb /home/notlean/openwrt-uboost/tmp/ccV1QtaS.ltrans0.ltrans.o
                                  0xc (size before relaxing)
 *fill*         0x0043d93f        0x1 
 .rodata.passwd_main.str1.4
                0x0043d940      0x26c /home/notlean/openwrt-uboost/tmp/ccV1QtaS.ltrans0.ltrans.o
                                0x270 (size before relaxing)
 .rodata.crond_main.str1.4
                0x0043dbac       0xf3 /home/notlean/openwrt-uboost/tmp/ccV1QtaS.ltrans0.ltrans.o
                                 0xf4 (size before relaxing)
 *fill*         0x0043dc9f        0x1 
 .rodata.crontab_main.str1.4
                0x0043dca0       0x4a /home/notlean/openwrt-uboost/tmp/ccV1QtaS.ltrans0.ltrans.o
                                 0x4c (size before relaxing)
 *fill*         0x0043dcea        0x2 
 .rodata.strings_main.str1.4
                0x0043dcec       0x25 /home/notlean/openwrt-uboost/tmp/ccV1QtaS.ltrans0.ltrans.o
                                 0x2c (size before relaxing)
 *fill*         0x0043dd11        0x3 
 .rodata.time_main.str1.4
                0x0043dd14       0x88 /home/notlean/openwrt-uboost/tmp/ccV1QtaS.ltrans0.ltrans.o
                                 0x98 (size before relaxing)
 .rodata.netstat_main.str1.4
                0x0043dd9c      0x1f7 /home/notlean/openwrt-uboost/tmp/ccV1QtaS.ltrans0.ltrans.o
                                0x1f8 (size before relaxing)
 *fill*         0x0043df93        0x1 
 .rodata.login_main.str1.4
                0x0043df94       0xd0 /home/notlean/openwrt-uboost/tmp/ccV1QtaS.ltrans0.ltrans.o
 .rodata.brctl_main.str1.4
                0x0043e064      0x309 /home/notlean/openwrt-uboost/tmp/ccV1QtaS.ltrans0.ltrans.o
                                0x30c (size before relaxing)
 *fill*         0x0043e36d        0x3 
 .rodata.less_main.str1.4
                0x0043e370       0x50 /home/notlean/openwrt-uboost/tmp/ccV1QtaS.ltrans0.ltrans.o
                                 0x54 (size before relaxing)
 .rodata.nc_main.str1.4
                0x0043e3c0       0x15 /home/notlean/openwrt-uboost/tmp/ccV1QtaS.ltrans0.ltrans.o
                                 0x18 (size before relaxing)
 *fill*         0x0043e3d5        0x3 
 .rodata.add_to_prg_cache_if_socket.str1.4
                0x0043e3d8       0x14 /home/notlean/openwrt-uboost/tmp/ccV1QtaS.ltrans0.ltrans.o
 .rodata.concat_path_file.str1.4
                0x0043e3ec        0x7 /home/notlean/openwrt-uboost/tmp/ccV1QtaS.ltrans0.ltrans.o
                                  0x8 (size before relaxing)
 *fill*         0x0043e3f3        0x1 
 .rodata.dir_act.str1.4
                0x0043e3f4        0xf /home/notlean/openwrt-uboost/tmp/ccV1QtaS.ltrans0.ltrans.o
                                 0x10 (size before relaxing)
 *fill*         0x0043e403        0x1 
 .rodata.ifconfig_main.str1.4
                0x0043e404       0x69 /home/notlean/openwrt-uboost/tmp/ccV1QtaS.ltrans0.ltrans.o
                                 0x6c (size before relaxing)
 *fill*         0x0043e46d        0x3 
 .rodata.step_time.str1.4
                0x0043e470       0x52 /home/notlean/openwrt-uboost/tmp/ccV1QtaS.ltrans0.ltrans.o
                                 0x54 (size before relaxing)
 *fill*         0x0043e4c2        0x2 
 .rodata.resolve_peer_hostname.lto_priv.0.str1.4
                0x0043e4c4        0xb /home/notlean/openwrt-uboost/tmp/ccV1QtaS.ltrans0.ltrans.o
                                  0xc (size before relaxing)
 *fill*         0x0043e4cf        0x1 
 .rodata.run_script.lto_priv.0.str1.4
                0x0043e4d0       0x5a /home/notlean/openwrt-uboost/tmp/ccV1QtaS.ltrans0.ltrans.o
                                 0x5c (size before relaxing)
 *fill*         0x0043e52a        0x2 
 .rodata.select_and_cluster.lto_priv.0.str1.4
                0x0043e52c       0xa3 /home/notlean/openwrt-uboost/tmp/ccV1QtaS.ltrans0.ltrans.o
                                 0xa4 (size before relaxing)
 *fill*         0x0043e5cf        0x1 
 .rodata.update_local_clock.lto_priv.0.str1.4
                0x0043e5d0       0x94 /home/notlean/openwrt-uboost/tmp/ccV1QtaS.ltrans0.ltrans.o
 .rodata.str1.4
                0x0043e664      0x295 /home/notlean/openwrt-uboost/tmp/ccV1QtaS.ltrans0.ltrans.o
                                0x2c4 (size before relaxing)
 *fill*         0x0043e8f9        0x3 
 .rodata.unspec_aftype
                0x0043e8fc       0x2c /home/notlean/openwrt-uboost/tmp/ccV1QtaS.ltrans0.ltrans.o
 .rodata.inet6_aftype
                0x0043e928       0x2c /home/notlean/openwrt-uboost/tmp/ccV1QtaS.ltrans0.ltrans.o
 .rodata.inet_aftype
                0x0043e954       0x2c /home/notlean/openwrt-uboost/tmp/ccV1QtaS.ltrans0.ltrans.o
 .rodata.sit_hwtype
                0x0043e980       0x20 /home/notlean/openwrt-uboost/tmp/ccV1QtaS.ltrans0.ltrans.o
 .rodata.unspec_hwtype
                0x0043e9a0       0x20 /home/notlean/openwrt-uboost/tmp/ccV1QtaS.ltrans0.ltrans.o
 .rodata.ppp_hwtype
                0x0043e9c0       0x20 /home/notlean/openwrt-uboost/tmp/ccV1QtaS.ltrans0.ltrans.o
 .rodata.ether_hwtype
                0x0043e9e0       0x20 /home/notlean/openwrt-uboost/tmp/ccV1QtaS.ltrans0.ltrans.o
 .rodata.loop_hwtype
                0x0043ea00       0x20 /home/notlean/openwrt-uboost/tmp/ccV1QtaS.ltrans0.ltrans.o
 .rodata.v4_mapped
                0x0043ea20        0xc /home/notlean/openwrt-uboost/tmp/ccV1QtaS.ltrans0.ltrans.o
 .rodata.rcodes
                0x0043ea2c       0x40 /home/notlean/openwrt-uboost/tmp/ccV1QtaS.ltrans0.ltrans.o
 .rodata.CSWTCH.83
                0x0043ea6c       0x14 /home/notlean/openwrt-uboost/tmp/ccV1QtaS.ltrans0.ltrans.o
 .rodata.tcp_state
                0x0043ea80       0x30 /home/notlean/openwrt-uboost/tmp/ccV1QtaS.ltrans0.ltrans.o
 .rodata.af_numbers.0
                0x0043eab0        0x4 /home/notlean/openwrt-uboost/tmp/ccV1QtaS.ltrans0.ltrans.o
 .rodata.ip_func_ptrs.0
                0x0043eab4       0x1c /home/notlean/openwrt-uboost/tmp/ccV1QtaS.ltrans0.ltrans.o
 .rodata.aftypes
                0x0043ead0       0x10 /home/notlean/openwrt-uboost/tmp/ccV1QtaS.ltrans0.ltrans.o
 .rodata.hwtypes
                0x0043eae0       0x18 /home/notlean/openwrt-uboost/tmp/ccV1QtaS.ltrans0.ltrans.o
 .rodata.if_port_text
                0x0043eaf8       0x20 /home/notlean/openwrt-uboost/tmp/ccV1QtaS.ltrans0.ltrans.o
 .rodata.Arg1Opt
                0x0043eb18       0x58 /home/notlean/openwrt-uboost/tmp/ccV1QtaS.ltrans0.ltrans.o
 .rodata.OptArray
                0x0043eb70       0x98 /home/notlean/openwrt-uboost/tmp/ccV1QtaS.ltrans0.ltrans.o
 .rodata.bb_null_long_options
                0x0043ec08       0x10 /home/notlean/openwrt-uboost/tmp/ccV1QtaS.ltrans0.ltrans.o
 .rodata.applet_main
                0x0043ec18      0x1d8 /home/notlean/openwrt-uboost/tmp/ccV1QtaS.ltrans0.ltrans.o
 .rodata.recv_and_process_peer_pkt.str1.4
                0x0043edf0      0x11a /home/notlean/openwrt-uboost/tmp/ccV1QtaS.ltrans1.ltrans.o
                                0x11c (size before relaxing)
 *fill*         0x0043ef0a        0x2 
 .rodata.parse_rtattr.str1.4
                0x0043ef0c       0x18 /home/notlean/openwrt-uboost/tmp/ccV1QtaS.ltrans1.ltrans.o
 .rodata.recv_and_process_client_pkt.str1.4
                0x0043ef24       0x2f /home/notlean/openwrt-uboost/tmp/ccV1QtaS.ltrans1.ltrans.o
                                 0x30 (size before relaxing)
 *fill*         0x0043ef53        0x1 
 .rodata.ntp_init.str1.4
                0x0043ef54       0x1f /home/notlean/openwrt-uboost/tmp/ccV1QtaS.ltrans1.ltrans.o
                                 0x30 (size before relaxing)
 *fill*         0x0043ef73        0x1 
 .rodata.ntpd_main.str1.4
                0x0043ef74       0x87 /home/notlean/openwrt-uboost/tmp/ccV1QtaS.ltrans1.ltrans.o
                                 0x88 (size before relaxing)
 *fill*         0x0043effb        0x1 
 .rodata.print_stats_and_exit.lto_priv.0.str1.4
                0x0043effc       0xa9 /home/notlean/openwrt-uboost/tmp/ccV1QtaS.ltrans1.ltrans.o
                                 0xac (size before relaxing)
 *fill*         0x0043f0a5        0x3 
 .rodata.next_arg.str1.4
                0x0043f0a8       0x29 /home/notlean/openwrt-uboost/tmp/ccV1QtaS.ltrans1.ltrans.o
                                 0x2c (size before relaxing)
 *fill*         0x0043f0d1        0x3 
 .rodata.duparg.str1.4
                0x0043f0d4       0x29 /home/notlean/openwrt-uboost/tmp/ccV1QtaS.ltrans1.ltrans.o
                                 0x2c (size before relaxing)
 *fill*         0x0043f0fd        0x3 
 .rodata.INET_setroute.str1.4
                0x0043f100       0x9e /home/notlean/openwrt-uboost/tmp/ccV1QtaS.ltrans1.ltrans.o
                                 0xac (size before relaxing)
 .rodata.INET6_setroute.str1.4
                0x0043f19e       0x10 /home/notlean/openwrt-uboost/tmp/ccV1QtaS.ltrans1.ltrans.o
 *fill*         0x0043f19e        0x2 
 .rodata.get_hz.str1.4
                0x0043f1a0       0x27 /home/notlean/openwrt-uboost/tmp/ccV1QtaS.ltrans1.ltrans.o
                                 0x28 (size before relaxing)
 *fill*         0x0043f1c7        0x1 
 .rodata.INET6_displayroutes.str1.4
                0x0043f1c8       0xbd /home/notlean/openwrt-uboost/tmp/ccV1QtaS.ltrans1.ltrans.o
                                 0xcc (size before relaxing)
 *fill*         0x0043f285        0x3 
 .rodata.hexdump_if_verbose.str1.4
                0x0043f288       0x52 /home/notlean/openwrt-uboost/tmp/ccV1QtaS.ltrans1.ltrans.o
                                 0x54 (size before relaxing)
 *fill*         0x0043f2da        0x2 
 .rodata.traceroute_init.str1.4
                0x0043f2dc       0xbc /home/notlean/openwrt-uboost/tmp/ccV1QtaS.ltrans1.ltrans.o
 .rodata.common_traceroute_main.str1.4
                0x0043f398       0xdf /home/notlean/openwrt-uboost/tmp/ccV1QtaS.ltrans1.ltrans.o
                                 0xe0 (size before relaxing)
 *fill*         0x0043f477        0x1 
 .rodata.rtnl_rtntype_n2a.str1.4
                0x0043f478        0x5 /home/notlean/openwrt-uboost/tmp/ccV1QtaS.ltrans1.ltrans.o
                                  0x8 (size before relaxing)
 *fill*         0x0043f47d        0x3 
 .rodata.rtnl_send_check.str1.4
                0x0043f480       0x10 /home/notlean/openwrt-uboost/tmp/ccV1QtaS.ltrans1.ltrans.o
 .rodata.flush_update.lto_priv.0.str1.4
                0x0043f490       0x19 /home/notlean/openwrt-uboost/tmp/ccV1QtaS.ltrans1.ltrans.o
                                 0x1c (size before relaxing)
 *fill*         0x0043f4a9        0x3 
 .rodata.rtnl_talk.str1.4
                0x0043f4ac       0xcc /home/notlean/openwrt-uboost/tmp/ccV1QtaS.ltrans1.ltrans.o
 .rodata.ll_idx_n2a.str1.4
                0x0043f578        0x5 /home/notlean/openwrt-uboost/tmp/ccV1QtaS.ltrans1.ltrans.o
                                  0xc (size before relaxing)
 *fill*         0x0043f57d        0x3 
 .rodata.print_linkinfo.str1.4
                0x0043f580       0xba /home/notlean/openwrt-uboost/tmp/ccV1QtaS.ltrans1.ltrans.o
                                 0xcc (size before relaxing)
 *fill*         0x0043f63a        0x2 
 .rodata.xll_name_to_index.str1.4
                0x0043f63c       0x17 /home/notlean/openwrt-uboost/tmp/ccV1QtaS.ltrans1.ltrans.o
                                 0x18 (size before relaxing)
 *fill*         0x0043f653        0x1 
 .rodata.rtnl_tab_initialize.str1.4
                0x0043f654       0x38 /home/notlean/openwrt-uboost/tmp/ccV1QtaS.ltrans1.ltrans.o
                                 0x3c (size before relaxing)
 .rodata.rtnl_rtprot_initialize.str1.4
                0x0043f68c        0x7 /home/notlean/openwrt-uboost/tmp/ccV1QtaS.ltrans1.ltrans.o
                                  0x8 (size before relaxing)
 *fill*         0x0043f693        0x1 
 .rodata.rtnl_rtscope_initialize.str1.4
                0x0043f694       0x27 /home/notlean/openwrt-uboost/tmp/ccV1QtaS.ltrans1.ltrans.o
                                 0x30 (size before relaxing)
 *fill*         0x0043f6bb        0x1 
 .rodata.rtnl_rtrealm_initialize.str1.4
                0x0043f6bc        0x7 /home/notlean/openwrt-uboost/tmp/ccV1QtaS.ltrans1.ltrans.o
                                 0x10 (size before relaxing)
 *fill*         0x0043f6c3        0x1 
 .rodata.rtnl_rtdsfield_initialize.str1.4
                0x0043f6c4        0x8 /home/notlean/openwrt-uboost/tmp/ccV1QtaS.ltrans1.ltrans.o
                                  0xc (size before relaxing)
 .rodata.rtnl_rttable_initialize.str1.4
                0x0043f6cc       0x17 /home/notlean/openwrt-uboost/tmp/ccV1QtaS.ltrans1.ltrans.o
                                 0x20 (size before relaxing)
 *fill*         0x0043f6e3        0x1 
 .rodata.rt_addr_n2a.str1.4
                0x0043f6e4        0x4 /home/notlean/openwrt-uboost/tmp/ccV1QtaS.ltrans1.ltrans.o
 .rodata.print_addrinfo.str1.4
                0x0043f6e8      0x126 /home/notlean/openwrt-uboost/tmp/ccV1QtaS.ltrans1.ltrans.o
                                0x130 (size before relaxing)
 *fill*         0x0043f80e        0x2 
 .rodata.print_neigh.str1.4
                0x0043f810       0xd8 /home/notlean/openwrt-uboost/tmp/ccV1QtaS.ltrans1.ltrans.o
                                 0xdc (size before relaxing)
 .rodata.print_route.str1.4
                0x0043f8e8       0xe4 /home/notlean/openwrt-uboost/tmp/ccV1QtaS.ltrans1.ltrans.o
 .rodata.print_rule.str1.4
                0x0043f9cc       0x9b /home/notlean/openwrt-uboost/tmp/ccV1QtaS.ltrans1.ltrans.o
                                 0xa8 (size before relaxing)
 *fill*         0x0043fa67        0x1 
 .rodata.unpack_tail.lto_priv.0.str1.4
                0x0043fa68       0x39 /home/notlean/openwrt-uboost/tmp/ccV1QtaS.ltrans1.ltrans.o
                                 0x3c (size before relaxing)
 *fill*         0x0043faa1        0x3 
 .rodata.bb_displayroutes.str1.4
                0x0043faa4       0xfa /home/notlean/openwrt-uboost/tmp/ccV1QtaS.ltrans1.ltrans.o
                                 0xfc (size before relaxing)
 *fill*         0x0043fb9e        0x2 
 .rodata.route_main.str1.4
                0x0043fba0       0x15 /home/notlean/openwrt-uboost/tmp/ccV1QtaS.ltrans1.ltrans.o
                                 0x28 (size before relaxing)
 *fill*         0x0043fbb5        0x3 
 .rodata.xrtnl_dump_filter.str1.4
                0x0043fbb8       0x10 /home/notlean/openwrt-uboost/tmp/ccV1QtaS.ltrans1.ltrans.o
 .rodata.get_addr_1.str1.4
                0x0043fbc8        0x4 /home/notlean/openwrt-uboost/tmp/ccV1QtaS.ltrans1.ltrans.o
 .rodata.ll_addr_a2n.str1.4
                0x0043fbcc       0x17 /home/notlean/openwrt-uboost/tmp/ccV1QtaS.ltrans1.ltrans.o
                                 0x18 (size before relaxing)
 *fill*         0x0043fbe3        0x1 
 .rodata.get_prefix.str1.4
                0x0043fbe4       0x6a /home/notlean/openwrt-uboost/tmp/ccV1QtaS.ltrans1.ltrans.o
                                 0x6c (size before relaxing)
 *fill*         0x0043fc4e        0x2 
 .rodata.ipneigh_list_or_flush.str1.4
                0x0043fc50       0xec /home/notlean/openwrt-uboost/tmp/ccV1QtaS.ltrans1.ltrans.o
 .rodata.iproute_get.str1.4
                0x0043fd3c       0x5c /home/notlean/openwrt-uboost/tmp/ccV1QtaS.ltrans1.ltrans.o
 .rodata.ipaddr_list_or_flush.str1.4
                0x0043fd98       0x5d /home/notlean/openwrt-uboost/tmp/ccV1QtaS.ltrans1.ltrans.o
                                 0x60 (size before relaxing)
 *fill*         0x0043fdf5        0x3 
 .rodata.iproute_list_or_flush.str1.4
                0x0043fdf8       0x46 /home/notlean/openwrt-uboost/tmp/ccV1QtaS.ltrans1.ltrans.o
                                 0x48 (size before relaxing)
 *fill*         0x0043fe3e        0x2 
 .rodata.ipaddr_modify.str1.4
                0x0043fe40       0xad /home/notlean/openwrt-uboost/tmp/ccV1QtaS.ltrans1.ltrans.o
                                 0xb0 (size before relaxing)
 *fill*         0x0043feed        0x3 
 .rodata.do_add_or_delete.str1.4
                0x0043fef0       0x7d /home/notlean/openwrt-uboost/tmp/ccV1QtaS.ltrans1.ltrans.o
                                 0x84 (size before relaxing)
 *fill*         0x0043ff6d        0x3 
 .rodata.iprule_modify.str1.4
                0x0043ff70       0x25 /home/notlean/openwrt-uboost/tmp/ccV1QtaS.ltrans1.ltrans.o
                                 0x28 (size before relaxing)
 *fill*         0x0043ff95        0x3 
 .rodata.do_iplink.str1.4
                0x0043ff98       0x7f /home/notlean/openwrt-uboost/tmp/ccV1QtaS.ltrans1.ltrans.o
                                 0xbc (size before relaxing)
 *fill*         0x00440017        0x1 
 .rodata.iproute_modify.str1.4
                0x00440018        0x5 /home/notlean/openwrt-uboost/tmp/ccV1QtaS.ltrans1.ltrans.o
                                 0x14 (size before relaxing)
 *fill*         0x0044001d        0x3 
 .rodata.CSWTCH.6
                0x00440020        0xc /home/notlean/openwrt-uboost/tmp/ccV1QtaS.ltrans1.ltrans.o
 .rodata.str1.4
                0x0044002c      0x1ac /home/notlean/openwrt-uboost/tmp/ccV1QtaS.ltrans1.ltrans.o
                                0x1c8 (size before relaxing)
 .rodata.init_tab.0
                0x004401d8       0x34 /home/notlean/openwrt-uboost/tmp/ccV1QtaS.ltrans1.ltrans.o
 .rodata.flag_masks.3
                0x0044020c       0x1c /home/notlean/openwrt-uboost/tmp/ccV1QtaS.ltrans1.ltrans.o
 .rodata.ttab.0
                0x00440228       0x4c /home/notlean/openwrt-uboost/tmp/ccV1QtaS.ltrans1.ltrans.o
 .rodata.ttab6.1
                0x00440274       0x48 /home/notlean/openwrt-uboost/tmp/ccV1QtaS.ltrans1.ltrans.o
 .rodata.flagvals
                0x004402bc       0x2c /home/notlean/openwrt-uboost/tmp/ccV1QtaS.ltrans1.ltrans.o
 .rodata.udhcp_scan_options.str1.4
                0x004402e8       0x23 /home/notlean/openwrt-uboost/tmp/ccV1QtaS.ltrans2.ltrans.o
                                 0x24 (size before relaxing)
 *fill*         0x0044030b        0x1 
 .rodata.change_listen_mode.str1.4
                0x0044030c        0xd /home/notlean/openwrt-uboost/tmp/ccV1QtaS.ltrans2.ltrans.o
                                 0x10 (size before relaxing)
 *fill*         0x00440319        0x3 
 .rodata.signal_handler.lto_priv.0.str1.4
                0x0044031c       0x12 /home/notlean/openwrt-uboost/tmp/ccV1QtaS.ltrans2.ltrans.o
                                 0x14 (size before relaxing)
 *fill*         0x0044032e        0x2 
 .rodata.parse_meminfo.lto_priv.0.str1.4
                0x00440330       0x53 /home/notlean/openwrt-uboost/tmp/ccV1QtaS.ltrans2.ltrans.o
                                 0x54 (size before relaxing)
 *fill*         0x00440383        0x1 
 .rodata.free_main.str1.4
                0x00440384       0x9c /home/notlean/openwrt-uboost/tmp/ccV1QtaS.ltrans2.ltrans.o
 .rodata.kill_main.str1.4
                0x00440420       0x86 /home/notlean/openwrt-uboost/tmp/ccV1QtaS.ltrans2.ltrans.o
                                 0xa0 (size before relaxing)
 *fill*         0x004404a6        0x2 
 .rodata.pgrep_main.str1.4
                0x004404a8       0x17 /home/notlean/openwrt-uboost/tmp/ccV1QtaS.ltrans2.ltrans.o
                                 0x1c (size before relaxing)
 .rodata.pidof_main.str1.4
                0x004404bf       0x17 /home/notlean/openwrt-uboost/tmp/ccV1QtaS.ltrans2.ltrans.o
                                  0x8 (size before relaxing)
 *fill*         0x004404bf        0x1 
 .rodata.ps_main.str1.4
                0x004404c0       0x37 /home/notlean/openwrt-uboost/tmp/ccV1QtaS.ltrans2.ltrans.o
                                 0x38 (size before relaxing)
 *fill*         0x004404f7        0x1 
 .rodata.sysctl_act_on_setting.str1.4
                0x004404f8       0xab /home/notlean/openwrt-uboost/tmp/ccV1QtaS.ltrans2.ltrans.o
                                 0xb4 (size before relaxing)
 *fill*         0x004405a3        0x1 
 .rodata.sysctl_main.str1.4
                0x004405a4       0x37 /home/notlean/openwrt-uboost/tmp/ccV1QtaS.ltrans2.ltrans.o
                                 0x3c (size before relaxing)
 *fill*         0x004405db        0x1 
 .rodata.do_stats.str1.4
                0x004405dc       0x24 /home/notlean/openwrt-uboost/tmp/ccV1QtaS.ltrans2.ltrans.o
 .rodata.display_process_list.str1.4
                0x00440600      0x110 /home/notlean/openwrt-uboost/tmp/ccV1QtaS.ltrans2.ltrans.o
                                0x128 (size before relaxing)
 .rodata.top_main.str1.4
                0x00440710       0x21 /home/notlean/openwrt-uboost/tmp/ccV1QtaS.ltrans2.ltrans.o
                                 0x2c (size before relaxing)
 *fill*         0x00440731        0x3 
 .rodata.uptime_main.str1.4
                0x00440734       0x80 /home/notlean/openwrt-uboost/tmp/ccV1QtaS.ltrans2.ltrans.o
                                 0x84 (size before relaxing)
 .rodata.tryexec.str1.4
                0x004407b4        0x4 /home/notlean/openwrt-uboost/tmp/ccV1QtaS.ltrans2.ltrans.o
 .rodata.sprint_nip.lto_priv.0.str1.4
                0x004407b8        0xe /home/notlean/openwrt-uboost/tmp/ccV1QtaS.ltrans2.ltrans.o
                                 0x10 (size before relaxing)
 *fill*         0x004407c6        0x2 
 .rodata.d4_run_script.str1.4
                0x004407c8       0x54 /home/notlean/openwrt-uboost/tmp/ccV1QtaS.ltrans2.ltrans.o
 .rodata.d4_run_script_deconfig.str1.4
                0x0044081c        0x9 /home/notlean/openwrt-uboost/tmp/ccV1QtaS.ltrans2.ltrans.o
                                  0xc (size before relaxing)
 *fill*         0x00440825        0x3 
 .rodata.bcast_or_ucast.str1.4
                0x00440828       0x3c /home/notlean/openwrt-uboost/tmp/ccV1QtaS.ltrans2.ltrans.o
 .rodata.udhcp_add_binary_option.str1.4
                0x00440864       0x2a /home/notlean/openwrt-uboost/tmp/ccV1QtaS.ltrans2.ltrans.o
                                 0x2c (size before relaxing)
 *fill*         0x0044088e        0x2 
 .rodata.udhcp_add_simple_option.str1.4
                0x00440890       0x18 /home/notlean/openwrt-uboost/tmp/ccV1QtaS.ltrans2.ltrans.o
 .rodata.send_renew.str1.4
                0x004408a8       0x2f /home/notlean/openwrt-uboost/tmp/ccV1QtaS.ltrans2.ltrans.o
                                 0x30 (size before relaxing)
 *fill*         0x004408d7        0x1 
 .rodata.perform_release.str1.4
                0x004408d8       0x50 /home/notlean/openwrt-uboost/tmp/ccV1QtaS.ltrans2.ltrans.o
 .rodata.udhcpc_main.str1.4
                0x00440928      0x18c /home/notlean/openwrt-uboost/tmp/ccV1QtaS.ltrans2.ltrans.o
                                0x194 (size before relaxing)
 .rodata.sprint_status48.str1.4
                0x00440ab4       0x1b /home/notlean/openwrt-uboost/tmp/ccV1QtaS.ltrans2.ltrans.o
                                 0x24 (size before relaxing)
 *fill*         0x00440acf        0x1 
 .rodata.changepath.lto_priv.0.str1.4
                0x00440ad0        0x8 /home/notlean/openwrt-uboost/tmp/ccV1QtaS.ltrans2.ltrans.o
 .rodata.showjob.str1.4
                0x00440ad8       0x26 /home/notlean/openwrt-uboost/tmp/ccV1QtaS.ltrans2.ltrans.o
                                 0x2c (size before relaxing)
 *fill*         0x00440afe        0x2 
 .rodata.ash_vmsg.lto_priv.0.str1.4
                0x00440b00        0xa /home/notlean/openwrt-uboost/tmp/ccV1QtaS.ltrans2.ltrans.o
                                 0x14 (size before relaxing)
 *fill*         0x00440b0a        0x2 
 .rodata.xtcsetpgrp.str1.4
                0x00440b0c       0x20 /home/notlean/openwrt-uboost/tmp/ccV1QtaS.ltrans2.ltrans.o
 .rodata.xdup_CLOEXEC_and_close.str1.4
                0x00440b2c        0x7 /home/notlean/openwrt-uboost/tmp/ccV1QtaS.ltrans2.ltrans.o
                                  0x8 (size before relaxing)
 *fill*         0x00440b33        0x1 
 .rodata.raise_error_syntax.lto_priv.0.str1.4
                0x00440b34       0x11 /home/notlean/openwrt-uboost/tmp/ccV1QtaS.ltrans2.ltrans.o
                                 0x14 (size before relaxing)
 *fill*         0x00440b45        0x3 
 .rodata.cmdputs.str1.4
                0x00440b48       0x1b /home/notlean/openwrt-uboost/tmp/ccV1QtaS.ltrans2.ltrans.o
                                 0x1c (size before relaxing)
 *fill*         0x00440b63        0x1 
 .rodata.cmdtxt.str1.4
                0x00440b64       0xac /home/notlean/openwrt-uboost/tmp/ccV1QtaS.ltrans2.ltrans.o
                                 0xc0 (size before relaxing)
 .rodata.cvtnum.str1.4
                0x00440c10        0x5 /home/notlean/openwrt-uboost/tmp/ccV1QtaS.ltrans2.ltrans.o
                                  0x8 (size before relaxing)
 *fill*         0x00440c15        0x3 
 .rodata.getjob.str1.4
                0x00440c18       0x65 /home/notlean/openwrt-uboost/tmp/ccV1QtaS.ltrans2.ltrans.o
                                 0x68 (size before relaxing)
 *fill*         0x00440c7d        0x3 
 .rodata.killcmd.lto_priv.0.str1.4
                0x00440c80        0xb /home/notlean/openwrt-uboost/tmp/ccV1QtaS.ltrans2.ltrans.o
                                  0xc (size before relaxing)
 *fill*         0x00440c8b        0x1 
 .rodata.number.lto_priv.0.str1.4
                0x00440c8c       0x13 /home/notlean/openwrt-uboost/tmp/ccV1QtaS.ltrans2.ltrans.o
                                 0x14 (size before relaxing)
 *fill*         0x00440c9f        0x1 
 .rodata.printalias.str1.4
                0x00440ca0        0x7 /home/notlean/openwrt-uboost/tmp/ccV1QtaS.ltrans2.ltrans.o
                                  0x8 (size before relaxing)
 *fill*         0x00440ca7        0x1 
 .rodata.nextopt.lto_priv.0.str1.4
                0x00440ca8       0x2a /home/notlean/openwrt-uboost/tmp/ccV1QtaS.ltrans2.ltrans.o
                                 0x2c (size before relaxing)
 *fill*         0x00440cd2        0x2 
 .rodata.cdopt.str1.4
                0x00440cd4        0x3 /home/notlean/openwrt-uboost/tmp/ccV1QtaS.ltrans2.ltrans.o
                                  0x4 (size before relaxing)
 .rodata.waitcmd.lto_priv.0.str1.4
                0x00440cd7        0x3 /home/notlean/openwrt-uboost/tmp/ccV1QtaS.ltrans2.ltrans.o
                                  0x4 (size before relaxing)
 .rodata.lookupvar.lto_priv.0.str1.4
                0x00440cd7        0x4 /home/notlean/openwrt-uboost/tmp/ccV1QtaS.ltrans2.ltrans.o
 *fill*         0x00440cd7        0x1 
 .rodata.setvareq.lto_priv.0.str1.4
                0x00440cd8       0x13 /home/notlean/openwrt-uboost/tmp/ccV1QtaS.ltrans2.ltrans.o
                                 0x14 (size before relaxing)
 *fill*         0x00440ceb        0x1 
 .rodata.setvar.lto_priv.0.str1.4
                0x00440cec       0x18 /home/notlean/openwrt-uboost/tmp/ccV1QtaS.ltrans2.ltrans.o
 .rodata.padvance.lto_priv.0.str1.4
                0x00440d04        0x3 /home/notlean/openwrt-uboost/tmp/ccV1QtaS.ltrans2.ltrans.o
                                  0x8 (size before relaxing)
 *fill*         0x00440d07        0x1 
 .rodata.setpwd.lto_priv.0.str1.4
                0x00440d08        0xc /home/notlean/openwrt-uboost/tmp/ccV1QtaS.ltrans2.ltrans.o
 .rodata.cdcmd.lto_priv.0.str1.4
                0x00440d14       0x1b /home/notlean/openwrt-uboost/tmp/ccV1QtaS.ltrans2.ltrans.o
                                 0x28 (size before relaxing)
 *fill*         0x00440d2f        0x1 
 .rodata.aliascmd.lto_priv.0.str1.4
                0x00440d30       0x1a /home/notlean/openwrt-uboost/tmp/ccV1QtaS.ltrans2.ltrans.o
                                 0x1c (size before relaxing)
 *fill*         0x00440d4a        0x2 
 .rodata.unaliascmd.lto_priv.0.str1.4
                0x00440d4c        0x8 /home/notlean/openwrt-uboost/tmp/ccV1QtaS.ltrans2.ltrans.o
                                  0xc (size before relaxing)
 .rodata.forkchild.str1.4
                0x00440d54       0x21 /home/notlean/openwrt-uboost/tmp/ccV1QtaS.ltrans2.ltrans.o
                                 0x30 (size before relaxing)
 *fill*         0x00440d75        0x3 
 .rodata.setjobctl.lto_priv.0.str1.4
                0x00440d78       0x29 /home/notlean/openwrt-uboost/tmp/ccV1QtaS.ltrans2.ltrans.o
                                 0x38 (size before relaxing)
 .rodata.jobscmd.lto_priv.0.str1.4
                0x00440da1       0x29 /home/notlean/openwrt-uboost/tmp/ccV1QtaS.ltrans2.ltrans.o
                                  0x4 (size before relaxing)
 *fill*         0x00440da1        0x3 
 .rodata.forkshell.lto_priv.0.str1.4
                0x00440da4        0xf /home/notlean/openwrt-uboost/tmp/ccV1QtaS.ltrans2.ltrans.o
                                 0x10 (size before relaxing)
 *fill*         0x00440db3        0x1 
 .rodata.fg_bgcmd.lto_priv.0.str1.4
                0x00440db4        0xe /home/notlean/openwrt-uboost/tmp/ccV1QtaS.ltrans2.ltrans.o
                                 0x10 (size before relaxing)
 *fill*         0x00440dc2        0x2 
 .rodata.stoppedjobs.lto_priv.0.str1.4
                0x00440dc4       0x18 /home/notlean/openwrt-uboost/tmp/ccV1QtaS.ltrans2.ltrans.o
 .rodata.varvalue.str1.4
                0x00440ddc       0x11 /home/notlean/openwrt-uboost/tmp/ccV1QtaS.ltrans2.ltrans.o
                                 0x14 (size before relaxing)
 *fill*         0x00440ded        0x3 
 .rodata.shellexec.lto_priv.0.str1.4
                0x00440df0        0x7 /home/notlean/openwrt-uboost/tmp/ccV1QtaS.ltrans2.ltrans.o
                                 0x14 (size before relaxing)
 *fill*         0x00440df7        0x1 
 .rodata.hashcmd.lto_priv.0.str1.4
                0x00440df8        0x6 /home/notlean/openwrt-uboost/tmp/ccV1QtaS.ltrans2.ltrans.o
                                 0x10 (size before relaxing)
 *fill*         0x00440dfe        0x2 
 .rodata.describe_command.str1.4
                0x00440e00       0x71 /home/notlean/openwrt-uboost/tmp/ccV1QtaS.ltrans2.ltrans.o
                                 0x80 (size before relaxing)
 *fill*         0x00440e71        0x3 
 .rodata.commandcmd.lto_priv.0.str1.4
                0x00440e74        0x4 /home/notlean/openwrt-uboost/tmp/ccV1QtaS.ltrans2.ltrans.o
 .rodata.expredir.lto_priv.0.str1.4
                0x00440e78       0x1a /home/notlean/openwrt-uboost/tmp/ccV1QtaS.ltrans2.ltrans.o
                                 0x1c (size before relaxing)
 *fill*         0x00440e92        0x2 
 .rodata.argstr.str1.4
                0x00440e94       0x23 /home/notlean/openwrt-uboost/tmp/ccV1QtaS.ltrans2.ltrans.o
                                 0x24 (size before relaxing)
 *fill*         0x00440eb7        0x1 
 .rodata.subevalvar.str1.4
                0x00440eb8       0x31 /home/notlean/openwrt-uboost/tmp/ccV1QtaS.ltrans2.ltrans.o
                                 0x34 (size before relaxing)
 *fill*         0x00440ee9        0x3 
 .rodata.redirect.lto_priv.0.str1.4
                0x00440eec       0x50 /home/notlean/openwrt-uboost/tmp/ccV1QtaS.ltrans2.ltrans.o
 .rodata.optschanged.lto_priv.0.str1.4
                0x00440f3c       0x22 /home/notlean/openwrt-uboost/tmp/ccV1QtaS.ltrans2.ltrans.o
                                 0x24 (size before relaxing)
 *fill*         0x00440f5e        0x2 
 .rodata.str1.4
                0x00440f60      0x122 /home/notlean/openwrt-uboost/tmp/ccV1QtaS.ltrans2.ltrans.o
                                0x12c (size before relaxing)
 *fill*         0x00441082        0x2 
 .rodata.tokname_array.lto_priv.0
                0x00441084       0x78 /home/notlean/openwrt-uboost/tmp/ccV1QtaS.ltrans2.ltrans.o
                0x00441084                tokname_array.lto_priv.0
 .rodata.optletters_optnames.lto_priv.0
                0x004410fc       0x44 /home/notlean/openwrt-uboost/tmp/ccV1QtaS.ltrans2.ltrans.o
                0x004410fc                optletters_optnames.lto_priv.0
 .rodata.CSWTCH.1474
                0x00441140        0x4 /home/notlean/openwrt-uboost/tmp/ccV1QtaS.ltrans2.ltrans.o
 .rodata.duration_suffixes.lto_priv.0
                0x00441144       0x28 /home/notlean/openwrt-uboost/tmp/ccV1QtaS.ltrans2.ltrans.o
                0x00441144                duration_suffixes.lto_priv.0
 .rodata.localcmd.str1.4
                0x0044116c       0x12 /home/notlean/openwrt-uboost/tmp/ccV1QtaS.ltrans3.ltrans.o
                                 0x14 (size before relaxing)
 *fill*         0x0044117e        0x2 
 .rodata.execcmd.str1.4
                0x00441180        0x3 /home/notlean/openwrt-uboost/tmp/ccV1QtaS.ltrans3.ltrans.o
                                  0x4 (size before relaxing)
 .rodata.breakcmd.str1.4
                0x00441183       0x14 /home/notlean/openwrt-uboost/tmp/ccV1QtaS.ltrans3.ltrans.o
 *fill*         0x00441183        0x1 
 .rodata.set_discard_flag.str1.4
                0x00441184        0xe /home/notlean/openwrt-uboost/tmp/ccV1QtaS.ltrans3.ltrans.o
                                 0x10 (size before relaxing)
 *fill*         0x00441192        0x2 
 .rodata.historycmd.str1.4
                0x00441194        0x8 /home/notlean/openwrt-uboost/tmp/ccV1QtaS.ltrans3.ltrans.o
 .rodata.__pgetc.str1.4
                0x0044119c        0xf /home/notlean/openwrt-uboost/tmp/ccV1QtaS.ltrans3.ltrans.o
                                 0x18 (size before relaxing)
 .rodata.setinputfile.str1.4
                0x004411ab       0x1c /home/notlean/openwrt-uboost/tmp/ccV1QtaS.ltrans3.ltrans.o
 *fill*         0x004411ab        0x1 
 .rodata.options.str1.4
                0x004411ac       0x50 /home/notlean/openwrt-uboost/tmp/ccV1QtaS.ltrans3.ltrans.o
                                 0x54 (size before relaxing)
 .rodata.showvars.str1.4
                0x004411fc        0xc /home/notlean/openwrt-uboost/tmp/ccV1QtaS.ltrans3.ltrans.o
                                 0x10 (size before relaxing)
 .rodata.exportcmd.str1.4
                0x00441208        0x3 /home/notlean/openwrt-uboost/tmp/ccV1QtaS.ltrans3.ltrans.o
                                  0x4 (size before relaxing)
 *fill*         0x0044120b        0x1 
 .rodata.change_seconds.str1.4
                0x0044120c        0x5 /home/notlean/openwrt-uboost/tmp/ccV1QtaS.ltrans3.ltrans.o
                                  0x8 (size before relaxing)
 *fill*         0x00441211        0x3 
 .rodata.change_realtime.str1.4
                0x00441214        0xa /home/notlean/openwrt-uboost/tmp/ccV1QtaS.ltrans3.ltrans.o
                                  0xc (size before relaxing)
 *fill*         0x0044121e        0x2 
 .rodata.getoptscmd.str1.4
                0x00441220       0x67 /home/notlean/openwrt-uboost/tmp/ccV1QtaS.ltrans3.ltrans.o
                                 0x68 (size before relaxing)
 *fill*         0x00441287        0x1 
 .rodata.tokname.str1.4
                0x00441288        0x5 /home/notlean/openwrt-uboost/tmp/ccV1QtaS.ltrans3.ltrans.o
                                  0x8 (size before relaxing)
 *fill*         0x0044128d        0x3 
 .rodata.raise_error_unexpected_syntax.str1.4
                0x00441290       0x20 /home/notlean/openwrt-uboost/tmp/ccV1QtaS.ltrans3.ltrans.o
 .rodata.readtoken1.str1.4
                0x004412b0       0x56 /home/notlean/openwrt-uboost/tmp/ccV1QtaS.ltrans3.ltrans.o
                                 0x58 (size before relaxing)
 *fill*         0x00441306        0x2 
 .rodata.parse_command.str1.4
                0x00441308       0x2e /home/notlean/openwrt-uboost/tmp/ccV1QtaS.ltrans3.ltrans.o
                                 0x3c (size before relaxing)
 *fill*         0x00441336        0x2 
 .rodata.cmdloop.str1.4
                0x00441338       0x1d /home/notlean/openwrt-uboost/tmp/ccV1QtaS.ltrans3.ltrans.o
                                 0x20 (size before relaxing)
 *fill*         0x00441355        0x3 
 .rodata.dotcmd.str1.4
                0x00441358        0xe /home/notlean/openwrt-uboost/tmp/ccV1QtaS.ltrans3.ltrans.o
                                 0x10 (size before relaxing)
 *fill*         0x00441366        0x2 
 .rodata.unsetcmd.str1.4
                0x00441368        0x3 /home/notlean/openwrt-uboost/tmp/ccV1QtaS.ltrans3.ltrans.o
                                  0x4 (size before relaxing)
 *fill*         0x0044136b        0x1 
 .rodata.trapcmd.str1.4
                0x0044136c       0x31 /home/notlean/openwrt-uboost/tmp/ccV1QtaS.ltrans3.ltrans.o
                                 0x38 (size before relaxing)
 *fill*         0x0044139d        0x3 
 .rodata.timescmd.str1.4
                0x004413a0        0xe /home/notlean/openwrt-uboost/tmp/ccV1QtaS.ltrans3.ltrans.o
                                 0x10 (size before relaxing)
 *fill*         0x004413ae        0x2 
 .rodata.letcmd.str1.4
                0x004413b0       0x14 /home/notlean/openwrt-uboost/tmp/ccV1QtaS.ltrans3.ltrans.o
 .rodata.readcmd.str1.4
                0x004413c4       0x72 /home/notlean/openwrt-uboost/tmp/ccV1QtaS.ltrans3.ltrans.o
                                 0x74 (size before relaxing)
 *fill*         0x00441436        0x2 
 .rodata.umaskcmd.str1.4
                0x00441438       0x19 /home/notlean/openwrt-uboost/tmp/ccV1QtaS.ltrans3.ltrans.o
                                 0x20 (size before relaxing)
 *fill*         0x00441451        0x3 
 .rodata.printlim.str1.4
                0x00441454       0x12 /home/notlean/openwrt-uboost/tmp/ccV1QtaS.ltrans3.ltrans.o
                                 0x14 (size before relaxing)
 *fill*         0x00441466        0x2 
 .rodata.ulimitcmd.str1.4
                0x00441468       0x20 /home/notlean/openwrt-uboost/tmp/ccV1QtaS.ltrans3.ltrans.o
                                 0x34 (size before relaxing)
 .rodata.init.str1.4
                0x00441488       0x25 /home/notlean/openwrt-uboost/tmp/ccV1QtaS.ltrans3.ltrans.o
                                 0x30 (size before relaxing)
 *fill*         0x004414ad        0x3 
 .rodata.logger_main.str1.4
                0x004414b0       0x31 /home/notlean/openwrt-uboost/tmp/ccV1QtaS.ltrans3.ltrans.o
                                 0x3c (size before relaxing)
 *fill*         0x004414e1        0x3 
 .rodata.dmesg_main.str1.4
                0x004414e4       0x14 /home/notlean/openwrt-uboost/tmp/ccV1QtaS.ltrans3.ltrans.o
 .rodata.flock_main.str1.4
                0x004414f8       0x27 /home/notlean/openwrt-uboost/tmp/ccV1QtaS.ltrans3.ltrans.o
                                 0x3c (size before relaxing)
 *fill*         0x0044151f        0x1 
 .rodata.hexdump_main.str1.4
                0x00441520       0x62 /home/notlean/openwrt-uboost/tmp/ccV1QtaS.ltrans3.ltrans.o
                                 0x64 (size before relaxing)
 *fill*         0x00441582        0x2 
 .rodata.read_rtc.str1.4
                0x00441584       0x18 /home/notlean/openwrt-uboost/tmp/ccV1QtaS.ltrans3.ltrans.o
 .rodata.set_kernel_tz.str1.4
                0x0044159c       0x10 /home/notlean/openwrt-uboost/tmp/ccV1QtaS.ltrans3.ltrans.o
 .rodata.hwclock_main.str1.4
                0x0044159c       0x3a /home/notlean/openwrt-uboost/tmp/ccV1QtaS.ltrans3.ltrans.o
                                 0x3c (size before relaxing)
 *fill*         0x004415d6        0x2 
 .rodata.mkswap_main.str1.4
                0x004415d8       0x5f /home/notlean/openwrt-uboost/tmp/ccV1QtaS.ltrans3.ltrans.o
                                 0x60 (size before relaxing)
 *fill*         0x00441637        0x1 
 .rodata.append_mount_options.str1.4
                0x00441638        0x8 /home/notlean/openwrt-uboost/tmp/ccV1QtaS.ltrans3.ltrans.o
 .rodata.mount_it_now.str1.4
                0x00441640       0x3a /home/notlean/openwrt-uboost/tmp/ccV1QtaS.ltrans3.ltrans.o
                                 0x3c (size before relaxing)
 *fill*         0x0044167a        0x2 
 .rodata.cut_out_ull_opt.str1.4
                0x0044167c       0x10 /home/notlean/openwrt-uboost/tmp/ccV1QtaS.ltrans3.ltrans.o
 .rodata.singlemount.str1.4
                0x0044168c       0xcd /home/notlean/openwrt-uboost/tmp/ccV1QtaS.ltrans3.ltrans.o
                                 0xd4 (size before relaxing)
 *fill*         0x00441759        0x3 
 .rodata.mount_main.str1.4
                0x0044175c       0x5c /home/notlean/openwrt-uboost/tmp/ccV1QtaS.ltrans3.ltrans.o
                                 0x74 (size before relaxing)
 .rodata.swap_on_off_main.str1.4
                0x004417b8       0x2c /home/notlean/openwrt-uboost/tmp/ccV1QtaS.ltrans3.ltrans.o
 .rodata.ash_main.str1.4
                0x004417e4       0x38 /home/notlean/openwrt-uboost/tmp/ccV1QtaS.ltrans3.ltrans.o
                                 0x40 (size before relaxing)
 .rodata.find_command.lto_priv.0.str1.4
                0x0044181c       0x15 /home/notlean/openwrt-uboost/tmp/ccV1QtaS.ltrans3.ltrans.o
                                 0x2c (size before relaxing)
 *fill*         0x00441831        0x3 
 .rodata.evalcommand.lto_priv.0.str1.4
                0x00441834       0x1e /home/notlean/openwrt-uboost/tmp/ccV1QtaS.ltrans3.ltrans.o
                                 0x28 (size before relaxing)
 *fill*         0x00441852        0x2 
 .rodata.evaluate_string.lto_priv.0.str1.4
                0x00441854       0x18 /home/notlean/openwrt-uboost/tmp/ccV1QtaS.ltrans3.ltrans.o
 .rodata.arith_lookup_val.str1.4
                0x0044186c       0x23 /home/notlean/openwrt-uboost/tmp/ccV1QtaS.ltrans3.ltrans.o
                                 0x24 (size before relaxing)
 *fill*         0x0044188f        0x1 
 .rodata.arith_apply.str1.4
                0x00441890       0x3f /home/notlean/openwrt-uboost/tmp/ccV1QtaS.ltrans3.ltrans.o
                                 0x48 (size before relaxing)
 *fill*         0x004418cf        0x1 
 .rodata.mount_options
                0x004418d0       0xac /home/notlean/openwrt-uboost/tmp/ccV1QtaS.ltrans3.ltrans.o
 .rodata.bkm_suffixes
                0x0044197c       0x20 /home/notlean/openwrt-uboost/tmp/ccV1QtaS.ltrans3.ltrans.o
                0x0044197c                bkm_suffixes
 .rodata.str1.4
                0x0044199c      0x31a /home/notlean/openwrt-uboost/tmp/ccV1QtaS.ltrans3.ltrans.o
                                0x334 (size before relaxing)
 *fill*         0x00441cb6        0x2 
 .rodata.add_strings
                0x00441cb8       0x14 /home/notlean/openwrt-uboost/tmp/ccV1QtaS.ltrans3.ltrans.o
 .rodata.__compound_literal.0
                0x00441ccc       0x68 /home/notlean/openwrt-uboost/tmp/ccV1QtaS.ltrans3.ltrans.o
 .rodata.__compound_literal.1
                0x00441d34       0xb8 /home/notlean/openwrt-uboost/tmp/ccV1QtaS.ltrans3.ltrans.o
 .rodata.varinit_data
                0x00441dec       0x84 /home/notlean/openwrt-uboost/tmp/ccV1QtaS.ltrans3.ltrans.o
 .rodata.const_int_0
                0x00441e70        0x4 /home/notlean/openwrt-uboost/tmp/ccV1QtaS.ltrans3.ltrans.o
 .rodata.null_bltin.1
                0x00441e74        0x8 /home/notlean/openwrt-uboost/tmp/ccV1QtaS.ltrans3.ltrans.o
 .rodata.builtintab
                0x00441e7c      0x158 /home/notlean/openwrt-uboost/tmp/ccV1QtaS.ltrans3.ltrans.o
 .rodata.switch_root_main.str1.4
                0x00441fd4       0x5a /home/notlean/openwrt-uboost/tmp/ccV1QtaS.ltrans4.ltrans.o
                                 0x78 (size before relaxing)
 *fill*         0x0044202e        0x2 
 .rodata.process_pid_str.str1.4
                0x00442030       0x8e /home/notlean/openwrt-uboost/tmp/ccV1QtaS.ltrans4.ltrans.o
                                 0x98 (size before relaxing)
 *fill*         0x004420be        0x2 
 .rodata.append_ext.str1.4
                0x004420c0        0x6 /home/notlean/openwrt-uboost/tmp/ccV1QtaS.ltrans4.ltrans.o
                                  0x8 (size before relaxing)
 .rodata.tostring.str1.4
                0x004420c6        0x8 /home/notlean/openwrt-uboost/tmp/ccV1QtaS.ltrans4.ltrans.o
 *fill*         0x004420c6        0x2 
 .rodata.taskset_main.str1.4
                0x004420c8        0xe /home/notlean/openwrt-uboost/tmp/ccV1QtaS.ltrans4.ltrans.o
                                 0x10 (size before relaxing)
 *fill*         0x004420d6        0x2 
 .rodata.umount_main.str1.4
                0x004420d8       0x59 /home/notlean/openwrt-uboost/tmp/ccV1QtaS.ltrans4.ltrans.o
                                 0x80 (size before relaxing)
 *fill*         0x00442131        0x3 
 .rodata.make_new_name_gunzip.str1.4
                0x00442134        0x4 /home/notlean/openwrt-uboost/tmp/ccV1QtaS.ltrans4.ltrans.o
 .rodata.putOctal.str1.4
                0x00442138        0x7 /home/notlean/openwrt-uboost/tmp/ccV1QtaS.ltrans4.ltrans.o
                                  0x8 (size before relaxing)
 *fill*         0x0044213f        0x1 
 .rodata.chksum_and_xwrite_tar_header.str1.4
                0x00442140        0xd /home/notlean/openwrt-uboost/tmp/ccV1QtaS.ltrans4.ltrans.o
                                 0x10 (size before relaxing)
 *fill*         0x0044214d        0x3 
 .rodata.writeLongname.str1.4
                0x00442150        0xe /home/notlean/openwrt-uboost/tmp/ccV1QtaS.ltrans4.ltrans.o
                                 0x10 (size before relaxing)
 *fill*         0x0044215e        0x2 
 .rodata.dd_output_status.str1.4
                0x00442160       0x2c /home/notlean/openwrt-uboost/tmp/ccV1QtaS.ltrans4.ltrans.o
 .rodata.writeTarHeader.str1.4
                0x0044218c       0x16 /home/notlean/openwrt-uboost/tmp/ccV1QtaS.ltrans4.ltrans.o
                                 0x20 (size before relaxing)
 *fill*         0x004421a2        0x2 
 .rodata.vfork_compressor.str1.4
                0x004421a4        0x3 /home/notlean/openwrt-uboost/tmp/ccV1QtaS.ltrans4.ltrans.o
                                  0xc (size before relaxing)
 *fill*         0x004421a7        0x1 
 .rodata.writeTarFile.str1.4
                0x004421a8       0x3c /home/notlean/openwrt-uboost/tmp/ccV1QtaS.ltrans4.ltrans.o
                                 0x44 (size before relaxing)
 .rodata.chmod_main.str1.4
                0x004421e4        0x3 /home/notlean/openwrt-uboost/tmp/ccV1QtaS.ltrans4.ltrans.o
                                  0x4 (size before relaxing)
 *fill*         0x004421e7        0x1 
 .rodata.header_verbose_list.str1.4
                0x004421e8       0x37 /home/notlean/openwrt-uboost/tmp/ccV1QtaS.ltrans4.ltrans.o
                                 0x38 (size before relaxing)
 *fill*         0x0044221f        0x1 
 .rodata.seek_by_jump.str1.4
                0x00442220        0xd /home/notlean/openwrt-uboost/tmp/ccV1QtaS.ltrans4.ltrans.o
                                 0x10 (size before relaxing)
 *fill*         0x0044222d        0x3 
 .rodata.data_extract_all.str1.4
                0x00442230       0xdb /home/notlean/openwrt-uboost/tmp/ccV1QtaS.ltrans4.ltrans.o
                                 0xdc (size before relaxing)
 *fill*         0x0044230b        0x1 
 .rodata.fill_bitbuffer.str1.4
                0x0044230c       0x17 /home/notlean/openwrt-uboost/tmp/ccV1QtaS.ltrans4.ltrans.o
                                 0x18 (size before relaxing)
 *fill*         0x00442323        0x1 
 .rodata.inflate_unzip_internal.str1.4
                0x00442324       0x24 /home/notlean/openwrt-uboost/tmp/ccV1QtaS.ltrans4.ltrans.o
                                 0x2c (size before relaxing)
 .rodata.clear_main.str1.4
                0x00442348        0x8 /home/notlean/openwrt-uboost/tmp/ccV1QtaS.ltrans4.ltrans.o
 .rodata.top_up.str1.4
                0x00442348        0xc /home/notlean/openwrt-uboost/tmp/ccV1QtaS.ltrans4.ltrans.o
 .rodata.unpack_gz_stream.str1.4
                0x00442348       0x2d /home/notlean/openwrt-uboost/tmp/ccV1QtaS.ltrans4.ltrans.o
                                 0x30 (size before relaxing)
 *fill*         0x00442375        0x3 
 .rodata.getOctal.str1.4
                0x00442378       0x24 /home/notlean/openwrt-uboost/tmp/ccV1QtaS.ltrans4.ltrans.o
 .rodata.strip_unsafe_prefix.str1.4
                0x0044239c       0x32 /home/notlean/openwrt-uboost/tmp/ccV1QtaS.ltrans4.ltrans.o
                                 0x34 (size before relaxing)
 *fill*         0x004423ce        0x2 
 .rodata.writeFileToTarball.str1.4
                0x004423d0       0x36 /home/notlean/openwrt-uboost/tmp/ccV1QtaS.ltrans4.ltrans.o
                                 0x38 (size before relaxing)
 *fill*         0x00442406        0x2 
 .rodata.get_header_tar.str1.4
                0x00442408       0xab /home/notlean/openwrt-uboost/tmp/ccV1QtaS.ltrans4.ltrans.o
                                 0xb4 (size before relaxing)
 *fill*         0x004424b3        0x1 
 .rodata.bbunpack.str1.4
                0x004424b4       0x73 /home/notlean/openwrt-uboost/tmp/ccV1QtaS.ltrans4.ltrans.o
                                 0x80 (size before relaxing)
 *fill*         0x00442527        0x1 
 .rodata.gunzip_main.str1.4
                0x00442528        0x9 /home/notlean/openwrt-uboost/tmp/ccV1QtaS.ltrans4.ltrans.o
                                  0xc (size before relaxing)
 *fill*         0x00442531        0x3 
 .rodata.gzip_main.str1.4
                0x00442534       0x17 /home/notlean/openwrt-uboost/tmp/ccV1QtaS.ltrans4.ltrans.o
                                 0x18 (size before relaxing)
 *fill*         0x0044254b        0x1 
 .rodata.tar_main.str1.4
                0x0044254c       0x39 /home/notlean/openwrt-uboost/tmp/ccV1QtaS.ltrans4.ltrans.o
                                 0x44 (size before relaxing)
 *fill*         0x00442585        0x3 
 .rodata.reset_main.str1.4
                0x00442588       0x19 /home/notlean/openwrt-uboost/tmp/ccV1QtaS.ltrans4.ltrans.o
                                 0x1c (size before relaxing)
 *fill*         0x004425a1        0x3 
 .rodata.resize_main.str1.4
                0x004425a4       0x23 /home/notlean/openwrt-uboost/tmp/ccV1QtaS.ltrans4.ltrans.o
                                 0x24 (size before relaxing)
 .rodata.cat_main.str1.4
                0x004425c7       0x23 /home/notlean/openwrt-uboost/tmp/ccV1QtaS.ltrans4.ltrans.o
                                  0x4 (size before relaxing)
 *fill*         0x004425c7        0x1 
 .rodata.fileAction.lto_priv.0.str1.4
                0x004425c8       0x12 /home/notlean/openwrt-uboost/tmp/ccV1QtaS.ltrans4.ltrans.o
                                 0x14 (size before relaxing)
 .rodata.chgrp_main.str1.4
                0x004425da       0x12 /home/notlean/openwrt-uboost/tmp/ccV1QtaS.ltrans4.ltrans.o
                                  0x4 (size before relaxing)
 *fill*         0x004425da        0x2 
 .rodata.chroot_main.str1.4
                0x004425dc        0x3 /home/notlean/openwrt-uboost/tmp/ccV1QtaS.ltrans4.ltrans.o
                                  0x4 (size before relaxing)
 *fill*         0x004425df        0x1 
 .rodata.cp_main.str1.4
                0x004425e0       0x14 /home/notlean/openwrt-uboost/tmp/ccV1QtaS.ltrans4.ltrans.o
 .rodata.cut_main.str1.4
                0x004425f4       0xab /home/notlean/openwrt-uboost/tmp/ccV1QtaS.ltrans4.ltrans.o
                                 0xb0 (size before relaxing)
 *fill*         0x0044269f        0x1 
 .rodata.date_main.str1.4
                0x004426a0       0x63 /home/notlean/openwrt-uboost/tmp/ccV1QtaS.ltrans4.ltrans.o
                                 0x6c (size before relaxing)
 *fill*         0x00442703        0x1 
 .rodata.write_and_stats.str1.4
                0x00442704       0x13 /home/notlean/openwrt-uboost/tmp/ccV1QtaS.ltrans4.ltrans.o
                                 0x14 (size before relaxing)
 *fill*         0x00442717        0x1 
 .rodata.dd_main.str1.4
                0x00442718       0x33 /home/notlean/openwrt-uboost/tmp/ccV1QtaS.ltrans4.ltrans.o
                                 0x34 (size before relaxing)
 *fill*         0x0044274b        0x1 
 .rodata.print.str1.4
                0x0044274c        0x7 /home/notlean/openwrt-uboost/tmp/ccV1QtaS.ltrans4.ltrans.o
                                  0x8 (size before relaxing)
 *fill*         0x00442753        0x1 
 .rodata.df_main.str1.4
                0x00442754       0xce /home/notlean/openwrt-uboost/tmp/ccV1QtaS.ltrans4.ltrans.o
                                 0xd0 (size before relaxing)
 *fill*         0x00442822        0x2 
 .rodata.dirname_main.str1.4
                0x00442824        0x3 /home/notlean/openwrt-uboost/tmp/ccV1QtaS.ltrans4.ltrans.o
                                  0x4 (size before relaxing)
 .rodata.du_main.str1.4
                0x00442827        0x8 /home/notlean/openwrt-uboost/tmp/ccV1QtaS.ltrans4.ltrans.o
 .rodata.echo_main.str1.4
                0x00442827        0xc /home/notlean/openwrt-uboost/tmp/ccV1QtaS.ltrans4.ltrans.o
 *fill*         0x00442827        0x1 
 .rodata.env_main.str1.4
                0x00442828       0x15 /home/notlean/openwrt-uboost/tmp/ccV1QtaS.ltrans4.ltrans.o
                                 0x18 (size before relaxing)
 *fill*         0x0044283d        0x3 
 .rodata.arithmetic_common.str1.4
                0x00442840       0x29 /home/notlean/openwrt-uboost/tmp/ccV1QtaS.ltrans4.ltrans.o
                                 0x2c (size before relaxing)
 *fill*         0x00442869        0x3 
 .rodata.docolon.str1.4
                0x0044286c       0x6d /home/notlean/openwrt-uboost/tmp/ccV1QtaS.ltrans4.ltrans.o
                                 0x70 (size before relaxing)
 *fill*         0x004428d9        0x3 
 .rodata.eval6.str1.4
                0x004428dc        0xd /home/notlean/openwrt-uboost/tmp/ccV1QtaS.ltrans4.ltrans.o
                                 0x18 (size before relaxing)
 .rodata.eval5.str1.4
                0x004428e9        0x4 /home/notlean/openwrt-uboost/tmp/ccV1QtaS.ltrans4.ltrans.o
 *fill*         0x004428e9        0x3 
 .rodata.eval4.str1.4
                0x004428ec        0x2 /home/notlean/openwrt-uboost/tmp/ccV1QtaS.ltrans4.ltrans.o
                                  0x8 (size before relaxing)
 *fill*         0x004428ee        0x2 
 .rodata.eval3.str1.4
                0x004428f0        0x2 /home/notlean/openwrt-uboost/tmp/ccV1QtaS.ltrans4.ltrans.o
                                  0x4 (size before relaxing)
 *fill*         0x004428f2        0x2 
 .rodata.eval2.str1.4
                0x004428f4        0xf /home/notlean/openwrt-uboost/tmp/ccV1QtaS.ltrans4.ltrans.o
                                 0x1c (size before relaxing)
 .rodata.eval1.str1.4
                0x00442903        0x4 /home/notlean/openwrt-uboost/tmp/ccV1QtaS.ltrans4.ltrans.o
 .rodata.eval.str1.4
                0x00442903        0x4 /home/notlean/openwrt-uboost/tmp/ccV1QtaS.ltrans4.ltrans.o
 *fill*         0x00442903        0x1 
 .rodata.expr_main.str1.4
                0x00442904       0x1a /home/notlean/openwrt-uboost/tmp/ccV1QtaS.ltrans4.ltrans.o
                                 0x1c (size before relaxing)
 *fill*         0x0044291e        0x2 
 .rodata.cwbkMG_suffixes
                0x00442920       0x80 /home/notlean/openwrt-uboost/tmp/ccV1QtaS.ltrans4.ltrans.o
 .rodata.str1.4
                0x004429a0        0x5 /home/notlean/openwrt-uboost/tmp/ccV1QtaS.ltrans4.ltrans.o
                                  0x8 (size before relaxing)
 *fill*         0x004429a5        0x3 
 .rodata.args.0
                0x004429a8        0xc /home/notlean/openwrt-uboost/tmp/ccV1QtaS.ltrans4.ltrans.o
 .rodata.print_common.str1.4
                0x004429b4        0x5 /home/notlean/openwrt-uboost/tmp/ccV1QtaS.ltrans5.ltrans.o
                                 0x10 (size before relaxing)
 .rodata.yes_main.str1.4
                0x004429b4        0x5 /home/notlean/openwrt-uboost/tmp/ccV1QtaS.ltrans5.ltrans.o
                                  0x4 (size before relaxing)
 .rodata.head_main.str1.4
                0x004429b4       0x26 /home/notlean/openwrt-uboost/tmp/ccV1QtaS.ltrans5.ltrans.o
                                 0x2c (size before relaxing)
 *fill*         0x004429da        0x2 
 .rodata.id_main.str1.4
                0x004429dc       0x2b /home/notlean/openwrt-uboost/tmp/ccV1QtaS.ltrans5.ltrans.o
                                 0x34 (size before relaxing)
 *fill*         0x00442a07        0x1 
 .rodata.syntax_error.str1.4
                0x00442a08        0xa /home/notlean/openwrt-uboost/tmp/ccV1QtaS.ltrans5.ltrans.o
                                  0xc (size before relaxing)
 *fill*         0x00442a12        0x2 
 .rodata.ln_main.str1.4
                0x00442a14       0x26 /home/notlean/openwrt-uboost/tmp/ccV1QtaS.ltrans5.ltrans.o
                                 0x48 (size before relaxing)
 *fill*         0x00442a3a        0x2 
 .rodata.display_single.str1.4
                0x00442a3c       0xa1 /home/notlean/openwrt-uboost/tmp/ccV1QtaS.ltrans5.ltrans.o
                                 0xac (size before relaxing)
 *fill*         0x00442add        0x3 
 .rodata.display_files.str1.4
                0x00442ae0        0x4 /home/notlean/openwrt-uboost/tmp/ccV1QtaS.ltrans5.ltrans.o
                                  0x8 (size before relaxing)
 .rodata.scan_and_display_dirs_recur.str1.4
                0x00442ae4        0x5 /home/notlean/openwrt-uboost/tmp/ccV1QtaS.ltrans5.ltrans.o
                                 0x18 (size before relaxing)
 *fill*         0x00442ae9        0x3 
 .rodata.ls_main.str1.4
                0x00442aec        0xa /home/notlean/openwrt-uboost/tmp/ccV1QtaS.ltrans5.ltrans.o
                                 0x18 (size before relaxing)
 .rodata.hash_file.str1.4
                0x00442af6       0x10 /home/notlean/openwrt-uboost/tmp/ccV1QtaS.ltrans5.ltrans.o
 *fill*         0x00442af6        0x2 
 .rodata.md5_sha1_sum_main.str1.4
                0x00442af8       0x6c /home/notlean/openwrt-uboost/tmp/ccV1QtaS.ltrans5.ltrans.o
                                 0x7c (size before relaxing)
 .rodata.mkdir_main.str1.4
                0x00442b64        0x5 /home/notlean/openwrt-uboost/tmp/ccV1QtaS.ltrans5.ltrans.o
                                 0x1c (size before relaxing)
 *fill*         0x00442b69        0x3 
 .rodata.mktemp_main.str1.4
                0x00442b6c       0x1b /home/notlean/openwrt-uboost/tmp/ccV1QtaS.ltrans5.ltrans.o
                                 0x1c (size before relaxing)
 *fill*         0x00442b87        0x1 
 .rodata.rm_main.str1.4
                0x00442b88       0x19 /home/notlean/openwrt-uboost/tmp/ccV1QtaS.ltrans5.ltrans.o
                                 0x1c (size before relaxing)
 *fill*         0x00442ba1        0x3 
 .rodata.nice_main.str1.4
                0x00442ba4       0x38 /home/notlean/openwrt-uboost/tmp/ccV1QtaS.ltrans5.ltrans.o
                                 0x3c (size before relaxing)
 .rodata.multiconvert.str1.4
                0x00442bdc       0x14 /home/notlean/openwrt-uboost/tmp/ccV1QtaS.ltrans5.ltrans.o
 .rodata.print_direc.str1.4
                0x00442bdc        0x3 /home/notlean/openwrt-uboost/tmp/ccV1QtaS.ltrans5.ltrans.o
                                  0x4 (size before relaxing)
 *fill*         0x00442bdf        0x1 
 .rodata.printf_main.str1.4
                0x00442be0       0x3f /home/notlean/openwrt-uboost/tmp/ccV1QtaS.ltrans5.ltrans.o
                                 0x40 (size before relaxing)
 .rodata.readlink_main.str1.4
                0x00442c1f        0x4 /home/notlean/openwrt-uboost/tmp/ccV1QtaS.ltrans5.ltrans.o
 *fill*         0x00442c1f        0x1 
 .rodata.rmdir_main.str1.4
                0x00442c20        0x3 /home/notlean/openwrt-uboost/tmp/ccV1QtaS.ltrans5.ltrans.o
                                  0xc (size before relaxing)
 *fill*         0x00442c23        0x1 
 .rodata.seq_main.str1.4
                0x00442c24       0x11 /home/notlean/openwrt-uboost/tmp/ccV1QtaS.ltrans5.ltrans.o
                                 0x18 (size before relaxing)
 *fill*         0x00442c35        0x3 
 .rodata.sleep_main.str1.4
                0x00442c38        0x4 /home/notlean/openwrt-uboost/tmp/ccV1QtaS.ltrans5.ltrans.o
 .rodata.compare_keys.str1.4
                0x00442c3c       0x12 /home/notlean/openwrt-uboost/tmp/ccV1QtaS.ltrans5.ltrans.o
                                 0x14 (size before relaxing)
 .rodata.sort_main.str1.4
                0x00442c4e        0x8 /home/notlean/openwrt-uboost/tmp/ccV1QtaS.ltrans5.ltrans.o
 *fill*         0x00442c4e        0x2 
 .rodata.tail_main.str1.4
                0x00442c50       0x6f /home/notlean/openwrt-uboost/tmp/ccV1QtaS.ltrans5.ltrans.o
                                 0x7c (size before relaxing)
 *fill*         0x00442cbf        0x1 
 .rodata.tee_main.str1.4
                0x00442cc0        0x3 /home/notlean/openwrt-uboost/tmp/ccV1QtaS.ltrans5.ltrans.o
                                  0x4 (size before relaxing)
 .rodata.syntax.str1.4
                0x00442cc3        0x8 /home/notlean/openwrt-uboost/tmp/ccV1QtaS.ltrans5.ltrans.o
 *fill*         0x00442cc3        0x1 
 .rodata.getn.str1.4
                0x00442cc4       0x1b /home/notlean/openwrt-uboost/tmp/ccV1QtaS.ltrans5.ltrans.o
                                 0x1c (size before relaxing)
 *fill*         0x00442cdf        0x1 
 .rodata.binop.str1.4
                0x00442ce0       0x12 /home/notlean/openwrt-uboost/tmp/ccV1QtaS.ltrans5.ltrans.o
                                 0x14 (size before relaxing)
 *fill*         0x00442cf2        0x2 
 .rodata.nexpr.str1.4
                0x00442cf4       0x22 /home/notlean/openwrt-uboost/tmp/ccV1QtaS.ltrans5.ltrans.o
                                 0x24 (size before relaxing)
 *fill*         0x00442d16        0x2 
 .rodata.test_main.str1.4
                0x00442d18       0x2c /home/notlean/openwrt-uboost/tmp/ccV1QtaS.ltrans5.ltrans.o
                                 0x30 (size before relaxing)
 .rodata.tr_main.str1.4
                0x00442d44       0x18 /home/notlean/openwrt-uboost/tmp/ccV1QtaS.ltrans5.ltrans.o
 .rodata.uname_main.str1.4
                0x00442d5c       0x16 /home/notlean/openwrt-uboost/tmp/ccV1QtaS.ltrans5.ltrans.o
                                 0x24 (size before relaxing)
 *fill*         0x00442d72        0x2 
 .rodata.uniq_main.str1.4
                0x00442d74       0x16 /home/notlean/openwrt-uboost/tmp/ccV1QtaS.ltrans5.ltrans.o
                                 0x18 (size before relaxing)
 *fill*         0x00442d8a        0x2 
 .rodata.wc_main.str1.4
                0x00442d8c        0xe /home/notlean/openwrt-uboost/tmp/ccV1QtaS.ltrans5.ltrans.o
                                 0x20 (size before relaxing)
 *fill*         0x00442d9a        0x2 
 .rodata.getopt_mk_fifo_nod.str1.4
                0x00442d9c        0x3 /home/notlean/openwrt-uboost/tmp/ccV1QtaS.ltrans5.ltrans.o
                                  0x4 (size before relaxing)
 *fill*         0x00442d9f        0x1 
 .rodata.fmt_num.str1.4
                0x00442da0       0x11 /home/notlean/openwrt-uboost/tmp/ccV1QtaS.ltrans5.ltrans.o
                                 0x1c (size before relaxing)
 *fill*         0x00442db1        0x3 
 .rodata.check.str1.4
                0x00442db4       0x31 /home/notlean/openwrt-uboost/tmp/ccV1QtaS.ltrans5.ltrans.o
                                 0x34 (size before relaxing)
 *fill*         0x00442de5        0x3 
 .rodata.start_stop_daemon_main.str1.4
                0x00442de8       0xe3 /home/notlean/openwrt-uboost/tmp/ccV1QtaS.ltrans5.ltrans.o
                                0x110 (size before relaxing)
 .rodata.which_main.str1.4
                0x00442ecb        0x8 /home/notlean/openwrt-uboost/tmp/ccV1QtaS.ltrans5.ltrans.o
 *fill*         0x00442ecb        0x1 
 .rodata.handle_special.str1.4
                0x00442ecc       0x19 /home/notlean/openwrt-uboost/tmp/ccV1QtaS.ltrans5.ltrans.o
                                 0x1c (size before relaxing)
 *fill*         0x00442ee5        0x3 
 .rodata.do_mktime.str1.4
                0x00442ee8       0x15 /home/notlean/openwrt-uboost/tmp/ccV1QtaS.ltrans5.ltrans.o
                                 0x18 (size before relaxing)
 .rodata.cp_mv_stat2.str1.4
                0x00442efd       0x10 /home/notlean/openwrt-uboost/tmp/ccV1QtaS.ltrans5.ltrans.o
 *fill*         0x00442efd        0x3 
 .rodata.mv_main.str1.4
                0x00442f00       0x46 /home/notlean/openwrt-uboost/tmp/ccV1QtaS.ltrans5.ltrans.o
                                 0x48 (size before relaxing)
 *fill*         0x00442f46        0x2 
 .rodata.parse_expr.str1.4
                0x00442f48        0xf /home/notlean/openwrt-uboost/tmp/ccV1QtaS.ltrans5.ltrans.o
                                 0x10 (size before relaxing)
 *fill*         0x00442f57        0x1 
 .rodata.chain_group.str1.4
                0x00442f58       0x31 /home/notlean/openwrt-uboost/tmp/ccV1QtaS.ltrans5.ltrans.o
                                 0x34 (size before relaxing)
 *fill*         0x00442f89        0x3 
 .rodata.parse_program.str1.4
                0x00442f8c       0x13 /home/notlean/openwrt-uboost/tmp/ccV1QtaS.ltrans5.ltrans.o
                                 0x14 (size before relaxing)
 .rodata.awk_getline.str1.4
                0x00442f9f        0x4 /home/notlean/openwrt-uboost/tmp/ccV1QtaS.ltrans5.ltrans.o
 *fill*         0x00442f9f        0x1 
 .rodata.evaluate.lto_priv.0.str1.4
                0x00442fa0       0x1b /home/notlean/openwrt-uboost/tmp/ccV1QtaS.ltrans5.ltrans.o
                                 0x30 (size before relaxing)
 *fill*         0x00442fbb        0x1 
 .rodata.do_match.str1.4
                0x00442fbc        0xf /home/notlean/openwrt-uboost/tmp/ccV1QtaS.ltrans5.ltrans.o
                                 0x10 (size before relaxing)
 *fill*         0x00442fcb        0x1 
 .rodata.awk_printf.str1.4
                0x00442fcc       0x1e /home/notlean/openwrt-uboost/tmp/ccV1QtaS.ltrans5.ltrans.o
                                 0x20 (size before relaxing)
 *fill*         0x00442fea        0x2 
 .rodata.exec_builtin.str1.4
                0x00442fec       0x18 /home/notlean/openwrt-uboost/tmp/ccV1QtaS.ltrans5.ltrans.o
 .rodata.awk_main.str1.4
                0x00443004       0x64 /home/notlean/openwrt-uboost/tmp/ccV1QtaS.ltrans5.ltrans.o
 .rodata.tokeninfo
                0x00443068      0x190 /home/notlean/openwrt-uboost/tmp/ccV1QtaS.ltrans5.ltrans.o
 .rodata.utsname_offset
                0x004431f8       0x10 /home/notlean/openwrt-uboost/tmp/ccV1QtaS.ltrans5.ltrans.o
 .rodata.no_op.0
                0x00443208        0x4 /home/notlean/openwrt-uboost/tmp/ccV1QtaS.ltrans5.ltrans.o
 .rodata.modes_cubp
                0x0044320c        0xc /home/notlean/openwrt-uboost/tmp/ccV1QtaS.ltrans5.ltrans.o
 .rodata.init256
                0x00443218       0x28 /home/notlean/openwrt-uboost/tmp/ccV1QtaS.ltrans5.ltrans.o
 .rodata.cmp_main.str1.4
                0x00443240        0x4 /home/notlean/openwrt-uboost/tmp/ccV1QtaS.ltrans6.ltrans.o
 .rodata.sed_xfopen_w.str1.4
                0x00443240        0x4 /home/notlean/openwrt-uboost/tmp/ccV1QtaS.ltrans6.ltrans.o
 .rodata.copy_parsing_escapes.str1.4
                0x00443240        0x7 /home/notlean/openwrt-uboost/tmp/ccV1QtaS.ltrans6.ltrans.o
                                  0x8 (size before relaxing)
 *fill*         0x00443247        0x1 
 .rodata.index_of_next_unescaped_regexp_delim.str1.4
                0x00443248        0xf /home/notlean/openwrt-uboost/tmp/ccV1QtaS.ltrans6.ltrans.o
                                 0x10 (size before relaxing)
 *fill*         0x00443257        0x1 
 .rodata.parse_regex_delim.str1.4
                0x00443258       0x26 /home/notlean/openwrt-uboost/tmp/ccV1QtaS.ltrans6.ltrans.o
                                 0x28 (size before relaxing)
 *fill*         0x0044327e        0x2 
 .rodata.get_address.lto_priv.0.str1.4
                0x00443280       0x13 /home/notlean/openwrt-uboost/tmp/ccV1QtaS.ltrans6.ltrans.o
                                 0x14 (size before relaxing)
 *fill*         0x00443293        0x1 
 .rodata.skip_thing.str1.4
                0x00443294       0x21 /home/notlean/openwrt-uboost/tmp/ccV1QtaS.ltrans6.ltrans.o
                                 0x24 (size before relaxing)
 *fill*         0x004432b5        0x3 
 .rodata.parse_file_cmd.str1.4
                0x004432b8        0xf /home/notlean/openwrt-uboost/tmp/ccV1QtaS.ltrans6.ltrans.o
                                 0x10 (size before relaxing)
 *fill*         0x004432c7        0x1 
 .rodata.add_cmd.str1.4
                0x004432c8       0x97 /home/notlean/openwrt-uboost/tmp/ccV1QtaS.ltrans6.ltrans.o
                                 0x98 (size before relaxing)
 .rodata.puts_maybe_newline.str1.4
                0x0044335f        0xc /home/notlean/openwrt-uboost/tmp/ccV1QtaS.ltrans6.ltrans.o
 .rodata.get_next_line.str1.4
                0x0044335f        0x4 /home/notlean/openwrt-uboost/tmp/ccV1QtaS.ltrans6.ltrans.o
 *fill*         0x0044335f        0x1 
 .rodata.find_pair.str1.4
                0x00443360        0x7 /home/notlean/openwrt-uboost/tmp/ccV1QtaS.ltrans6.ltrans.o
                                  0x8 (size before relaxing)
 *fill*         0x00443367        0x1 
 .rodata.process_files.str1.4
                0x00443368       0x32 /home/notlean/openwrt-uboost/tmp/ccV1QtaS.ltrans6.ltrans.o
                                 0x40 (size before relaxing)
 *fill*         0x0044339a        0x2 
 .rodata.sed_main.str1.4
                0x0044339c       0x54 /home/notlean/openwrt-uboost/tmp/ccV1QtaS.ltrans6.ltrans.o
                                 0x60 (size before relaxing)
 .rodata.place_cursor.str1.4
                0x004433f0        0xc /home/notlean/openwrt-uboost/tmp/ccV1QtaS.ltrans6.ltrans.o
 .rodata.go_bottom_and_clear_to_eol.str1.4
                0x004433f0        0x4 /home/notlean/openwrt-uboost/tmp/ccV1QtaS.ltrans6.ltrans.o
 .rodata.readit.str1.4
                0x004433f0       0x16 /home/notlean/openwrt-uboost/tmp/ccV1QtaS.ltrans6.ltrans.o
                                 0x18 (size before relaxing)
 *fill*         0x00443406        0x2 
 .rodata.Hit_Return.str1.4
                0x00443408       0x21 /home/notlean/openwrt-uboost/tmp/ccV1QtaS.ltrans6.ltrans.o
                                 0x28 (size before relaxing)
 *fill*         0x00443429        0x3 
 .rodata.show_status_line.str1.4
                0x0044342c       0x35 /home/notlean/openwrt-uboost/tmp/ccV1QtaS.ltrans6.ltrans.o
                                 0x38 (size before relaxing)
 .rodata.redraw.str1.4
                0x00443461        0x8 /home/notlean/openwrt-uboost/tmp/ccV1QtaS.ltrans6.ltrans.o
 *fill*         0x00443461        0x3 
 .rodata.indicate_error.str1.4
                0x00443464        0x2 /home/notlean/openwrt-uboost/tmp/ccV1QtaS.ltrans6.ltrans.o
                                  0x4 (size before relaxing)
 *fill*         0x00443466        0x2 
 .rodata.char_insert.str1.4
                0x00443468        0x4 /home/notlean/openwrt-uboost/tmp/ccV1QtaS.ltrans6.ltrans.o
 .rodata.not_implemented.str1.4
                0x0044346c       0x20 /home/notlean/openwrt-uboost/tmp/ccV1QtaS.ltrans6.ltrans.o
 .rodata.file_insert.str1.4
                0x0044348c        0x8 /home/notlean/openwrt-uboost/tmp/ccV1QtaS.ltrans6.ltrans.o
                                 0x34 (size before relaxing)
 .rodata.file_write.str1.4
                0x00443494       0x14 /home/notlean/openwrt-uboost/tmp/ccV1QtaS.ltrans6.ltrans.o
 .rodata.func_print0.str1.4
                0x004434a8        0x8 /home/notlean/openwrt-uboost/tmp/ccV1QtaS.ltrans6.ltrans.o
 .rodata.print_line.str1.4
                0x004434a8        0x5 /home/notlean/openwrt-uboost/tmp/ccV1QtaS.ltrans6.ltrans.o
                                  0xc (size before relaxing)
 *fill*         0x004434ad        0x3 
 .rodata.colon.str1.4
                0x004434b0      0x39b /home/notlean/openwrt-uboost/tmp/ccV1QtaS.ltrans6.ltrans.o
                                0x3c0 (size before relaxing)
 *fill*         0x0044384b        0x1 
 .rodata.do_cmd.str1.4
                0x0044384c       0x6b /home/notlean/openwrt-uboost/tmp/ccV1QtaS.ltrans6.ltrans.o
                                 0x70 (size before relaxing)
 *fill*         0x004438b7        0x1 
 .rodata.find_range.str1.4
                0x004438b8       0x47 /home/notlean/openwrt-uboost/tmp/ccV1QtaS.ltrans6.ltrans.o
                                 0x4c (size before relaxing)
 *fill*         0x004438ff        0x1 
 .rodata.edit_file.str1.4
                0x00443900        0xf /home/notlean/openwrt-uboost/tmp/ccV1QtaS.ltrans6.ltrans.o
                                 0x10 (size before relaxing)
 *fill*         0x0044390f        0x1 
 .rodata.vi_main.str1.4
                0x00443910       0x49 /home/notlean/openwrt-uboost/tmp/ccV1QtaS.ltrans6.ltrans.o
                                 0x54 (size before relaxing)
 *fill*         0x00443959        0x3 
 .rodata.parse_params.str1.4
                0x0044395c       0x31 /home/notlean/openwrt-uboost/tmp/ccV1QtaS.ltrans6.ltrans.o
                                 0x4c (size before relaxing)
 *fill*         0x0044398d        0x3 
 .rodata.find_main.str1.4
                0x00443990        0x9 /home/notlean/openwrt-uboost/tmp/ccV1QtaS.ltrans6.ltrans.o
                                 0x10 (size before relaxing)
 *fill*         0x00443999        0x3 
 .rodata.grep_file.str1.4
                0x0044399c        0x4 /home/notlean/openwrt-uboost/tmp/ccV1QtaS.ltrans6.ltrans.o
 .rodata.grep_main.str1.4
                0x004439a0       0x11 /home/notlean/openwrt-uboost/tmp/ccV1QtaS.ltrans6.ltrans.o
                                 0x18 (size before relaxing)
 *fill*         0x004439b1        0x3 
 .rodata.process_stdin.lto_priv.0.str1.4
                0x004439b4       0x23 /home/notlean/openwrt-uboost/tmp/ccV1QtaS.ltrans6.ltrans.o
                                 0x24 (size before relaxing)
 *fill*         0x004439d7        0x1 
 .rodata.find_suffixes.0
                0x004439d8       0x30 /home/notlean/openwrt-uboost/tmp/ccV1QtaS.ltrans6.ltrans.o
 .rodata.xgroup2gid.str1.4
                0x00443a08       0x11 /home/notlean/openwrt-uboost/tmp/ccV1QtaS.ltrans7.ltrans.o
                                 0x14 (size before relaxing)
 *fill*         0x00443a19        0x3 
 .rodata.quote_special_chars.str1.4
                0x00443a1c       0x14 /home/notlean/openwrt-uboost/tmp/ccV1QtaS.ltrans7.ltrans.o
 .rodata.next.str1.4
                0x00443a30        0x6 /home/notlean/openwrt-uboost/tmp/ccV1QtaS.ltrans7.ltrans.o
                                  0xc (size before relaxing)
 .rodata.get_homedir_or_NULL.str1.4
                0x00443a36        0x8 /home/notlean/openwrt-uboost/tmp/ccV1QtaS.ltrans7.ltrans.o
 *fill*         0x00443a36        0x2 
 .rodata.halt_main.str1.4
                0x00443a38        0x8 /home/notlean/openwrt-uboost/tmp/ccV1QtaS.ltrans7.ltrans.o
 .rodata.ask_and_unlink.str1.4
                0x00443a40       0x2a /home/notlean/openwrt-uboost/tmp/ccV1QtaS.ltrans7.ltrans.o
                                 0x2c (size before relaxing)
 *fill*         0x00443a6a        0x2 
 .rodata.xgetpwnam.str1.4
                0x00443a6c       0x10 /home/notlean/openwrt-uboost/tmp/ccV1QtaS.ltrans7.ltrans.o
 .rodata.xgetpwuid.str1.4
                0x00443a7c        0xf /home/notlean/openwrt-uboost/tmp/ccV1QtaS.ltrans7.ltrans.o
                                 0x10 (size before relaxing)
 *fill*         0x00443a8b        0x1 
 .rodata.change_identity.str1.4
                0x00443a8c       0x11 /home/notlean/openwrt-uboost/tmp/ccV1QtaS.ltrans7.ltrans.o
                                 0x14 (size before relaxing)
 *fill*         0x00443a9d        0x3 
 .rodata.get_passwd.lto_priv.0.str1.4
                0x00443aa0        0x3 /home/notlean/openwrt-uboost/tmp/ccV1QtaS.ltrans7.ltrans.o
                                  0x4 (size before relaxing)
 *fill*         0x00443aa3        0x1 
 .rodata.rewrite.lto_priv.0.str1.4
                0x00443aa4       0xb3 /home/notlean/openwrt-uboost/tmp/ccV1QtaS.ltrans7.ltrans.o
                                 0xb4 (size before relaxing)
 .rodata.find_mount_point.str1.4
                0x00443b57       0x10 /home/notlean/openwrt-uboost/tmp/ccV1QtaS.ltrans7.ltrans.o
 .rodata.get_shell_name.str1.4
                0x00443b57        0x8 /home/notlean/openwrt-uboost/tmp/ccV1QtaS.ltrans7.ltrans.o
 *fill*         0x00443b57        0x1 
 .rodata.make_human_readable_str.str1.4
                0x00443b58       0x14 /home/notlean/openwrt-uboost/tmp/ccV1QtaS.ltrans7.ltrans.o
                                 0x20 (size before relaxing)
 .rodata.INET_resolve.str1.4
                0x00443b6c        0x8 /home/notlean/openwrt-uboost/tmp/ccV1QtaS.ltrans7.ltrans.o
 .rodata.INET6_resolve.str1.4
                0x00443b6c       0x14 /home/notlean/openwrt-uboost/tmp/ccV1QtaS.ltrans7.ltrans.o
 .rodata.add_to_ino_dev_hashtable.str1.4
                0x00443b80        0x4 /home/notlean/openwrt-uboost/tmp/ccV1QtaS.ltrans7.ltrans.o
 .rodata.bb_make_directory.str1.4
                0x00443b80       0x34 /home/notlean/openwrt-uboost/tmp/ccV1QtaS.ltrans7.ltrans.o
 .rodata.read_cmdline.str1.4
                0x00443bb4       0x21 /home/notlean/openwrt-uboost/tmp/ccV1QtaS.ltrans7.ltrans.o
                                 0x24 (size before relaxing)
 *fill*         0x00443bd5        0x3 
 .rodata.pw_encrypt.str1.4
                0x00443bd8        0x9 /home/notlean/openwrt-uboost/tmp/ccV1QtaS.ltrans7.ltrans.o
                                  0xc (size before relaxing)
 .rodata.xread.str1.4
                0x00443be1        0xc /home/notlean/openwrt-uboost/tmp/ccV1QtaS.ltrans7.ltrans.o
 *fill*         0x00443be1        0x3 
 .rodata.remove_file.str1.4
                0x00443be4       0x52 /home/notlean/openwrt-uboost/tmp/ccV1QtaS.ltrans7.ltrans.o
                                 0x8c (size before relaxing)
 *fill*         0x00443c36        0x2 
 .rodata.safe_gethostname.str1.4
                0x00443c38        0x2 /home/notlean/openwrt-uboost/tmp/ccV1QtaS.ltrans7.ltrans.o
                                  0x4 (size before relaxing)
 .rodata.safe_poll.str1.4
                0x00443c3a        0x8 /home/notlean/openwrt-uboost/tmp/ccV1QtaS.ltrans7.ltrans.o
 .rodata.setup_environment.str1.4
                0x00443c3a       0x2c /home/notlean/openwrt-uboost/tmp/ccV1QtaS.ltrans7.ltrans.o
 *fill*         0x00443c3a        0x2 
 .rodata.bb_dump_add.str1.4
                0x00443c3c       0x10 /home/notlean/openwrt-uboost/tmp/ccV1QtaS.ltrans7.ltrans.o
 .rodata.config_read.str1.4
                0x00443c4c       0x28 /home/notlean/openwrt-uboost/tmp/ccV1QtaS.ltrans7.ltrans.o
 .rodata.get_signum.str1.4
                0x00443c74        0x4 /home/notlean/openwrt-uboost/tmp/ccV1QtaS.ltrans7.ltrans.o
 .rodata.xargs_main.str1.4
                0x00443c78       0xbd /home/notlean/openwrt-uboost/tmp/ccV1QtaS.ltrans7.ltrans.o
                                 0xd0 (size before relaxing)
 .rodata.xfdopen_helper.lto_priv.0.str1.4
                0x00443d35        0x4 /home/notlean/openwrt-uboost/tmp/ccV1QtaS.ltrans7.ltrans.o
 *fill*         0x00443d35        0x3 
 .rodata.xconnect.str1.4
                0x00443d38       0x28 /home/notlean/openwrt-uboost/tmp/ccV1QtaS.ltrans7.ltrans.o
 .rodata.str2sockaddr.lto_priv.0.str1.4
                0x00443d60       0x11 /home/notlean/openwrt-uboost/tmp/ccV1QtaS.ltrans7.ltrans.o
                                 0x24 (size before relaxing)
 *fill*         0x00443d71        0x3 
 .rodata.sockaddr2str.lto_priv.0.str1.4
                0x00443d74        0x8 /home/notlean/openwrt-uboost/tmp/ccV1QtaS.ltrans7.ltrans.o
                                 0x10 (size before relaxing)
 .rodata.INET_rresolve.str1.4
                0x00443d7c        0x4 /home/notlean/openwrt-uboost/tmp/ccV1QtaS.ltrans7.ltrans.o
 .rodata.procps_scan.str1.4
                0x00443d7c       0x10 /home/notlean/openwrt-uboost/tmp/ccV1QtaS.ltrans7.ltrans.o
                                 0x28 (size before relaxing)
 .rodata.update_passwd.str1.4
                0x00443d8c       0x68 /home/notlean/openwrt-uboost/tmp/ccV1QtaS.ltrans7.ltrans.o
                                 0x70 (size before relaxing)
 .rodata.xmalloc_readlink_or_warn.str1.4
                0x00443df4       0x29 /home/notlean/openwrt-uboost/tmp/ccV1QtaS.ltrans7.ltrans.o
                                 0x2c (size before relaxing)
 *fill*         0x00443e1d        0x3 
 .rodata.copy_file.str1.4
                0x00443e20      0x116 /home/notlean/openwrt-uboost/tmp/ccV1QtaS.ltrans7.ltrans.o
                                0x158 (size before relaxing)
 .rodata.complete_cmd_dir_file.str1.4
                0x00443f36        0x4 /home/notlean/openwrt-uboost/tmp/ccV1QtaS.ltrans7.ltrans.o
 *fill*         0x00443f36        0x2 
 .rodata.xregcomp.str1.4
                0x00443f38       0x13 /home/notlean/openwrt-uboost/tmp/ccV1QtaS.ltrans7.ltrans.o
                                 0x14 (size before relaxing)
 *fill*         0x00443f4b        0x1 
 .rodata.parse_chown_usergroup_or_die.str1.4
                0x00443f4c       0x16 /home/notlean/openwrt-uboost/tmp/ccV1QtaS.ltrans7.ltrans.o
                                 0x18 (size before relaxing)
 *fill*         0x00443f62        0x2 
 .rodata.setup_transformer_on_fd.constprop.0.str1.4
                0x00443f64        0xe /home/notlean/openwrt-uboost/tmp/ccV1QtaS.ltrans7.ltrans.o
                                 0x10 (size before relaxing)
 *fill*         0x00443f72        0x2 
 .rodata.xrealloc_getcwd_or_warn.constprop.0.str1.4
                0x00443f74        0x7 /home/notlean/openwrt-uboost/tmp/ccV1QtaS.ltrans7.ltrans.o
                                  0x8 (size before relaxing)
 .rodata.ash_msg_and_raise.constprop.0.str1.4
                0x00443f7b        0x8 /home/notlean/openwrt-uboost/tmp/ccV1QtaS.ltrans7.ltrans.o
 *fill*         0x00443f7b        0x1 
 .rodata.legal_pathopt.constprop.0.str1.4
                0x00443f7c        0x5 /home/notlean/openwrt-uboost/tmp/ccV1QtaS.ltrans7.ltrans.o
                                 0x10 (size before relaxing)
 *fill*         0x00443f81        0x3 
 .rodata.smart_ulltoa5.constprop.0.str1.4
                0x00443f84       0x21 /home/notlean/openwrt-uboost/tmp/ccV1QtaS.ltrans7.ltrans.o
                                 0x24 (size before relaxing)
 *fill*         0x00443fa5        0x3 
 .rodata.udhcp_option_idx.constprop.0.str1.4
                0x00443fa8       0x27 /home/notlean/openwrt-uboost/tmp/ccV1QtaS.ltrans7.ltrans.o
                                 0x28 (size before relaxing)
 *fill*         0x00443fcf        0x1 
 .rodata.attach_option.constprop.0.str1.4
                0x00443fd0       0x1a /home/notlean/openwrt-uboost/tmp/ccV1QtaS.ltrans7.ltrans.o
                                 0x1c (size before relaxing)
 .rodata.udhcp_send_raw_packet.constprop.0.str1.4
                0x00443fea       0x28 /home/notlean/openwrt-uboost/tmp/ccV1QtaS.ltrans7.ltrans.o
 *fill*         0x00443fea        0x2 
 .rodata.ll_addr_n2a.constprop.0.str1.4
                0x00443fec        0x6 /home/notlean/openwrt-uboost/tmp/ccV1QtaS.ltrans7.ltrans.o
                                  0x8 (size before relaxing)
 .rodata.sendping_tail.constprop.0.str1.4
                0x00443ff2        0xc /home/notlean/openwrt-uboost/tmp/ccV1QtaS.ltrans7.ltrans.o
 *fill*         0x00443ff2        0x2 
 .rodata.if_readlist_proc.constprop.0.str1.4
                0x00443ff4       0x22 /home/notlean/openwrt-uboost/tmp/ccV1QtaS.ltrans7.ltrans.o
                                 0x24 (size before relaxing)
 .rodata.log7.constprop.0.str1.4
                0x00444016       0x24 /home/notlean/openwrt-uboost/tmp/ccV1QtaS.ltrans7.ltrans.o
 .rodata.xstrtoull_range_sfx.constprop.0.str1.4
                0x00444016       0x3c /home/notlean/openwrt-uboost/tmp/ccV1QtaS.ltrans7.ltrans.o
 .rodata.dup2_or_raise.isra.0.str1.4
                0x00444016        0x8 /home/notlean/openwrt-uboost/tmp/ccV1QtaS.ltrans7.ltrans.o
 *fill*         0x00444016        0x2 
 .rodata.xmalloc_optname_optval.isra.0.str1.4
                0x00444018       0x38 /home/notlean/openwrt-uboost/tmp/ccV1QtaS.ltrans7.ltrans.o
                                 0x48 (size before relaxing)
 .rodata.send_select.isra.0.str1.4
                0x00444050       0x26 /home/notlean/openwrt-uboost/tmp/ccV1QtaS.ltrans7.ltrans.o
                                 0x28 (size before relaxing)
 *fill*         0x00444076        0x2 
 .rodata.send_discover.isra.0.str1.4
                0x00444078       0x16 /home/notlean/openwrt-uboost/tmp/ccV1QtaS.ltrans7.ltrans.o
                                 0x18 (size before relaxing)
 .rodata.get_addr.isra.0.str1.4
                0x0044408e       0x74 /home/notlean/openwrt-uboost/tmp/ccV1QtaS.ltrans7.ltrans.o
 *fill*         0x0044408e        0x2 
 .rodata.display.lto_priv.0.str1.4
                0x00444090        0xd /home/notlean/openwrt-uboost/tmp/ccV1QtaS.ltrans7.ltrans.o
                                 0x14 (size before relaxing)
 *fill*         0x0044409d        0x3 
 .rodata.parse_and_put_prompt.lto_priv.0.str1.4
                0x004440a0        0x9 /home/notlean/openwrt-uboost/tmp/ccV1QtaS.ltrans7.ltrans.o
                                 0x10 (size before relaxing)
 .rodata.put_cur_glyph_and_inc_cursor.lto_priv.0.str1.4
                0x004440a9        0x4 /home/notlean/openwrt-uboost/tmp/ccV1QtaS.ltrans7.ltrans.o
 .rodata.ctrl_right.lto_priv.0.str1.4
                0x004440a9       0x24 /home/notlean/openwrt-uboost/tmp/ccV1QtaS.ltrans7.ltrans.o
 *fill*         0x004440a9        0x3 
 .rodata.input_backward.lto_priv.0.str1.4
                0x004440ac       0x16 /home/notlean/openwrt-uboost/tmp/ccV1QtaS.ltrans7.ltrans.o
                                 0x18 (size before relaxing)
 .rodata.input_delete.lto_priv.0.str1.4
                0x004440c2        0x4 /home/notlean/openwrt-uboost/tmp/ccV1QtaS.ltrans7.ltrans.o
 *fill*         0x004440c2        0x2 
 .rodata.draw_custom.lto_priv.0.str1.4
                0x004440c4        0x6 /home/notlean/openwrt-uboost/tmp/ccV1QtaS.ltrans7.ltrans.o
                                  0x8 (size before relaxing)
 *fill*         0x004440ca        0x2 
 .rodata.input_tab.lto_priv.0.str1.4
                0x004440cc        0x7 /home/notlean/openwrt-uboost/tmp/ccV1QtaS.ltrans7.ltrans.o
                                 0x10 (size before relaxing)
 *fill*         0x004440d3        0x1 
 .rodata.setsockopt_bindtodevice.str1.4
                0x004440d4       0x1b /home/notlean/openwrt-uboost/tmp/ccV1QtaS.ltrans7.ltrans.o
                                 0x1c (size before relaxing)
 *fill*         0x004440ef        0x1 
 .rodata.common_ping_main.isra.0.str1.4
                0x004440f0       0xde /home/notlean/openwrt-uboost/tmp/ccV1QtaS.ltrans7.ltrans.o
                                0x138 (size before relaxing)
 *fill*         0x004441ce        0x2 
 .rodata.udhcp_read_interface.constprop.0.str1.4
                0x004441d0        0xe /home/notlean/openwrt-uboost/tmp/ccV1QtaS.ltrans7.ltrans.o
                                 0x20 (size before relaxing)
 *fill*         0x004441de        0x2 
 .rodata.str1.4
                0x004441e0       0xf8 /home/notlean/openwrt-uboost/tmp/ccV1QtaS.ltrans7.ltrans.o
                                0x138 (size before relaxing)
 .rodata.CSWTCH.158
                0x004442d8       0x4c /home/notlean/openwrt-uboost/tmp/ccV1QtaS.ltrans7.ltrans.o
 .rodata.ss_fmt
                0x00444324        0xc /home/notlean/openwrt-uboost/tmp/ccV1QtaS.ltrans7.ltrans.o
 .rodata.rconsts.3
                0x00444330       0x10 /home/notlean/openwrt-uboost/tmp/ccV1QtaS.ltrans7.ltrans.o
 .rodata.C_array.5
                0x00444340      0x100 /home/notlean/openwrt-uboost/tmp/ccV1QtaS.ltrans7.ltrans.o
 .rodata.bb_argv_dash
                0x00444440        0x8 /home/notlean/openwrt-uboost/tmp/ccV1QtaS.ltrans7.ltrans.o
 .rodata.magic.0
                0x00444448        0xc /home/notlean/openwrt-uboost/tmp/ccV1QtaS.ltrans7.ltrans.o
 .rodata.signals.1
                0x00444454        0x4 /home/notlean/openwrt-uboost/tmp/ccV1QtaS.ltrans7.ltrans.o
 .rodata.ife_print_flags_mask.1
                0x00444458       0x1a /home/notlean/openwrt-uboost/tmp/ccV1QtaS.ltrans0.ltrans.o
 .rodata.arphrd_type.0
                0x00444472       0x26 /home/notlean/openwrt-uboost/tmp/ccV1QtaS.ltrans1.ltrans.o
 .rodata.flags_ipvx
                0x00444498        0x8 /home/notlean/openwrt-uboost/tmp/ccV1QtaS.ltrans1.ltrans.o
 .rodata.S_I_T.lto_priv.0
                0x004444a0       0x1c /home/notlean/openwrt-uboost/tmp/ccV1QtaS.ltrans2.ltrans.o
                0x004444a0                S_I_T.lto_priv.0
 .rodata.MAC_BCAST_ADDR
                0x004444bc        0x6 /home/notlean/openwrt-uboost/tmp/ccV1QtaS.ltrans2.ltrans.o
                0x004444bc                MAC_BCAST_ADDR
 .rodata.dhcp_optflags
                0x004444c2       0x4e /home/notlean/openwrt-uboost/tmp/ccV1QtaS.ltrans2.ltrans.o
 .rodata.limits_tbl
                0x00444510       0x1e /home/notlean/openwrt-uboost/tmp/ccV1QtaS.ltrans3.ltrans.o
 .rodata.dist   0x0044452e       0x5e /home/notlean/openwrt-uboost/tmp/ccV1QtaS.ltrans4.ltrans.o
 .rodata.lit    0x0044458c       0x5e /home/notlean/openwrt-uboost/tmp/ccV1QtaS.ltrans4.ltrans.o
 .rodata.mask_bits
                0x004445ea       0x22 /home/notlean/openwrt-uboost/tmp/ccV1QtaS.ltrans4.ltrans.o
 .rodata.PRIMES
                0x0044460c        0xa /home/notlean/openwrt-uboost/tmp/ccV1QtaS.ltrans5.ltrans.o
 .rodata.ops_table
                0x00444616       0x56 /home/notlean/openwrt-uboost/tmp/ccV1QtaS.ltrans5.ltrans.o
 .rodata.perm_mask.1
                0x0044466c        0xc /home/notlean/openwrt-uboost/tmp/ccV1QtaS.ltrans7.ltrans.o
 .rodata.who_mask.2
                0x00444678        0x8 /home/notlean/openwrt-uboost/tmp/ccV1QtaS.ltrans7.ltrans.o
 .rodata.qtypes
                0x00444680       0x50 /home/notlean/openwrt-uboost/tmp/ccV1QtaS.ltrans0.ltrans.o
 .rodata.families.1
                0x004446d0       0x11 /home/notlean/openwrt-uboost/tmp/ccV1QtaS.ltrans0.ltrans.o
 .rodata.ip_common_commands.2
                0x004446e1       0x16 /home/notlean/openwrt-uboost/tmp/ccV1QtaS.ltrans0.ltrans.o
 .rodata.keywords.1
                0x004446f7       0x21 /home/notlean/openwrt-uboost/tmp/ccV1QtaS.ltrans0.ltrans.o
 .rodata.ife_print_flags_strs.0
                0x00444718       0x6a /home/notlean/openwrt-uboost/tmp/ccV1QtaS.ltrans0.ltrans.o
 .rodata.TRext  0x00444782        0xf /home/notlean/openwrt-uboost/tmp/ccV1QtaS.ltrans0.ltrans.o
 .rodata.no_yes.1
                0x00444791       0x17 /home/notlean/openwrt-uboost/tmp/ccV1QtaS.ltrans0.ltrans.o
 .rodata.bb_msg_invalid_arg_to
                0x004447a8       0x1e /home/notlean/openwrt-uboost/tmp/ccV1QtaS.ltrans0.ltrans.o
                0x004447a8                bb_msg_invalid_arg_to
 .rodata.keywords.2
                0x004447c6       0x7c /home/notlean/openwrt-uboost/tmp/ccV1QtaS.ltrans0.ltrans.o
 .rodata.state_names.0
                0x00444842       0x30 /home/notlean/openwrt-uboost/tmp/ccV1QtaS.ltrans0.ltrans.o
 .rodata.posix_format
                0x00444872       0x17 /home/notlean/openwrt-uboost/tmp/ccV1QtaS.ltrans0.ltrans.o
 .rodata.long_format
                0x00444889      0x2cb /home/notlean/openwrt-uboost/tmp/ccV1QtaS.ltrans0.ltrans.o
 .rodata.default_format
                0x00444b54       0x17 /home/notlean/openwrt-uboost/tmp/ccV1QtaS.ltrans0.ltrans.o
 .rodata.bb_msg_standard_input
                0x00444b6b        0xf /home/notlean/openwrt-uboost/tmp/ccV1QtaS.ltrans0.ltrans.o
                0x00444b6b                bb_msg_standard_input
 .rodata.ctrlconv
                0x00444b7a       0x21 /home/notlean/openwrt-uboost/tmp/ccV1QtaS.ltrans0.ltrans.o
 .rodata.controls
                0x00444b9b       0x21 /home/notlean/openwrt-uboost/tmp/ccV1QtaS.ltrans0.ltrans.o
 .rodata.bb_msg_you_must_be_root
                0x00444bbc       0x11 /home/notlean/openwrt-uboost/tmp/ccV1QtaS.ltrans0.ltrans.o
                0x00444bbc                bb_msg_you_must_be_root
 .rodata.DowAry
                0x00444bcd       0x16 /home/notlean/openwrt-uboost/tmp/ccV1QtaS.ltrans0.ltrans.o
 .rodata.MonAry
                0x00444be3       0x25 /home/notlean/openwrt-uboost/tmp/ccV1QtaS.ltrans0.ltrans.o
 .rodata.bb_default_login_shell
                0x00444c08        0x9 /home/notlean/openwrt-uboost/tmp/ccV1QtaS.ltrans0.ltrans.o
                0x00444c08                bb_default_login_shell
 .rodata.bb_msg_invalid_date
                0x00444c11       0x12 /home/notlean/openwrt-uboost/tmp/ccV1QtaS.ltrans0.ltrans.o
                0x00444c11                bb_msg_invalid_date
 .rodata.bb_msg_memory_exhausted
                0x00444c23        0xe /home/notlean/openwrt-uboost/tmp/ccV1QtaS.ltrans0.ltrans.o
                0x00444c23                bb_msg_memory_exhausted
 .rodata.bb_hexdigits_upcase
                0x00444c31       0x11 /home/notlean/openwrt-uboost/tmp/ccV1QtaS.ltrans0.ltrans.o
 .rodata.applet_flags
                0x00444c42       0x1e /home/notlean/openwrt-uboost/tmp/ccV1QtaS.ltrans0.ltrans.o
 .rodata.bb_busybox_exec_path
                0x00444c60        0xf /home/notlean/openwrt-uboost/tmp/ccV1QtaS.ltrans0.ltrans.o
                0x00444c60                bb_busybox_exec_path
 .rodata.applet_names
                0x00444c6f      0x2b5 /home/notlean/openwrt-uboost/tmp/ccV1QtaS.ltrans0.ltrans.o
 .rodata.bb_banner
                0x00444f24       0x2a /home/notlean/openwrt-uboost/tmp/ccV1QtaS.ltrans0.ltrans.o
                0x00444f24                bb_banner
 .rodata.usage_messages
                0x00444f4e     0x78b3 /home/notlean/openwrt-uboost/tmp/ccV1QtaS.ltrans0.ltrans.o
 .rodata.keywords.lto_priv.1
                0x0044c801       0x61 /home/notlean/openwrt-uboost/tmp/ccV1QtaS.ltrans1.ltrans.o
 .rodata.ip_rule_commands.0
                0x0044c862       0x16 /home/notlean/openwrt-uboost/tmp/ccV1QtaS.ltrans1.ltrans.o
 .rodata.keywords.lto_priv.0
                0x0044c878       0x86 /home/notlean/openwrt-uboost/tmp/ccV1QtaS.ltrans1.ltrans.o
 .rodata.ip_route_commands.4
                0x0044c8fe       0x49 /home/notlean/openwrt-uboost/tmp/ccV1QtaS.ltrans1.ltrans.o
 .rodata.options.3
                0x0044c947       0x26 /home/notlean/openwrt-uboost/tmp/ccV1QtaS.ltrans1.ltrans.o
 .rodata.fn.1   0x0044c96d       0x1f /home/notlean/openwrt-uboost/tmp/ccV1QtaS.ltrans1.ltrans.o
 .rodata.keywords.2.lto_priv.2
                0x0044c98c       0x4e /home/notlean/openwrt-uboost/tmp/ccV1QtaS.ltrans1.ltrans.o
 .rodata.keywords.0.lto_priv.1
                0x0044c9da       0x42 /home/notlean/openwrt-uboost/tmp/ccV1QtaS.ltrans1.ltrans.o
 .rodata.ip_neigh_commands.3
                0x0044ca1c        0xc /home/notlean/openwrt-uboost/tmp/ccV1QtaS.ltrans1.ltrans.o
 .rodata.nuds.0
                0x0044ca28        0x9 /home/notlean/openwrt-uboost/tmp/ccV1QtaS.ltrans1.ltrans.o
 .rodata.keywords.1
                0x0044ca31       0x44 /home/notlean/openwrt-uboost/tmp/ccV1QtaS.ltrans1.ltrans.o
 .rodata.keywords.2.lto_priv.1
                0x0044ca75        0xc /home/notlean/openwrt-uboost/tmp/ccV1QtaS.ltrans1.ltrans.o
 .rodata.keywords.0.lto_priv.0
                0x0044ca81       0x4f /home/notlean/openwrt-uboost/tmp/ccV1QtaS.ltrans1.ltrans.o
 .rodata.keywords.4
                0x0044cad0       0x1e /home/notlean/openwrt-uboost/tmp/ccV1QtaS.ltrans1.ltrans.o
 .rodata.protocols.1
                0x0044caee       0x10 /home/notlean/openwrt-uboost/tmp/ccV1QtaS.ltrans1.ltrans.o
 .rodata.keywords.2.lto_priv.0
                0x0044cafe       0x31 /home/notlean/openwrt-uboost/tmp/ccV1QtaS.ltrans1.ltrans.o
 .rodata.keywords.3
                0x0044cb2f       0x1c /home/notlean/openwrt-uboost/tmp/ccV1QtaS.ltrans1.ltrans.o
 .rodata.commands.1
                0x0044cb4b       0x33 /home/notlean/openwrt-uboost/tmp/ccV1QtaS.ltrans1.ltrans.o
 .rodata.option.0
                0x0044cb7e       0x5f /home/notlean/openwrt-uboost/tmp/ccV1QtaS.ltrans1.ltrans.o
 .rodata.option.5
                0x0044cbdd       0x17 /home/notlean/openwrt-uboost/tmp/ccV1QtaS.ltrans1.ltrans.o
 .rodata.bb_msg_requires_arg
                0x0044cbf4       0x18 /home/notlean/openwrt-uboost/tmp/ccV1QtaS.ltrans1.ltrans.o
                0x0044cbf4                bb_msg_requires_arg
 .rodata.flag_labels.2
                0x0044cc0c       0x3c /home/notlean/openwrt-uboost/tmp/ccV1QtaS.ltrans1.ltrans.o
 .rodata.arphrd_name.1
                0x0044cc48       0x7d /home/notlean/openwrt-uboost/tmp/ccV1QtaS.ltrans1.ltrans.o
 .rodata.operstate_labels.4
                0x0044ccc5       0x3b /home/notlean/openwrt-uboost/tmp/ccV1QtaS.ltrans1.ltrans.o
 .rodata.tbl_verb
                0x0044cd00       0x13 /home/notlean/openwrt-uboost/tmp/ccV1QtaS.ltrans1.ltrans.o
 .rodata.flagchars
                0x0044cd13        0xc /home/notlean/openwrt-uboost/tmp/ccV1QtaS.ltrans1.ltrans.o
 .rodata.tbl_ipvx
                0x0044cd1f       0x5c /home/notlean/openwrt-uboost/tmp/ccV1QtaS.ltrans1.ltrans.o
 .rodata.tbl_hash_net_host
                0x0044cd7b        0xe /home/notlean/openwrt-uboost/tmp/ccV1QtaS.ltrans1.ltrans.o
 .rodata.nodesize
                0x0044cd89       0x1b /home/notlean/openwrt-uboost/tmp/ccV1QtaS.ltrans2.ltrans.o
 .rodata.bb_PATH_root_path
                0x0044cda4       0x23 /home/notlean/openwrt-uboost/tmp/ccV1QtaS.ltrans2.ltrans.o
                0x0044cda4                bb_PATH_root_path
 .rodata.defifsvar
                0x0044cdc7        0x8 /home/notlean/openwrt-uboost/tmp/ccV1QtaS.ltrans2.ltrans.o
                0x0044cdc7                defifsvar
 .rodata.chars.0
                0x0044cdcf        0x7 /home/notlean/openwrt-uboost/tmp/ccV1QtaS.ltrans2.ltrans.o
 .rodata.dolatstr.lto_priv.0
                0x0044cdd6        0x7 /home/notlean/openwrt-uboost/tmp/ccV1QtaS.ltrans2.ltrans.o
                0x0044cdd6                dolatstr.lto_priv.0
 .rodata.spclchars.3
                0x0044cddd        0xc /home/notlean/openwrt-uboost/tmp/ccV1QtaS.ltrans2.ltrans.o
 .rodata.syntax_index_table.lto_priv.0
                0x0044cde9      0x101 /home/notlean/openwrt-uboost/tmp/ccV1QtaS.ltrans2.ltrans.o
                0x0044cde9                syntax_index_table.lto_priv.0
 .rodata.qchars.4
                0x0044ceea        0x4 /home/notlean/openwrt-uboost/tmp/ccV1QtaS.ltrans2.ltrans.o
 .rodata.vstype.2
                0x0044ceee       0x30 /home/notlean/openwrt-uboost/tmp/ccV1QtaS.ltrans2.ltrans.o
 .rodata.fields.0
                0x0044cf1e       0x6a /home/notlean/openwrt-uboost/tmp/ccV1QtaS.ltrans2.ltrans.o
 .rodata.fmt.1  0x0044cf88       0x2c /home/notlean/openwrt-uboost/tmp/ccV1QtaS.ltrans2.ltrans.o
 .rodata.signals.lto_priv.0
                0x0044cfb4       0xe0 /home/notlean/openwrt-uboost/tmp/ccV1QtaS.ltrans2.ltrans.o
                0x0044cfb4                signals.lto_priv.0
 .rodata.dhcp_option_lengths
                0x0044d094        0xd /home/notlean/openwrt-uboost/tmp/ccV1QtaS.ltrans2.ltrans.o
                0x0044d094                dhcp_option_lengths
 .rodata.udhcpc_longopts
                0x0044d0a1       0xda /home/notlean/openwrt-uboost/tmp/ccV1QtaS.ltrans2.ltrans.o
 .rodata.dhcp_option_strings
                0x0044d17b      0x119 /home/notlean/openwrt-uboost/tmp/ccV1QtaS.ltrans2.ltrans.o
                0x0044d17b                dhcp_option_strings
 .rodata.filesystems.0
                0x0044d294       0x24 /home/notlean/openwrt-uboost/tmp/ccV1QtaS.ltrans3.ltrans.o
 .rodata.bb_msg_perm_denied_are_you_root
                0x0044d2b8       0x22 /home/notlean/openwrt-uboost/tmp/ccV1QtaS.ltrans3.ltrans.o
                0x0044d2b8                bb_msg_perm_denied_are_you_root
 .rodata.mount_option_str
                0x0044d2da      0x166 /home/notlean/openwrt-uboost/tmp/ccV1QtaS.ltrans3.ltrans.o
 .rodata.SWAPSPACE2
                0x0044d440        0xa /home/notlean/openwrt-uboost/tmp/ccV1QtaS.ltrans3.ltrans.o
 .rodata.hwclock_longopts.0
                0x0044d44a       0x3c /home/notlean/openwrt-uboost/tmp/ccV1QtaS.ltrans3.ltrans.o
 .rodata.add_first
                0x0044d486        0xc /home/notlean/openwrt-uboost/tmp/ccV1QtaS.ltrans3.ltrans.o
 .rodata.hexdump_opts
                0x0044d492       0x10 /home/notlean/openwrt-uboost/tmp/ccV1QtaS.ltrans3.ltrans.o
 .rodata.flock_longopts.0
                0x0044d4a2       0x2a /home/notlean/openwrt-uboost/tmp/ccV1QtaS.ltrans3.ltrans.o
 .rodata.op_tokens
                0x0044d4cc       0x8d /home/notlean/openwrt-uboost/tmp/ccV1QtaS.ltrans3.ltrans.o
 .rodata.defoptindvar
                0x0044d559        0x9 /home/notlean/openwrt-uboost/tmp/ccV1QtaS.ltrans3.ltrans.o
 .rodata.limits_help
                0x0044d562      0x11e /home/notlean/openwrt-uboost/tmp/ccV1QtaS.ltrans3.ltrans.o
 .rodata.limit_chars
                0x0044d680       0x10 /home/notlean/openwrt-uboost/tmp/ccV1QtaS.ltrans3.ltrans.o
 .rodata.ulimit_opt_string
                0x0044d690       0x32 /home/notlean/openwrt-uboost/tmp/ccV1QtaS.ltrans3.ltrans.o
 .rodata.permuser.7
                0x0044d6c2        0x3 /home/notlean/openwrt-uboost/tmp/ccV1QtaS.ltrans3.ltrans.o
 .rodata.timescmd_str
                0x0044d6c5        0x9 /home/notlean/openwrt-uboost/tmp/ccV1QtaS.ltrans3.ltrans.o
 .rodata.xxreadtoken_tokens
                0x0044d6ce        0xa /home/notlean/openwrt-uboost/tmp/ccV1QtaS.ltrans3.ltrans.o
 .rodata.xxreadtoken_chars
                0x0044d6d8        0x7 /home/notlean/openwrt-uboost/tmp/ccV1QtaS.ltrans3.ltrans.o
 .rodata.C_escapes.5
                0x0044d6df       0x12 /home/notlean/openwrt-uboost/tmp/ccV1QtaS.ltrans3.ltrans.o
 .rodata.types.6
                0x0044d6f1        0x6 /home/notlean/openwrt-uboost/tmp/ccV1QtaS.ltrans3.ltrans.o
 .rodata.keywords.0
                0x0044d6f7       0x21 /home/notlean/openwrt-uboost/tmp/ccV1QtaS.ltrans4.ltrans.o
 .rodata.bb_msg_standard_output
                0x0044d718       0x10 /home/notlean/openwrt-uboost/tmp/ccV1QtaS.ltrans4.ltrans.o
                0x0044d718                bb_msg_standard_output
 .rodata.oflag_words.0
                0x0044d728       0x1a /home/notlean/openwrt-uboost/tmp/ccV1QtaS.ltrans4.ltrans.o
 .rodata.iflag_words.1
                0x0044d742       0x29 /home/notlean/openwrt-uboost/tmp/ccV1QtaS.ltrans4.ltrans.o
 .rodata.conv_words.2
                0x0044d76b       0x21 /home/notlean/openwrt-uboost/tmp/ccV1QtaS.ltrans4.ltrans.o
 .rodata.keywords.3
                0x0044d78c       0x33 /home/notlean/openwrt-uboost/tmp/ccV1QtaS.ltrans4.ltrans.o
 .rodata.isoformats.0
                0x0044d7bf       0x1f /home/notlean/openwrt-uboost/tmp/ccV1QtaS.ltrans4.ltrans.o
 .rodata.date_longopts
                0x0044d7de       0x35 /home/notlean/openwrt-uboost/tmp/ccV1QtaS.ltrans4.ltrans.o
 .rodata._op_on_field.0
                0x0044d813       0x1f /home/notlean/openwrt-uboost/tmp/ccV1QtaS.ltrans4.ltrans.o
 .rodata.extra_blbits
                0x0044d832       0x13 /home/notlean/openwrt-uboost/tmp/ccV1QtaS.ltrans4.ltrans.o
 .rodata.bl_order
                0x0044d845       0x13 /home/notlean/openwrt-uboost/tmp/ccV1QtaS.ltrans4.ltrans.o
 .rodata.extra_lbits
                0x0044d858       0x1d /home/notlean/openwrt-uboost/tmp/ccV1QtaS.ltrans4.ltrans.o
 .rodata.extra_dbits
                0x0044d875       0x1e /home/notlean/openwrt-uboost/tmp/ccV1QtaS.ltrans4.ltrans.o
 .rodata.vValues
                0x0044d893       0x19 /home/notlean/openwrt-uboost/tmp/ccV1QtaS.ltrans5.ltrans.o
 .rodata.vNames
                0x0044d8ac       0x6b /home/notlean/openwrt-uboost/tmp/ccV1QtaS.ltrans5.ltrans.o
 .rodata.EMSG_DIV_BY_ZERO
                0x0044d917       0x11 /home/notlean/openwrt-uboost/tmp/ccV1QtaS.ltrans5.ltrans.o
 .rodata.EMSG_NEGATIVE_FIELD
                0x0044d928       0x19 /home/notlean/openwrt-uboost/tmp/ccV1QtaS.ltrans5.ltrans.o
 .rodata.EMSG_UNDEF_FUNC
                0x0044d941       0x1b /home/notlean/openwrt-uboost/tmp/ccV1QtaS.ltrans5.ltrans.o
 .rodata.EMSG_POSSIBLE_ERROR
                0x0044d95c       0x16 /home/notlean/openwrt-uboost/tmp/ccV1QtaS.ltrans5.ltrans.o
 .rodata.EMSG_NOT_ARRAY
                0x0044d972        0xd /home/notlean/openwrt-uboost/tmp/ccV1QtaS.ltrans5.ltrans.o
 .rodata.EMSG_TOO_FEW_ARGS
                0x0044d97f       0x12 /home/notlean/openwrt-uboost/tmp/ccV1QtaS.ltrans5.ltrans.o
 .rodata.tokenlist
                0x0044d991      0x1c0 /home/notlean/openwrt-uboost/tmp/ccV1QtaS.ltrans5.ltrans.o
 .rodata.EMSG_UNEXP_TOKEN
                0x0044db51       0x11 /home/notlean/openwrt-uboost/tmp/ccV1QtaS.ltrans5.ltrans.o
 .rodata.EMSG_UNEXP_EOS
                0x0044db62       0x19 /home/notlean/openwrt-uboost/tmp/ccV1QtaS.ltrans5.ltrans.o
 .rodata.EMSG_INV_FMT
                0x0044db7b       0x19 /home/notlean/openwrt-uboost/tmp/ccV1QtaS.ltrans5.ltrans.o
 .rodata.uname_longopts.0
                0x0044db94       0x89 /home/notlean/openwrt-uboost/tmp/ccV1QtaS.ltrans5.ltrans.o
 .rodata.touch_longopts.0
                0x0044dc1d       0x31 /home/notlean/openwrt-uboost/tmp/ccV1QtaS.ltrans5.ltrans.o
 .rodata.ops_texts
                0x0044dc4e       0x85 /home/notlean/openwrt-uboost/tmp/ccV1QtaS.ltrans5.ltrans.o
 .rodata.sort_opt_str
                0x0044dcd3       0x26 /home/notlean/openwrt-uboost/tmp/ccV1QtaS.ltrans5.ltrans.o
 .rodata.format_chars.0
                0x0044dcf9        0xe /home/notlean/openwrt-uboost/tmp/ccV1QtaS.ltrans5.ltrans.o
 .rodata.fmt.0  0x0044dd07       0x2d /home/notlean/openwrt-uboost/tmp/ccV1QtaS.ltrans5.ltrans.o
 .rodata.modes_chars
                0x0044dd34        0x8 /home/notlean/openwrt-uboost/tmp/ccV1QtaS.ltrans5.ltrans.o
 .rodata.ls_longopts.0
                0x0044dd3c       0x2f /home/notlean/openwrt-uboost/tmp/ccV1QtaS.ltrans5.ltrans.o
 .rodata.color_str.1
                0x0044dd6b       0x22 /home/notlean/openwrt-uboost/tmp/ccV1QtaS.ltrans5.ltrans.o
 .rodata.head_opts
                0x0044dd8d        0x7 /home/notlean/openwrt-uboost/tmp/ccV1QtaS.ltrans5.ltrans.o
 .rodata.params.1
                0x0044dd94       0xa4 /home/notlean/openwrt-uboost/tmp/ccV1QtaS.ltrans6.ltrans.o
 .rodata.modifying_cmds
                0x0044de38       0x16 /home/notlean/openwrt-uboost/tmp/ccV1QtaS.ltrans6.ltrans.o
 .rodata.cmd_mode_indicator.0
                0x0044de4e        0x5 /home/notlean/openwrt-uboost/tmp/ccV1QtaS.ltrans6.ltrans.o
 .rodata.sed_longopts.1
                0x0044de53       0x43 /home/notlean/openwrt-uboost/tmp/ccV1QtaS.ltrans6.ltrans.o
 .rodata.cmd_letters.0
                0x0044de96       0x1c /home/notlean/openwrt-uboost/tmp/ccV1QtaS.ltrans6.ltrans.o
 .rodata.semicolon_whitespace
                0x0044deb2        0x7 /home/notlean/openwrt-uboost/tmp/ccV1QtaS.ltrans6.ltrans.o
 .rodata.fmt_eof
                0x0044deb9       0x10 /home/notlean/openwrt-uboost/tmp/ccV1QtaS.ltrans6.ltrans.o
 .rodata.fmt_differ
                0x0044dec9       0x22 /home/notlean/openwrt-uboost/tmp/ccV1QtaS.ltrans6.ltrans.o
 .rodata.fmt_l_opt
                0x0044deeb       0x16 /home/notlean/openwrt-uboost/tmp/ccV1QtaS.ltrans6.ltrans.o
 .rodata.cmp_longopts.0
                0x0044df01       0x24 /home/notlean/openwrt-uboost/tmp/ccV1QtaS.ltrans6.ltrans.o
 .rodata.bb_msg_can_not_create_raw_socket
                0x0044df25       0x18 /home/notlean/openwrt-uboost/tmp/ccV1QtaS.ltrans7.ltrans.o
 .rodata.len_of_option_as_string
                0x0044df3d        0xd /home/notlean/openwrt-uboost/tmp/ccV1QtaS.ltrans7.ltrans.o
 .rodata.size_conv_str
                0x0044df4a       0x19 /home/notlean/openwrt-uboost/tmp/ccV1QtaS.ltrans7.ltrans.o
 .rodata.esccmds.0
                0x0044df63       0x67 /home/notlean/openwrt-uboost/tmp/ccV1QtaS.ltrans7.ltrans.o
 .rodata.charmap.0
                0x0044dfca       0x14 /home/notlean/openwrt-uboost/tmp/ccV1QtaS.ltrans7.ltrans.o
 .rodata.perm_chars.0
                0x0044dfde        0x7 /home/notlean/openwrt-uboost/tmp/ccV1QtaS.ltrans7.ltrans.o
 .rodata.who_chars.3
                0x0044dfe5        0x5 /home/notlean/openwrt-uboost/tmp/ccV1QtaS.ltrans7.ltrans.o
 .rodata.mode_chars
                0x0044dfea        0x7 /home/notlean/openwrt-uboost/tmp/ccV1QtaS.ltrans7.ltrans.o
 .rodata.type_chars
                0x0044dff1       0x10 /home/notlean/openwrt-uboost/tmp/ccV1QtaS.ltrans7.ltrans.o
 .rodata.forbid
                0x0044e001       0x96 /home/notlean/openwrt-uboost/tmp/ccV1QtaS.ltrans7.ltrans.o
 .rodata.bb_msg_unknown
                0x0044e097        0xa /home/notlean/openwrt-uboost/tmp/ccV1QtaS.ltrans7.ltrans.o
 .rodata.unit_chars.0
                0x0044e0a1        0x9 /home/notlean/openwrt-uboost/tmp/ccV1QtaS.ltrans7.ltrans.o
 .rodata.P_array.4
                0x0044e0aa       0x30 /home/notlean/openwrt-uboost/tmp/ccV1QtaS.ltrans7.ltrans.o
 .rodata.conv_str
                0x0044e0da       0x21 /home/notlean/openwrt-uboost/tmp/ccV1QtaS.ltrans7.ltrans.o
 .rodata.list.0
                0x0044e0fb       0x7f /home/notlean/openwrt-uboost/tmp/ccV1QtaS.ltrans7.ltrans.o
 .rodata.int_convs
                0x0044e17a        0x7 /home/notlean/openwrt-uboost/tmp/ccV1QtaS.ltrans7.ltrans.o
 .rodata.dot_flags_width_chars
                0x0044e181       0x10 /home/notlean/openwrt-uboost/tmp/ccV1QtaS.ltrans7.ltrans.o

.rodata1
 *(SORT_BY_ALIGNMENT(.rodata1))

.sdata2
 *(SORT_BY_ALIGNMENT(.sdata2) SORT_BY_ALIGNMENT(.sdata2.*) SORT_BY_ALIGNMENT(.gnu.linkonce.s2.*))

.sbss2
 *(SORT_BY_ALIGNMENT(.sbss2) SORT_BY_ALIGNMENT(.sbss2.*) SORT_BY_ALIGNMENT(.gnu.linkonce.sb2.*))

.eh_frame_hdr
 *(SORT_BY_ALIGNMENT(.eh_frame_hdr))
 *(SORT_BY_ALIGNMENT(.eh_frame_entry) SORT_BY_ALIGNMENT(.eh_frame_entry.*))

.eh_frame       0x0044e194        0x4
 *(SORT_BY_ALIGNMENT(.eh_frame))
 .eh_frame      0x0044e194        0x0 /home/notlean/openwrt-uboost/staging_dir/toolchain-mipsel_24kc_gcc-12.3.0_musl/lib/gcc/mipsel-openwrt-linux-musl/12.3.0/crtbegin.o
 .eh_frame      0x0044e194        0x4 /home/notlean/openwrt-uboost/staging_dir/toolchain-mipsel_24kc_gcc-12.3.0_musl/lib/gcc/mipsel-openwrt-linux-musl/12.3.0/crtend.o
 *(SORT_BY_ALIGNMENT(.eh_frame.*))

.sframe
 *(SORT_BY_ALIGNMENT(.sframe))
 *(SORT_BY_ALIGNMENT(.sframe.*))

.gcc_except_table
 *(SORT_BY_ALIGNMENT(.gcc_except_table) SORT_BY_ALIGNMENT(.gcc_except_table.*))

.gnu_extab
 *(SORT_BY_ALIGNMENT(.gnu_extab*))

.exception_ranges
 *(SORT_BY_ALIGNMENT(.exception_ranges*))

.plt            0x0044e1a0     0x1490
 *(SORT_BY_ALIGNMENT(.plt))
 *fill*         0x0044e1a0        0x0 
 .plt           0x0044e1a0     0x1490 /home/notlean/openwrt-uboost/staging_dir/toolchain-mipsel_24kc_gcc-12.3.0_musl/lib/gcc/mipsel-openwrt-linux-musl/12.3.0/../../../../mipsel-openwrt-linux-musl/lib/crt1.o
                0x0044e1a0                _PROCEDURE_LINKAGE_TABLE_
                0x0044e1c0                __register_frame_info@@GLIBC_2.0
                0x0044e1d0                __libc_start_main
                0x0044e1e0                __deregister_frame_info@@GLIBC_2.0
                0x0044e1f1                opendir
                0x0044e201                stpncpy
                0x0044e211                getmntent
                0x0044e221                execve
                0x0044e231                __floatsidf@@GCC_3.0
                0x0044e241                fdopen
                0x0044e251                execvp
                0x0044e261                getspnam_r
                0x0044e271                setuid
                0x0044e281                feof_unlocked
                0x0044e291                memcmp
                0x0044e2a1                qsort
                0x0044e2b1                ioctl
                0x0044e2c1                symlink
                0x0044e2d1                setpriority
                0x0044e2e1                flock
                0x0044e2f1                sendmsg
                0x0044e301                fseeko
                0x0044e311                __nedf2@@GCC_3.0
                0x0044e321                realloc
                0x0044e331                connect
                0x0044e341                write
                0x0044e351                fchdir
                0x0044e361                geteuid
                0x0044e371                dup2
                0x0044e381                _exit
                0x0044e391                __gmtime64_r
                0x0044e3a1                vfork
                0x0044e3b1                mktemp
                0x0044e3c1                tcsetattr
                0x0044e3d1                ns_get32
                0x0044e3e1                __bswapsi2@@GCC_4.3.0
                0x0044e3f1                getgid
                0x0044e401                setsid
                0x0044e411                endgrent
                0x0044e421                sscanf
                0x0044e431                fsync
                0x0044e441                umount2
                0x0044e451                strcspn
                0x0044e461                srand
                0x0044e471                getpagesize
                0x0044e481                pipe
                0x0044e491                access
                0x0044e4a1                __floatunsidf@@GCC_4.2.0
                0x0044e4b1                snprintf
                0x0044e4c1                dup
                0x0044e4d1                __mktime64
                0x0044e4e1                __truncdfsf2@@GCC_3.0
                0x0044e4f1                signal
                0x0044e501                lseek
                0x0044e511                recvmsg
                0x0044e521                freopen
                0x0044e531                cos
                0x0044e541                getpid
                0x0044e551                strcmp
                0x0044e561                readdir
                0x0044e571                __eqdf2@@GCC_3.0
                0x0044e581                __floatdidf@@GCC_3.0
                0x0044e591                strndup
                0x0044e5a1                __ashldi3@@GCC_3.0
                0x0044e5b1                memset
                0x0044e5c1                setgid
                0x0044e5d1                stpcpy
                0x0044e5e1                unlink
                0x0044e5f1                putenv
                0x0044e601                __fstat_time64
                0x0044e611                regerror
                0x0044e621                getpriority
                0x0044e631                recvfrom
                0x0044e641                closelog
                0x0044e651                malloc
                0x0044e661                getcwd
                0x0044e671                fork
                0x0044e681                strverscmp
                0x0044e691                memmove
                0x0044e6a1                gethostbyname
                0x0044e6b1                strcat
                0x0044e6c1                getmntent_r
                0x0044e6d1                strcasestr
                0x0044e6e1                rand
                0x0044e6f1                fflush
                0x0044e701                log
                0x0044e711                fchown
                0x0044e721                strncmp
                0x0044e731                system
                0x0044e741                recv
                0x0044e751                __clock_settime64
                0x0044e761                __divdf3@@GCC_3.0
                0x0044e771                strcpy
                0x0044e781                chroot
                0x0044e791                __ltdf2@@GCC_3.0
                0x0044e7a1                scanf
                0x0044e7b1                getgrnam
                0x0044e7c1                __floatundidf@@GCC_4.2.0
                0x0044e7d1                strrchr
                0x0044e7e1                sigsetjmp
                0x0044e7f1                getnameinfo
                0x0044e801                __gedf2@@GCC_3.0
                0x0044e811                closedir
                0x0044e821                dprintf
                0x0044e831                strnlen
                0x0044e841                fclose
                0x0044e851                sqrt
                0x0044e861                setjmp
                0x0044e871                chown
                0x0044e881                setenv
                0x0044e891                strdup
                0x0044e8a1                inet_addr
                0x0044e8b1                sleep
                0x0044e8c1                wait
                0x0044e8d1                open
                0x0044e8e1                __clock_gettime64
                0x0044e8f1                pow
                0x0044e901                getgrgid
                0x0044e911                strtoll
                0x0044e921                strstr
                0x0044e931                ns_name_uncompress
                0x0044e941                vfprintf
                0x0044e951                kill
                0x0044e961                rename
                0x0044e971                syslog
                0x0044e981                strtok_r
                0x0044e991                unsetenv
                0x0044e9a1                getpwnam
                0x0044e9b1                link
                0x0044e9c1                __utimes_time64
                0x0044e9d1                fscanf
                0x0044e9e1                getsockname
                0x0044e9f1                perror
                0x0044ea01                __futimens_time64
                0x0044ea11                __utimensat_time64
                0x0044ea21                strchr
                0x0044ea31                strncasecmp
                0x0044ea41                chmod
                0x0044ea51                inet_pton
                0x0044ea61                __fixunsdfsi@@GCC_3.0
                0x0044ea71                __lshrdi3@@GCC_3.0
                0x0044ea81                strspn
                0x0044ea91                strpbrk
                0x0044eaa1                crypt
                0x0044eab1                getgroups
                0x0044eac1                bind
                0x0044ead1                reboot
                0x0044eae1                getppid
                0x0044eaf1                if_nametoindex
                0x0044eb01                poll
                0x0044eb11                fgets_unlocked
                0x0044eb21                mount
                0x0044eb31                getpwuid
                0x0044eb41                popen
                0x0044eb51                printf
                0x0044eb61                __localtime64_r
                0x0044eb71                __ashrdi3@@GCC_3.0
                0x0044eb81                fnmatch
                0x0044eb91                __gtdf2@@GCC_3.0
                0x0044eba1                waitpid
                0x0044ebb1                fwrite
                0x0044ebc1                getegid
                0x0044ebd1                regfree
                0x0044ebe1                alarm
                0x0044ebf1                ns_initparse
                0x0044ec01                readlink
                0x0044ec11                swapon
                0x0044ec21                strncpy
                0x0044ec31                tzset
                0x0044ec41                sigemptyset
                0x0044ec51                mempcpy
                0x0044ec61                getchar_unlocked
                0x0044ec71                setrlimit
                0x0044ec81                dirname
                0x0044ec91                exit
                0x0044eca1                raise
                0x0044ecb1                strptime
                0x0044ecc1                __wait3_time64
                0x0044ecd1                ttyname_r
                0x0044ece1                fprintf
                0x0044ecf1                vprintf
                0x0044ed01                strchrnul
                0x0044ed11                memrchr
                0x0044ed21                execlp
                0x0044ed31                ns_get16
                0x0044ed41                __bswapdi2@@GCC_4.3.0
                0x0044ed51                tcgetattr
                0x0044ed61                __divdi3@@GLIBC_2.0
                0x0044ed71                freeaddrinfo
                0x0044ed81                setegid
                0x0044ed91                getservbyname
                0x0044eda1                strtoul
                0x0044edb1                fread
                0x0044edc1                socket
                0x0044edd1                getsid
                0x0044ede1                close
                0x0044edf1                mkstemp
                0x0044ee01                sysconf
                0x0044ee11                killpg
                0x0044ee21                umask
                0x0044ee31                putchar_unlocked
                0x0044ee41                sin
                0x0044ee51                regexec
                0x0044ee61                fileno_unlocked
                0x0044ee71                res_mkquery
                0x0044ee81                getrlimit
                0x0044ee91                execl
                0x0044eea1                sched_setaffinity
                0x0044eeb1                ns_parserr
                0x0044eec1                inet_aton
                0x0044eed1                setbuf
                0x0044eee1                read
                0x0044eef1                getgrouplist
                0x0044ef01                __ledf2@@GCC_3.0
                0x0044ef11                initgroups
                0x0044ef21                seteuid
                0x0044ef31                rmdir
                0x0044ef41                sigprocmask
                0x0044ef51                __stat_time64
                0x0044ef61                mknod
                0x0044ef71                prctl
                0x0044ef81                openlog
                0x0044ef91                __muldf3@@GCC_3.0
                0x0044efa1                putc_unlocked
                0x0044efb1                __time64
                0x0044efc1                strtoull
                0x0044efd1                __errno_location
                0x0044efe1                setsockopt
                0x0044eff1                bsearch
                0x0044f001                setmntent
                0x0044f011                mkdir
                0x0044f021                getpgrp
                0x0044f031                sched_getaffinity
                0x0044f041                sigsuspend
                0x0044f051                fcntl
                0x0044f061                __nanosleep_time64
                0x0044f071                clearenv
                0x0044f081                getservbyport
                0x0044f091                __gettimeofday_time64
                0x0044f0a1                clearerr
                0x0044f0b1                fputs
                0x0044f0c1                realpath
                0x0044f0d1                vsnprintf
                0x0044f0e1                __fixdfdi@@GCC_3.0
                0x0044f0f1                setpgid
                0x0044f101                chdir
                0x0044f111                sync
                0x0044f121                __settimeofday_time64
                0x0044f131                ftruncate
                0x0044f141                pivot_root
                0x0044f151                statfs
                0x0044f161                syscall
                0x0044f171                mkfifo
                0x0044f181                execv
                0x0044f191                __udivdi3@@GLIBC_2.0
                0x0044f1a1                times
                0x0044f1b1                statvfs
                0x0044f1c1                sendto
                0x0044f1d1                __umoddi3@@GLIBC_2.0
                0x0044f1e1                getopt
                0x0044f1f1                free
                0x0044f201                __moddi3@@GLIBC_2.0
                0x0044f211                strftime
                0x0044f221                tcflush
                0x0044f231                pclose
                0x0044f241                atoi
                0x0044f251                isatty
                0x0044f261                ungetc
                0x0044f271                memchr
                0x0044f281                hasmntopt
                0x0044f291                __localtime64
                0x0044f2a1                siglongjmp
                0x0044f2b1                inet_ntoa
                0x0044f2c1                __subdf3@@GCC_3.0
                0x0044f2d1                __adjtimex_time64
                0x0044f2e1                puts
                0x0044f2f1                __lstat_time64
                0x0044f301                tcsetpgrp
                0x0044f311                endmntent
                0x0044f321                strerror
                0x0044f331                fopen
                0x0044f341                ferror_unlocked
                0x0044f351                longjmp
                0x0044f361                __adddf3@@GCC_3.0
                0x0044f371                lchown
                0x0044f381                vasprintf
                0x0044f391                fputs_unlocked
                0x0044f3a1                strsignal
                0x0044f3b1                getc_unlocked
                0x0044f3c1                tcgetpgrp
                0x0044f3d1                inet_ntop
                0x0044f3e1                setpgrp
                0x0044f3f1                sigaddset
                0x0044f401                atan2
                0x0044f411                exp
                0x0044f421                sprintf
                0x0044f431                getenv
                0x0044f441                sendfile
                0x0044f451                __fixdfsi@@GCC_3.0
                0x0044f461                __ctime64
                0x0044f471                sigaction
                0x0044f481                __extendsfdf2@@GCC_3.0
                0x0044f491                memcpy
                0x0044f4a1                sigfillset
                0x0044f4b1                fdatasync
                0x0044f4c1                sched_yield
                0x0044f4d1                __setitimer_time64
                0x0044f4e1                strtod
                0x0044f4f1                regcomp
                0x0044f501                uname
                0x0044f511                strlen
                0x0044f521                shutdown
                0x0044f531                fchmod
                0x0044f541                klogctl
                0x0044f551                strtol
                0x0044f561                __stack_chk_fail
                0x0044f571                usleep
                0x0044f581                mmap
                0x0044f591                getopt_long
                0x0044f5a1                mkdtemp
                0x0044f5b1                swapoff
                0x0044f5c1                setgroups
                0x0044f5d1                getaddrinfo
                0x0044f5e1                strcasecmp
                0x0044f5f1                getuid
                0x0044f601                strsep
                0x0044f611                sysinfo
                0x0044f621                getline

.iplt
 *(SORT_BY_ALIGNMENT(.iplt))
                0x0045fac8                        . = DATA_SEGMENT_ALIGN (CONSTANT (MAXPAGESIZE), CONSTANT (COMMONPAGESIZE))

.eh_frame
 *(SORT_BY_ALIGNMENT(.eh_frame))
 *(SORT_BY_ALIGNMENT(.eh_frame.*))

.sframe
 *(SORT_BY_ALIGNMENT(.sframe))
 *(SORT_BY_ALIGNMENT(.sframe.*))

.gnu_extab
 *(SORT_BY_ALIGNMENT(.gnu_extab))

.gcc_except_table
 *(SORT_BY_ALIGNMENT(.gcc_except_table) SORT_BY_ALIGNMENT(.gcc_except_table.*))

.exception_ranges
 *(SORT_BY_ALIGNMENT(.exception_ranges*))

.tdata          0x0045fac8        0x0
                [!provide]                        PROVIDE (__tdata_start = .)
 *(SORT_BY_ALIGNMENT(.tdata) SORT_BY_ALIGNMENT(.tdata.*) SORT_BY_ALIGNMENT(.gnu.linkonce.td.*))

.tbss
 *(SORT_BY_ALIGNMENT(.tbss) SORT_BY_ALIGNMENT(.tbss.*) SORT_BY_ALIGNMENT(.gnu.linkonce.tb.*))
 *(SORT_BY_ALIGNMENT(.tcommon))

.preinit_array  0x0045fac8        0x0
                [!provide]                        PROVIDE (__preinit_array_start = .)
 *(SORT_BY_ALIGNMENT(.preinit_array))
                [!provide]                        PROVIDE (__preinit_array_end = .)

.init_array     0x0045fac8        0x4
                [!provide]                        PROVIDE (__init_array_start = .)
 *(SORT_BY_INIT_PRIORITY(.init_array.*) SORT_BY_INIT_PRIORITY(.ctors.*))
 *(SORT_BY_ALIGNMENT(.init_array) SORT_BY_ALIGNMENT(EXCLUDE_FILE(*crtend?.o *crtend.o *crtbegin?.o *crtbegin.o) .ctors))
 .init_array    0x0045fac8        0x4 /home/notlean/openwrt-uboost/staging_dir/toolchain-mipsel_24kc_gcc-12.3.0_musl/lib/gcc/mipsel-openwrt-linux-musl/12.3.0/crtbegin.o
                [!provide]                        PROVIDE (__init_array_end = .)

.fini_array     0x0045facc        0x4
                [!provide]                        PROVIDE (__fini_array_start = .)
 *(SORT_BY_INIT_PRIORITY(.fini_array.*) SORT_BY_INIT_PRIORITY(.dtors.*))
 *(SORT_BY_ALIGNMENT(.fini_array) SORT_BY_ALIGNMENT(EXCLUDE_FILE(*crtend?.o *crtend.o *crtbegin?.o *crtbegin.o) .dtors))
 .fini_array    0x0045facc        0x4 /home/notlean/openwrt-uboost/staging_dir/toolchain-mipsel_24kc_gcc-12.3.0_musl/lib/gcc/mipsel-openwrt-linux-musl/12.3.0/crtbegin.o
                [!provide]                        PROVIDE (__fini_array_end = .)

.ctors
 *crtbegin.o(SORT_BY_ALIGNMENT(.ctors))
 *crtbegin?.o(SORT_BY_ALIGNMENT(.ctors))
 *(SORT_BY_ALIGNMENT(EXCLUDE_FILE(*crtend?.o *crtend.o) .ctors))
 *(SORT_BY_NAME(SORT_BY_ALIGNMENT(.ctors.*)))
 *(SORT_BY_ALIGNMENT(.ctors))

.dtors
 *crtbegin.o(SORT_BY_ALIGNMENT(.dtors))
 *crtbegin?.o(SORT_BY_ALIGNMENT(.dtors))
 *(SORT_BY_ALIGNMENT(EXCLUDE_FILE(*crtend?.o *crtend.o) .dtors))
 *(SORT_BY_NAME(SORT_BY_ALIGNMENT(.dtors.*)))
 *(SORT_BY_ALIGNMENT(.dtors))

.jcr
 *(SORT_BY_ALIGNMENT(.jcr))

.data.rel.ro    0x0045fad0        0xc
 *(SORT_BY_ALIGNMENT(.data.rel.ro.local*) SORT_BY_ALIGNMENT(.gnu.linkonce.d.rel.ro.local.*))
 *(SORT_BY_ALIGNMENT(.data.rel.ro) SORT_BY_ALIGNMENT(.data.rel.ro.*) SORT_BY_ALIGNMENT(.gnu.linkonce.d.rel.ro.*))
 .data.rel.ro   0x0045fad0        0xc /home/notlean/openwrt-uboost/staging_dir/toolchain-mipsel_24kc_gcc-12.3.0_musl/lib/gcc/mipsel-openwrt-linux-musl/12.3.0/../../../../mipsel-openwrt-linux-musl/lib/crt1.o
                0x0045fad0                stderr
                0x0045fad4                stdout
                0x0045fad8                stdin

.got.plt        0x0045fadc      0x524
 *(SORT_BY_ALIGNMENT(.got.plt))
 .got.plt       0x0045fadc      0x524 /home/notlean/openwrt-uboost/staging_dir/toolchain-mipsel_24kc_gcc-12.3.0_musl/lib/gcc/mipsel-openwrt-linux-musl/12.3.0/../../../../mipsel-openwrt-linux-musl/lib/crt1.o
                0x00460000                        . = DATA_SEGMENT_RELRO_END (., 0x0)

.data           0x00460000        0xe
                0x00460000                        _fdata = .
 *(SORT_BY_ALIGNMENT(.data) SORT_BY_ALIGNMENT(.data.*) SORT_BY_ALIGNMENT(.gnu.linkonce.d.*))
 .data.ttyfd    0x00460000        0x4 /home/notlean/openwrt-uboost/tmp/ccV1QtaS.ltrans2.ltrans.o
 .data.builtinloc.lto_priv.0
                0x00460004        0x4 /home/notlean/openwrt-uboost/tmp/ccV1QtaS.ltrans2.ltrans.o
                0x00460004                builtinloc.lto_priv.0
 .data.g_parsefile.lto_priv.0
                0x00460008        0x4 /home/notlean/openwrt-uboost/tmp/ccV1QtaS.ltrans2.ltrans.o
                0x00460008                g_parsefile.lto_priv.0
 .data.logmode  0x0046000c        0x1 /home/notlean/openwrt-uboost/tmp/ccV1QtaS.ltrans0.ltrans.o
                0x0046000c                logmode
 .data.xfunc_error_retval
                0x0046000d        0x1 /home/notlean/openwrt-uboost/tmp/ccV1QtaS.ltrans0.ltrans.o
                0x0046000d                xfunc_error_retval

.rld_map        0x00460010        0x4
 .rld_map       0x00460010        0x4 /home/notlean/openwrt-uboost/staging_dir/toolchain-mipsel_24kc_gcc-12.3.0_musl/lib/gcc/mipsel-openwrt-linux-musl/12.3.0/../../../../mipsel-openwrt-linux-musl/lib/crt1.o
                0x00460010                __RLD_MAP

.data1
 *(SORT_BY_ALIGNMENT(.data1))
                0x00460014                        . = .
                0x00468010                        _gp = (ALIGN (0x10) + 0x7ff0)

.got            0x00460020        0x8
 *(SORT_BY_ALIGNMENT(.got))
 .got           0x00460020        0x8 /home/notlean/openwrt-uboost/staging_dir/toolchain-mipsel_24kc_gcc-12.3.0_musl/lib/gcc/mipsel-openwrt-linux-musl/12.3.0/../../../../mipsel-openwrt-linux-musl/lib/crt1.o
                0x00460020                _GLOBAL_OFFSET_TABLE_

.sdata
 *(SORT_BY_ALIGNMENT(.sdata) SORT_BY_ALIGNMENT(.sdata.*) SORT_BY_ALIGNMENT(.gnu.linkonce.s.*))

.lit8
 *(SORT_BY_ALIGNMENT(.lit8))

.lit4
 *(SORT_BY_ALIGNMENT(.lit4))
                0x00460028                        _edata = .
                [!provide]                        PROVIDE (edata = .)
                0x00460028                        . = .
                0x00460028                        __bss_start = .
                0x00460028                        _fbss = .

.sbss
 *(SORT_BY_ALIGNMENT(.dynsbss))
 *(SORT_BY_ALIGNMENT(.sbss) SORT_BY_ALIGNMENT(.sbss.*) SORT_BY_ALIGNMENT(.gnu.linkonce.sb.*))
 *(SORT_BY_ALIGNMENT(.scommon))

.bss            0x00460030      0x6a0
 *(SORT_BY_ALIGNMENT(.dynbss))
 .dynbss        0x00460030       0x10 /home/notlean/openwrt-uboost/staging_dir/toolchain-mipsel_24kc_gcc-12.3.0_musl/lib/gcc/mipsel-openwrt-linux-musl/12.3.0/../../../../mipsel-openwrt-linux-musl/lib/crt1.o
                0x00460030                _environ
                0x00460030                __environ
                0x00460030                environ
                0x00460030                ___environ
                0x00460034                optarg
                0x00460038                __stack_chk_guard
                0x0046003c                optind
 *(SORT_BY_ALIGNMENT(.bss) SORT_BY_ALIGNMENT(.bss.*) SORT_BY_ALIGNMENT(.gnu.linkonce.b.*))
 .bss           0x00460040       0x20 /home/notlean/openwrt-uboost/staging_dir/toolchain-mipsel_24kc_gcc-12.3.0_musl/lib/gcc/mipsel-openwrt-linux-musl/12.3.0/crtbegin.o
 .bss.bb_common_bufsiz1
                0x00460060      0x400 /home/notlean/openwrt-uboost/tmp/ccV1QtaS.ltrans0.ltrans.o
                0x00460060                bb_common_bufsiz1
 .bss.die_jmp   0x00460460       0xf0 /home/notlean/openwrt-uboost/tmp/ccV1QtaS.ltrans0.ltrans.o
 .bss.file      0x00460550        0x4 /home/notlean/openwrt-uboost/tmp/ccV1QtaS.ltrans0.ltrans.o
 .bss.try_lock  0x00460554        0x4 /home/notlean/openwrt-uboost/tmp/ccV1QtaS.ltrans0.ltrans.o
 .bss.unlock    0x00460558        0x4 /home/notlean/openwrt-uboost/tmp/ccV1QtaS.ltrans0.ltrans.o
 .bss.shared    0x0046055c        0x4 /home/notlean/openwrt-uboost/tmp/ccV1QtaS.ltrans0.ltrans.o
 .bss.waitonly  0x00460560        0x4 /home/notlean/openwrt-uboost/tmp/ccV1QtaS.ltrans0.ltrans.o
 .bss.fd        0x00460564        0x4 /home/notlean/openwrt-uboost/tmp/ccV1QtaS.ltrans0.ltrans.o
 .bss.ptr_to_globals
                0x00460568        0x4 /home/notlean/openwrt-uboost/tmp/ccV1QtaS.ltrans0.ltrans.o
                0x00460568                ptr_to_globals
 .bss.local_buf
                0x0046056c        0xc /home/notlean/openwrt-uboost/tmp/ccV1QtaS.ltrans0.ltrans.o
 .bss.option_mask32
                0x00460578        0x4 /home/notlean/openwrt-uboost/tmp/ccV1QtaS.ltrans0.ltrans.o
                0x00460578                option_mask32
 .bss.die_func  0x0046057c        0x4 /home/notlean/openwrt-uboost/tmp/ccV1QtaS.ltrans0.ltrans.o
                0x0046057c                die_func
 .bss.bb_errno  0x00460580        0x4 /home/notlean/openwrt-uboost/tmp/ccV1QtaS.ltrans0.ltrans.o
                0x00460580                bb_errno
 .bss.applet_name
                0x00460584        0x4 /home/notlean/openwrt-uboost/tmp/ccV1QtaS.ltrans0.ltrans.o
                0x00460584                applet_name
 .bss.hz_internal.0
                0x00460588        0x4 /home/notlean/openwrt-uboost/tmp/ccV1QtaS.ltrans1.ltrans.o
 .bss.rtnl_rttable_tab
                0x0046058c        0x4 /home/notlean/openwrt-uboost/tmp/ccV1QtaS.ltrans1.ltrans.o
 .bss.idxmap    0x00460590        0x4 /home/notlean/openwrt-uboost/tmp/ccV1QtaS.ltrans1.ltrans.o
 .bss.rtnl_rtrealm_tab
                0x00460594        0x4 /home/notlean/openwrt-uboost/tmp/ccV1QtaS.ltrans1.ltrans.o
 .bss.rtnl_rtdsfield_tab
                0x00460598        0x4 /home/notlean/openwrt-uboost/tmp/ccV1QtaS.ltrans1.ltrans.o
 .bss.rtnl_rtprot_tab
                0x0046059c        0x4 /home/notlean/openwrt-uboost/tmp/ccV1QtaS.ltrans1.ltrans.o
 .bss.rtnl_rtscope_tab
                0x004605a0        0x4 /home/notlean/openwrt-uboost/tmp/ccV1QtaS.ltrans1.ltrans.o
 .bss.localvar_stack.lto_priv.0
                0x004605a4        0x4 /home/notlean/openwrt-uboost/tmp/ccV1QtaS.ltrans2.ltrans.o
                0x004605a4                localvar_stack.lto_priv.0
 .bss.line_input_state.lto_priv.0
                0x004605a8        0x4 /home/notlean/openwrt-uboost/tmp/ccV1QtaS.ltrans2.ltrans.o
                0x004605a8                line_input_state.lto_priv.0
 .bss.loopnest.lto_priv.0
                0x004605ac        0x4 /home/notlean/openwrt-uboost/tmp/ccV1QtaS.ltrans2.ltrans.o
                0x004605ac                loopnest.lto_priv.0
 .bss.skipcount.lto_priv.0
                0x004605b0        0x4 /home/notlean/openwrt-uboost/tmp/ccV1QtaS.ltrans2.ltrans.o
                0x004605b0                skipcount.lto_priv.0
 .bss.funcblock
                0x004605b4        0x4 /home/notlean/openwrt-uboost/tmp/ccV1QtaS.ltrans2.ltrans.o
 .bss.funcstring_end
                0x004605b8        0x4 /home/notlean/openwrt-uboost/tmp/ccV1QtaS.ltrans2.ltrans.o
 .bss.lastcmdentry
                0x004605bc        0x4 /home/notlean/openwrt-uboost/tmp/ccV1QtaS.ltrans2.ltrans.o
 .bss.exparg    0x004605c0        0x8 /home/notlean/openwrt-uboost/tmp/ccV1QtaS.ltrans2.ltrans.o
 .bss.argbackq  0x004605c8        0x4 /home/notlean/openwrt-uboost/tmp/ccV1QtaS.ltrans2.ltrans.o
 .bss.expdest   0x004605cc        0x4 /home/notlean/openwrt-uboost/tmp/ccV1QtaS.ltrans2.ltrans.o
 .bss.ifslastp  0x004605d0        0x4 /home/notlean/openwrt-uboost/tmp/ccV1QtaS.ltrans2.ltrans.o
 .bss.ifsfirst  0x004605d4       0x10 /home/notlean/openwrt-uboost/tmp/ccV1QtaS.ltrans2.ltrans.o
 .bss.basepf.lto_priv.0
                0x004605e4       0x54 /home/notlean/openwrt-uboost/tmp/ccV1QtaS.ltrans2.ltrans.o
                0x004605e4                basepf.lto_priv.0
 .bss.cmdnextc  0x00460638        0x4 /home/notlean/openwrt-uboost/tmp/ccV1QtaS.ltrans2.ltrans.o
 .bss.initialpgrp
                0x0046063c        0x4 /home/notlean/openwrt-uboost/tmp/ccV1QtaS.ltrans2.ltrans.o
 .bss.jobtab    0x00460640        0x4 /home/notlean/openwrt-uboost/tmp/ccV1QtaS.ltrans2.ltrans.o
 .bss.njobs     0x00460644        0x4 /home/notlean/openwrt-uboost/tmp/ccV1QtaS.ltrans2.ltrans.o
 .bss.curjob    0x00460648        0x4 /home/notlean/openwrt-uboost/tmp/ccV1QtaS.ltrans2.ltrans.o
 .bss.atab.lto_priv.0
                0x0046064c        0x4 /home/notlean/openwrt-uboost/tmp/ccV1QtaS.ltrans2.ltrans.o
                0x0046064c                atab.lto_priv.0
 .bss.cmdtable.lto_priv.0
                0x00460650        0x4 /home/notlean/openwrt-uboost/tmp/ccV1QtaS.ltrans2.ltrans.o
                0x00460650                cmdtable.lto_priv.0
 .bss.cmdedit_prompt.lto_priv.0
                0x00460654        0x4 /home/notlean/openwrt-uboost/tmp/ccV1QtaS.ltrans2.ltrans.o
                0x00460654                cmdedit_prompt.lto_priv.0
 .bss.pathopt.lto_priv.0
                0x00460658        0x4 /home/notlean/openwrt-uboost/tmp/ccV1QtaS.ltrans2.ltrans.o
                0x00460658                pathopt.lto_priv.0
 .bss.ash_ptr_to_globals_var
                0x0046065c        0x4 /home/notlean/openwrt-uboost/tmp/ccV1QtaS.ltrans2.ltrans.o
                0x0046065c                ash_ptr_to_globals_var
 .bss.optionarg.lto_priv.0
                0x00460660        0x4 /home/notlean/openwrt-uboost/tmp/ccV1QtaS.ltrans2.ltrans.o
                0x00460660                optionarg.lto_priv.0
 .bss.argptr.lto_priv.0
                0x00460664        0x4 /home/notlean/openwrt-uboost/tmp/ccV1QtaS.ltrans2.ltrans.o
                0x00460664                argptr.lto_priv.0
 .bss.optptr.lto_priv.0
                0x00460668        0x4 /home/notlean/openwrt-uboost/tmp/ccV1QtaS.ltrans2.ltrans.o
                0x00460668                optptr.lto_priv.0
 .bss.ash_ptr_to_globals_memstack
                0x0046066c        0x4 /home/notlean/openwrt-uboost/tmp/ccV1QtaS.ltrans2.ltrans.o
                0x0046066c                ash_ptr_to_globals_memstack
 .bss.commandname.lto_priv.0
                0x00460670        0x4 /home/notlean/openwrt-uboost/tmp/ccV1QtaS.ltrans2.ltrans.o
                0x00460670                commandname.lto_priv.0
 .bss.ash_ptr_to_globals_misc
                0x00460674        0x4 /home/notlean/openwrt-uboost/tmp/ccV1QtaS.ltrans2.ltrans.o
                0x00460674                ash_ptr_to_globals_misc
 .bss.cache_user_group.lto_priv.0
                0x00460678        0x4 /home/notlean/openwrt-uboost/tmp/ccV1QtaS.ltrans2.ltrans.o
                0x00460678                cache_user_group.lto_priv.0
 .bss.heredoclist
                0x0046067c        0x4 /home/notlean/openwrt-uboost/tmp/ccV1QtaS.ltrans3.ltrans.o
 .bss.heredoc   0x00460680        0x4 /home/notlean/openwrt-uboost/tmp/ccV1QtaS.ltrans3.ltrans.o
 .bss.redirnode
                0x00460684        0x4 /home/notlean/openwrt-uboost/tmp/ccV1QtaS.ltrans3.ltrans.o
 .bss.backquotelist
                0x00460688        0x4 /home/notlean/openwrt-uboost/tmp/ccV1QtaS.ltrans3.ltrans.o
 .bss.wordtext  0x0046068c        0x4 /home/notlean/openwrt-uboost/tmp/ccV1QtaS.ltrans3.ltrans.o
 .bss.lineedit_ptr_to_statics
                0x00460690        0x4 /home/notlean/openwrt-uboost/tmp/ccV1QtaS.ltrans3.ltrans.o
                0x00460690                lineedit_ptr_to_statics
 .bss.funcline  0x00460694        0x4 /home/notlean/openwrt-uboost/tmp/ccV1QtaS.ltrans3.ltrans.o
 .bss.global_crc32_table
                0x00460698        0x4 /home/notlean/openwrt-uboost/tmp/ccV1QtaS.ltrans4.ltrans.o
 .bss.test_ptr_to_statics
                0x0046069c        0x4 /home/notlean/openwrt-uboost/tmp/ccV1QtaS.ltrans5.ltrans.o
 .bss.msgs.0    0x004606a0        0x4 /home/notlean/openwrt-uboost/tmp/ccV1QtaS.ltrans7.ltrans.o
 .bss.ino_dev_hashtable
                0x004606a4        0x4 /home/notlean/openwrt-uboost/tmp/ccV1QtaS.ltrans7.ltrans.o
 .bss.cache.0   0x004606a8        0x4 /home/notlean/openwrt-uboost/tmp/ccV1QtaS.ltrans7.ltrans.o
 .bss.saved.0   0x004606ac       0x10 /home/notlean/openwrt-uboost/tmp/ccV1QtaS.ltrans7.ltrans.o
 .bss._SL_      0x004606bc        0x1 /home/notlean/openwrt-uboost/tmp/ccV1QtaS.ltrans0.ltrans.o
                0x004606bc                _SL_
 .bss.preferred_family
                0x004606bd        0x1 /home/notlean/openwrt-uboost/tmp/ccV1QtaS.ltrans0.ltrans.o
                0x004606bd                preferred_family
 .bss.oneline   0x004606be        0x1 /home/notlean/openwrt-uboost/tmp/ccV1QtaS.ltrans0.ltrans.o
                0x004606be                oneline
 .bss.bb_got_signal
                0x004606bf        0x1 /home/notlean/openwrt-uboost/tmp/ccV1QtaS.ltrans0.ltrans.o
                0x004606bf                bb_got_signal
 .bss.wrote_pidfile
                0x004606c0        0x1 /home/notlean/openwrt-uboost/tmp/ccV1QtaS.ltrans1.ltrans.o
                0x004606c0                wrote_pidfile
 .bss.did_banner.8
                0x004606c1        0x1 /home/notlean/openwrt-uboost/tmp/ccV1QtaS.ltrans2.ltrans.o
 .bss.is_interactive.9
                0x004606c2        0x1 /home/notlean/openwrt-uboost/tmp/ccV1QtaS.ltrans2.ltrans.o
 .bss.evalskip.lto_priv.0
                0x004606c3        0x1 /home/notlean/openwrt-uboost/tmp/ccV1QtaS.ltrans2.ltrans.o
                0x004606c3                evalskip.lto_priv.0
 .bss.doing_jobctl.lto_priv.0
                0x004606c4        0x1 /home/notlean/openwrt-uboost/tmp/ccV1QtaS.ltrans2.ltrans.o
                0x004606c4                doing_jobctl.lto_priv.0
 .bss.needprompt.lto_priv.0
                0x004606c5        0x1 /home/notlean/openwrt-uboost/tmp/ccV1QtaS.ltrans2.ltrans.o
                0x004606c5                needprompt.lto_priv.0
 .bss.quoteflag
                0x004606c6        0x1 /home/notlean/openwrt-uboost/tmp/ccV1QtaS.ltrans3.ltrans.o
 .bss.tokpushback
                0x004606c7        0x1 /home/notlean/openwrt-uboost/tmp/ccV1QtaS.ltrans3.ltrans.o
 .bss.lasttoken
                0x004606c8        0x1 /home/notlean/openwrt-uboost/tmp/ccV1QtaS.ltrans3.ltrans.o
 .bss.doprompt  0x004606c9        0x1 /home/notlean/openwrt-uboost/tmp/ccV1QtaS.ltrans3.ltrans.o
 .bss.checkkwd  0x004606ca        0x1 /home/notlean/openwrt-uboost/tmp/ccV1QtaS.ltrans3.ltrans.o
 .bss.warned.0  0x004606cb        0x1 /home/notlean/openwrt-uboost/tmp/ccV1QtaS.ltrans4.ltrans.o
 .bss.cur_saved.1
                0x004606cc        0x1 /home/notlean/openwrt-uboost/tmp/ccV1QtaS.ltrans7.ltrans.o
 *(SORT_BY_ALIGNMENT(COMMON))
                0x004606d0                        . = ALIGN ((. != 0x0)?0x4:0x1)
 *fill*         0x004606cd        0x3 
                0x004606d0                        . = ALIGN (0x4)
                0x004606d0                        . = SEGMENT_START ("ldata-segment", .)
                0x004606d0                        . = ALIGN (0x4)
                0x004606d0                        _end = .
                [!provide]                        PROVIDE (end = .)
                0x004606d0                        . = DATA_SEGMENT_END (.)

.stab
 *(SORT_BY_ALIGNMENT(.stab))

.stabstr
 *(SORT_BY_ALIGNMENT(.stabstr))

.stab.excl
 *(SORT_BY_ALIGNMENT(.stab.excl))

.stab.exclstr
 *(SORT_BY_ALIGNMENT(.stab.exclstr))

.stab.index
 *(SORT_BY_ALIGNMENT(.stab.index))

.stab.indexstr
 *(SORT_BY_ALIGNMENT(.stab.indexstr))

.comment        0x00000000       0x33
 *(SORT_BY_ALIGNMENT(.comment))
 .comment       0x00000000       0x33 /home/notlean/openwrt-uboost/staging_dir/toolchain-mipsel_24kc_gcc-12.3.0_musl/lib/gcc/mipsel-openwrt-linux-musl/12.3.0/../../../../mipsel-openwrt-linux-musl/lib/crt1.o
                                 0x34 (size before relaxing)
 .comment       0x00000033       0x34 /home/notlean/openwrt-uboost/staging_dir/toolchain-mipsel_24kc_gcc-12.3.0_musl/lib/gcc/mipsel-openwrt-linux-musl/12.3.0/crtbegin.o
 .comment       0x00000033       0x34 /home/notlean/openwrt-uboost/tmp/ccV1QtaS.ltrans0.ltrans.o
 .comment       0x00000033       0x34 /home/notlean/openwrt-uboost/tmp/ccV1QtaS.ltrans1.ltrans.o
 .comment       0x00000033       0x34 /home/notlean/openwrt-uboost/tmp/ccV1QtaS.ltrans2.ltrans.o
 .comment       0x00000033       0x34 /home/notlean/openwrt-uboost/tmp/ccV1QtaS.ltrans3.ltrans.o
 .comment       0x00000033       0x34 /home/notlean/openwrt-uboost/tmp/ccV1QtaS.ltrans4.ltrans.o
 .comment       0x00000033       0x34 /home/notlean/openwrt-uboost/tmp/ccV1QtaS.ltrans5.ltrans.o
 .comment       0x00000033       0x34 /home/notlean/openwrt-uboost/tmp/ccV1QtaS.ltrans6.ltrans.o
 .comment       0x00000033       0x34 /home/notlean/openwrt-uboost/tmp/ccV1QtaS.ltrans7.ltrans.o
 .comment       0x00000033       0x34 /home/notlean/openwrt-uboost/staging_dir/toolchain-mipsel_24kc_gcc-12.3.0_musl/lib/gcc/mipsel-openwrt-linux-musl/12.3.0/crtend.o

.pdr            0x00000000        0x0
 .pdr           0x00000000        0x0 /home/notlean/openwrt-uboost/staging_dir/toolchain-mipsel_24kc_gcc-12.3.0_musl/lib/gcc/mipsel-openwrt-linux-musl/12.3.0/../../../../mipsel-openwrt-linux-musl/lib/crti.o
 .pdr           0x00000000        0x0 /home/notlean/openwrt-uboost/staging_dir/toolchain-mipsel_24kc_gcc-12.3.0_musl/lib/gcc/mipsel-openwrt-linux-musl/12.3.0/crtbegin.o
 .pdr           0x00000000        0x0 /home/notlean/openwrt-uboost/staging_dir/toolchain-mipsel_24kc_gcc-12.3.0_musl/lib/gcc/mipsel-openwrt-linux-musl/12.3.0/crtend.o
 .pdr           0x00000000        0x0 /home/notlean/openwrt-uboost/staging_dir/toolchain-mipsel_24kc_gcc-12.3.0_musl/lib/gcc/mipsel-openwrt-linux-musl/12.3.0/../../../../mipsel-openwrt-linux-musl/lib/crtn.o

.gnu.build.attributes
 *(SORT_BY_ALIGNMENT(.gnu.build.attributes) SORT_BY_ALIGNMENT(.gnu.build.attributes.*))

.debug
 *(SORT_BY_ALIGNMENT(.debug))

.line
 *(SORT_BY_ALIGNMENT(.line))

.debug_srcinfo
 *(SORT_BY_ALIGNMENT(.debug_srcinfo))

.debug_sfnames
 *(SORT_BY_ALIGNMENT(.debug_sfnames))

.debug_aranges  0x00000000       0x70
 *(SORT_BY_ALIGNMENT(.debug_aranges))
 .debug_aranges
                0x00000000       0x28 /home/notlean/openwrt-uboost/staging_dir/toolchain-mipsel_24kc_gcc-12.3.0_musl/lib/gcc/mipsel-openwrt-linux-musl/12.3.0/../../../../mipsel-openwrt-linux-musl/lib/crti.o
 .debug_aranges
                0x00000028       0x28 /home/notlean/openwrt-uboost/staging_dir/toolchain-mipsel_24kc_gcc-12.3.0_musl/lib/gcc/mipsel-openwrt-linux-musl/12.3.0/../../../../mipsel-openwrt-linux-musl/lib/crtn.o
 .debug_aranges
                0x00000050       0x20 /home/notlean/openwrt-uboost/staging_dir/toolchain-mipsel_24kc_gcc-12.3.0_musl/lib/gcc/mipsel-openwrt-linux-musl/12.3.0/../../../../mipsel-openwrt-linux-musl/lib/crt1.o

.debug_pubnames
 *(SORT_BY_ALIGNMENT(.debug_pubnames))

.debug_info     0x00000000      0x18a
 *(SORT_BY_ALIGNMENT(.debug_info) SORT_BY_ALIGNMENT(.gnu.linkonce.wi.*))
 .debug_info    0x00000000      0x144 /home/notlean/openwrt-uboost/staging_dir/toolchain-mipsel_24kc_gcc-12.3.0_musl/lib/gcc/mipsel-openwrt-linux-musl/12.3.0/../../../../mipsel-openwrt-linux-musl/lib/crt1.o
 .debug_info    0x00000144       0x23 /home/notlean/openwrt-uboost/staging_dir/toolchain-mipsel_24kc_gcc-12.3.0_musl/lib/gcc/mipsel-openwrt-linux-musl/12.3.0/../../../../mipsel-openwrt-linux-musl/lib/crti.o
 .debug_info    0x00000167       0x23 /home/notlean/openwrt-uboost/staging_dir/toolchain-mipsel_24kc_gcc-12.3.0_musl/lib/gcc/mipsel-openwrt-linux-musl/12.3.0/../../../../mipsel-openwrt-linux-musl/lib/crtn.o

.debug_abbrev   0x00000000      0x10b
 *(SORT_BY_ALIGNMENT(.debug_abbrev))
 .debug_abbrev  0x00000000       0xe7 /home/notlean/openwrt-uboost/staging_dir/toolchain-mipsel_24kc_gcc-12.3.0_musl/lib/gcc/mipsel-openwrt-linux-musl/12.3.0/../../../../mipsel-openwrt-linux-musl/lib/crt1.o
 .debug_abbrev  0x000000e7       0x12 /home/notlean/openwrt-uboost/staging_dir/toolchain-mipsel_24kc_gcc-12.3.0_musl/lib/gcc/mipsel-openwrt-linux-musl/12.3.0/../../../../mipsel-openwrt-linux-musl/lib/crti.o
 .debug_abbrev  0x000000f9       0x12 /home/notlean/openwrt-uboost/staging_dir/toolchain-mipsel_24kc_gcc-12.3.0_musl/lib/gcc/mipsel-openwrt-linux-musl/12.3.0/../../../../mipsel-openwrt-linux-musl/lib/crtn.o

.debug_line     0x00000000      0x10f
 *(SORT_BY_ALIGNMENT(.debug_line) SORT_BY_ALIGNMENT(.debug_line.*) SORT_BY_ALIGNMENT(.debug_line_end))
 .debug_line    0x00000000       0x59 /home/notlean/openwrt-uboost/staging_dir/toolchain-mipsel_24kc_gcc-12.3.0_musl/lib/gcc/mipsel-openwrt-linux-musl/12.3.0/../../../../mipsel-openwrt-linux-musl/lib/crt1.o
 .debug_line    0x00000059       0x5a /home/notlean/openwrt-uboost/staging_dir/toolchain-mipsel_24kc_gcc-12.3.0_musl/lib/gcc/mipsel-openwrt-linux-musl/12.3.0/../../../../mipsel-openwrt-linux-musl/lib/crti.o
 .debug_line    0x000000b3       0x5c /home/notlean/openwrt-uboost/staging_dir/toolchain-mipsel_24kc_gcc-12.3.0_musl/lib/gcc/mipsel-openwrt-linux-musl/12.3.0/../../../../mipsel-openwrt-linux-musl/lib/crtn.o

.debug_frame    0x00000000       0x2c
 *(SORT_BY_ALIGNMENT(.debug_frame))
 .debug_frame   0x00000000       0x2c /home/notlean/openwrt-uboost/staging_dir/toolchain-mipsel_24kc_gcc-12.3.0_musl/lib/gcc/mipsel-openwrt-linux-musl/12.3.0/../../../../mipsel-openwrt-linux-musl/lib/crt1.o

.debug_str      0x00000000      0x252
 *(SORT_BY_ALIGNMENT(.debug_str))
 .debug_str     0x00000000      0x224 /home/notlean/openwrt-uboost/staging_dir/toolchain-mipsel_24kc_gcc-12.3.0_musl/lib/gcc/mipsel-openwrt-linux-musl/12.3.0/../../../../mipsel-openwrt-linux-musl/lib/crt1.o
                                0x237 (size before relaxing)
 .debug_str     0x00000224       0x1e /home/notlean/openwrt-uboost/staging_dir/toolchain-mipsel_24kc_gcc-12.3.0_musl/lib/gcc/mipsel-openwrt-linux-musl/12.3.0/../../../../mipsel-openwrt-linux-musl/lib/crti.o
                                 0x76 (size before relaxing)
 .debug_str     0x00000242       0x10 /home/notlean/openwrt-uboost/staging_dir/toolchain-mipsel_24kc_gcc-12.3.0_musl/lib/gcc/mipsel-openwrt-linux-musl/12.3.0/../../../../mipsel-openwrt-linux-musl/lib/crtn.o
                                 0x76 (size before relaxing)

.debug_loc
 *(SORT_BY_ALIGNMENT(.debug_loc))

.debug_macinfo
 *(SORT_BY_ALIGNMENT(.debug_macinfo))

.debug_weaknames
 *(SORT_BY_ALIGNMENT(.debug_weaknames))

.debug_funcnames
 *(SORT_BY_ALIGNMENT(.debug_funcnames))

.debug_typenames
 *(SORT_BY_ALIGNMENT(.debug_typenames))

.debug_varnames
 *(SORT_BY_ALIGNMENT(.debug_varnames))

.debug_pubtypes
 *(SORT_BY_ALIGNMENT(.debug_pubtypes))

.debug_ranges
 *(SORT_BY_ALIGNMENT(.debug_ranges))

.debug_addr
 *(SORT_BY_ALIGNMENT(.debug_addr))

.debug_line_str
                0x00000000       0x6f
 *(SORT_BY_ALIGNMENT(.debug_line_str))
 .debug_line_str
                0x00000000       0x68 /home/notlean/openwrt-uboost/staging_dir/toolchain-mipsel_24kc_gcc-12.3.0_musl/lib/gcc/mipsel-openwrt-linux-musl/12.3.0/../../../../mipsel-openwrt-linux-musl/lib/crti.o
 .debug_line_str
                0x00000068        0x7 /home/notlean/openwrt-uboost/staging_dir/toolchain-mipsel_24kc_gcc-12.3.0_musl/lib/gcc/mipsel-openwrt-linux-musl/12.3.0/../../../../mipsel-openwrt-linux-musl/lib/crtn.o
                                 0x68 (size before relaxing)

.debug_loclists
                0x00000000       0x5a
 *(SORT_BY_ALIGNMENT(.debug_loclists))
 .debug_loclists
                0x00000000       0x5a /home/notlean/openwrt-uboost/staging_dir/toolchain-mipsel_24kc_gcc-12.3.0_musl/lib/gcc/mipsel-openwrt-linux-musl/12.3.0/../../../../mipsel-openwrt-linux-musl/lib/crt1.o

.debug_macro
 *(SORT_BY_ALIGNMENT(.debug_macro))

.debug_names
 *(SORT_BY_ALIGNMENT(.debug_names))

.debug_rnglists
                0x00000000       0x45
 *(SORT_BY_ALIGNMENT(.debug_rnglists))
 .debug_rnglists
                0x00000000       0x13 /home/notlean/openwrt-uboost/staging_dir/toolchain-mipsel_24kc_gcc-12.3.0_musl/lib/gcc/mipsel-openwrt-linux-musl/12.3.0/../../../../mipsel-openwrt-linux-musl/lib/crt1.o
 .debug_rnglists
                0x00000013       0x19 /home/notlean/openwrt-uboost/staging_dir/toolchain-mipsel_24kc_gcc-12.3.0_musl/lib/gcc/mipsel-openwrt-linux-musl/12.3.0/../../../../mipsel-openwrt-linux-musl/lib/crti.o
 .debug_rnglists
                0x0000002c       0x19 /home/notlean/openwrt-uboost/staging_dir/toolchain-mipsel_24kc_gcc-12.3.0_musl/lib/gcc/mipsel-openwrt-linux-musl/12.3.0/../../../../mipsel-openwrt-linux-musl/lib/crtn.o

.debug_str_offsets
 *(SORT_BY_ALIGNMENT(.debug_str_offsets))

.debug_sup
 *(SORT_BY_ALIGNMENT(.debug_sup))

.gnu.attributes
                0x00000000       0x10
 *(SORT_BY_ALIGNMENT(.gnu.attributes))
 .gnu.attributes
                0x00000000       0x10 /home/notlean/openwrt-uboost/staging_dir/toolchain-mipsel_24kc_gcc-12.3.0_musl/lib/gcc/mipsel-openwrt-linux-musl/12.3.0/../../../../mipsel-openwrt-linux-musl/lib/crt1.o
 .gnu.attributes
                0x00000010       0x10 /home/notlean/openwrt-uboost/staging_dir/toolchain-mipsel_24kc_gcc-12.3.0_musl/lib/gcc/mipsel-openwrt-linux-musl/12.3.0/../../../../mipsel-openwrt-linux-musl/lib/crti.o
 .gnu.attributes
                0x00000020       0x10 /home/notlean/openwrt-uboost/staging_dir/toolchain-mipsel_24kc_gcc-12.3.0_musl/lib/gcc/mipsel-openwrt-linux-musl/12.3.0/crtbegin.o
 .gnu.attributes
                0x00000030       0x10 /home/notlean/openwrt-uboost/tmp/ccV1QtaS.ltrans0.ltrans.o
 .gnu.attributes
                0x00000040       0x10 /home/notlean/openwrt-uboost/tmp/ccV1QtaS.ltrans1.ltrans.o
 .gnu.attributes
                0x00000050       0x10 /home/notlean/openwrt-uboost/tmp/ccV1QtaS.ltrans2.ltrans.o
 .gnu.attributes
                0x00000060       0x10 /home/notlean/openwrt-uboost/tmp/ccV1QtaS.ltrans3.ltrans.o
 .gnu.attributes
                0x00000070       0x10 /home/notlean/openwrt-uboost/tmp/ccV1QtaS.ltrans4.ltrans.o
 .gnu.attributes
                0x00000080       0x10 /home/notlean/openwrt-uboost/tmp/ccV1QtaS.ltrans5.ltrans.o
 .gnu.attributes
                0x00000090       0x10 /home/notlean/openwrt-uboost/tmp/ccV1QtaS.ltrans6.ltrans.o
 .gnu.attributes
                0x000000a0       0x10 /home/notlean/openwrt-uboost/tmp/ccV1QtaS.ltrans7.ltrans.o
 .gnu.attributes
                0x000000b0       0x10 /home/notlean/openwrt-uboost/staging_dir/toolchain-mipsel_24kc_gcc-12.3.0_musl/lib/gcc/mipsel-openwrt-linux-musl/12.3.0/crtend.o
 .gnu.attributes
                0x000000c0       0x10 /home/notlean/openwrt-uboost/staging_dir/toolchain-mipsel_24kc_gcc-12.3.0_musl/lib/gcc/mipsel-openwrt-linux-musl/12.3.0/../../../../mipsel-openwrt-linux-musl/lib/crtn.o

.gptab.sdata
 *(SORT_BY_ALIGNMENT(.gptab.data))
 *(SORT_BY_ALIGNMENT(.gptab.sdata))

.gptab.sbss
 *(SORT_BY_ALIGNMENT(.gptab.bss))
 *(SORT_BY_ALIGNMENT(.gptab.sbss))

.mdebug.abi32   0x00000000        0x0
 *(SORT_BY_ALIGNMENT(.mdebug.abi32))
 .mdebug.abi32  0x00000000        0x0 /home/notlean/openwrt-uboost/staging_dir/toolchain-mipsel_24kc_gcc-12.3.0_musl/lib/gcc/mipsel-openwrt-linux-musl/12.3.0/../../../../mipsel-openwrt-linux-musl/lib/crt1.o
 .mdebug.abi32  0x00000000        0x0 /home/notlean/openwrt-uboost/staging_dir/toolchain-mipsel_24kc_gcc-12.3.0_musl/lib/gcc/mipsel-openwrt-linux-musl/12.3.0/crtbegin.o
 .mdebug.abi32  0x00000000        0x0 /home/notlean/openwrt-uboost/tmp/ccV1QtaS.ltrans0.ltrans.o
 .mdebug.abi32  0x00000000        0x0 /home/notlean/openwrt-uboost/tmp/ccV1QtaS.ltrans1.ltrans.o
 .mdebug.abi32  0x00000000        0x0 /home/notlean/openwrt-uboost/tmp/ccV1QtaS.ltrans2.ltrans.o
 .mdebug.abi32  0x00000000        0x0 /home/notlean/openwrt-uboost/tmp/ccV1QtaS.ltrans3.ltrans.o
 .mdebug.abi32  0x00000000        0x0 /home/notlean/openwrt-uboost/tmp/ccV1QtaS.ltrans4.ltrans.o
 .mdebug.abi32  0x00000000        0x0 /home/notlean/openwrt-uboost/tmp/ccV1QtaS.ltrans5.ltrans.o
 .mdebug.abi32  0x00000000        0x0 /home/notlean/openwrt-uboost/tmp/ccV1QtaS.ltrans6.ltrans.o
 .mdebug.abi32  0x00000000        0x0 /home/notlean/openwrt-uboost/tmp/ccV1QtaS.ltrans7.ltrans.o
 .mdebug.abi32  0x00000000        0x0 /home/notlean/openwrt-uboost/staging_dir/toolchain-mipsel_24kc_gcc-12.3.0_musl/lib/gcc/mipsel-openwrt-linux-musl/12.3.0/crtend.o

.mdebug.abiN32
 *(SORT_BY_ALIGNMENT(.mdebug.abiN32))

.mdebug.abi64
 *(SORT_BY_ALIGNMENT(.mdebug.abi64))

.mdebug.abiO64
 *(SORT_BY_ALIGNMENT(.mdebug.abiO64))

.mdebug.eabi32
 *(SORT_BY_ALIGNMENT(.mdebug.eabi32))

.mdebug.eabi64
 *(SORT_BY_ALIGNMENT(.mdebug.eabi64))

.gcc_compiled_long32
 *(SORT_BY_ALIGNMENT(.gcc_compiled_long32))

.gcc_compiled_long64
 *(SORT_BY_ALIGNMENT(.gcc_compiled_long64))

/DISCARD/
 *(SORT_BY_ALIGNMENT(.note.GNU-stack))
 *(SORT_BY_ALIGNMENT(.gnu_debuglink))
 *(SORT_BY_ALIGNMENT(.gnu.lto_*))
OUTPUT(busybox_unstripped elf32-tradlittlemips)
